Archive member included because of file (symbol)

/home/louis/Documents/ps3/ps3toolchain/bin/portlibs/ppu/lib/libtiny3d.a(matrix.o)
                              rendering.o (MatrixMultiply)
/home/louis/Documents/ps3/ps3toolchain/bin/portlibs/ppu/lib/libtiny3d.a(tiny3d.o)
                              main.o (tiny3d_Init)
/home/louis/Documents/ps3/ps3toolchain/bin/portlibs/ppu/lib/libtiny3d.a(vshader_text_normal.vcg.o)
                              /home/louis/Documents/ps3/ps3toolchain/bin/portlibs/ppu/lib/libtiny3d.a(tiny3d.o) (vshader_text_normal_bin)
/home/louis/Documents/ps3/ps3toolchain/bin/portlibs/ppu/lib/libtiny3d.a(commands.o)
                              /home/louis/Documents/ps3/ps3toolchain/bin/portlibs/ppu/lib/libtiny3d.a(tiny3d.o) (rsxtiny_MakeCmdSpace)
/home/louis/Documents/ps3/ps3toolchain/bin/portlibs/ppu/lib/libtiny3d.a(glue.o)
                              /home/louis/Documents/ps3/ps3toolchain/bin/portlibs/ppu/lib/libtiny3d.a(tiny3d.o) (rsxtiny_FlushBuffer)
/home/louis/Documents/ps3/ps3toolchain/bin/portlibs/ppu/lib/libtiny3d.a(mm.o)
                              /home/louis/Documents/ps3/ps3toolchain/bin/portlibs/ppu/lib/libtiny3d.a(tiny3d.o) (rsxtiny_MemAlign)
/home/louis/Documents/ps3/ps3toolchain/bin/portlibs/ppu/lib/libtiny3d.a(realityVP.o)
                              /home/louis/Documents/ps3/ps3toolchain/bin/portlibs/ppu/lib/libtiny3d.a(commands.o) (rsxtiny_VertexProgramGetUCode)
/home/louis/Documents/ps3/ps3toolchain/bin/portlibs/ppu/lib/libtiny3d.a(rsxutil.o)
                              /home/louis/Documents/ps3/ps3toolchain/bin/portlibs/ppu/lib/libtiny3d.a(tiny3d.o) (waitFlip)
/home/louis/Documents/ps3/ps3toolchain/bin/portlibs/ppu/lib/libtiny3d.a(buffer.o)
                              /home/louis/Documents/ps3/ps3toolchain/bin/portlibs/ppu/lib/libtiny3d.a(commands.o) (tiny_rsxContextCallback)
/home/louis/Documents/ps3/ps3toolchain/bin/ppu/lib/libgcm_sys.a(sprx.o)
                              /home/louis/Documents/ps3/ps3toolchain/bin/portlibs/ppu/lib/libtiny3d.a(rsxutil.o) (gcmSetFlip)
/home/louis/Documents/ps3/ps3toolchain/bin/ppu/lib/libgcm_sys.a(gcm_wrapper.o)
                              /home/louis/Documents/ps3/ps3toolchain/bin/portlibs/ppu/lib/libtiny3d.a(glue.o) (gcmInitBody)
/home/louis/Documents/ps3/ps3toolchain/bin/ppu/lib/libio.a(sprx.o)
                              rendering.o (ioPadInit)
/home/louis/Documents/ps3/ps3toolchain/bin/ppu/lib/libsysutil.a(sprx.o)
                              /home/louis/Documents/ps3/ps3toolchain/bin/portlibs/ppu/lib/libtiny3d.a(rsxutil.o) (videoConfigure)
/home/louis/Documents/ps3/ps3toolchain/bin/ppu/lib/libsysutil.a(sysutil_wrapper.o)
                              /home/louis/Documents/ps3/ps3toolchain/bin/portlibs/ppu/lib/libtiny3d.a(tiny3d.o) (sysUtilRegisterCallback)
/home/louis/Documents/ps3/ps3toolchain/bin/ppu/lib/librt.a(sbrk.o)
                              /home/louis/Documents/ps3/ps3toolchain/bin/ppu/lib/gcc/powerpc64-ps3-elf/7.2.0/../../../../powerpc64-ps3-elf/lib/lv2-crt0.o (__librt_sbrk_r)
/home/louis/Documents/ps3/ps3toolchain/bin/ppu/lib/librt.a(exit.o)
                              /home/louis/Documents/ps3/ps3toolchain/bin/ppu/lib/gcc/powerpc64-ps3-elf/7.2.0/../../../../powerpc64-ps3-elf/lib/lv2-crt0.o (__librt_exit)
/home/louis/Documents/ps3/ps3toolchain/bin/ppu/lib/librt.a(close.o)
                              /home/louis/Documents/ps3/ps3toolchain/bin/ppu/lib/gcc/powerpc64-ps3-elf/7.2.0/../../../../powerpc64-ps3-elf/lib/lv2-crt0.o (__librt_close_r)
/home/louis/Documents/ps3/ps3toolchain/bin/ppu/lib/librt.a(lseek.o)
                              /home/louis/Documents/ps3/ps3toolchain/bin/ppu/lib/gcc/powerpc64-ps3-elf/7.2.0/../../../../powerpc64-ps3-elf/lib/lv2-crt0.o (__librt_lseek_r)
/home/louis/Documents/ps3/ps3toolchain/bin/ppu/lib/librt.a(read.o)
                              /home/louis/Documents/ps3/ps3toolchain/bin/ppu/lib/gcc/powerpc64-ps3-elf/7.2.0/../../../../powerpc64-ps3-elf/lib/lv2-crt0.o (__librt_read_r)
/home/louis/Documents/ps3/ps3toolchain/bin/ppu/lib/librt.a(open.o)
                              /home/louis/Documents/ps3/ps3toolchain/bin/ppu/lib/gcc/powerpc64-ps3-elf/7.2.0/../../../../powerpc64-ps3-elf/lib/lv2-crt0.o (__librt_open_r)
/home/louis/Documents/ps3/ps3toolchain/bin/ppu/lib/librt.a(sleep.o)
                              /home/louis/Documents/ps3/ps3toolchain/bin/ppu/lib/gcc/powerpc64-ps3-elf/7.2.0/../../../../powerpc64-ps3-elf/lib/lv2-crt0.o (__librt_usleep_r)
/home/louis/Documents/ps3/ps3toolchain/bin/ppu/lib/librt.a(write.o)
                              /home/louis/Documents/ps3/ps3toolchain/bin/ppu/lib/gcc/powerpc64-ps3-elf/7.2.0/../../../../powerpc64-ps3-elf/lib/lv2-crt0.o (__librt_write_r)
/home/louis/Documents/ps3/ps3toolchain/bin/ppu/lib/librt.a(fstat.o)
                              /home/louis/Documents/ps3/ps3toolchain/bin/ppu/lib/gcc/powerpc64-ps3-elf/7.2.0/../../../../powerpc64-ps3-elf/lib/lv2-crt0.o (__librt_fstat_r)
/home/louis/Documents/ps3/ps3toolchain/bin/ppu/lib/librt.a(socket.o)
                              /home/louis/Documents/ps3/ps3toolchain/bin/ppu/lib/librt.a(write.o) (send)
/home/louis/Documents/ps3/ps3toolchain/bin/ppu/lib/librt.a(lock.o)
                              /home/louis/Documents/ps3/ps3toolchain/bin/ppu/lib/gcc/powerpc64-ps3-elf/7.2.0/../../../../powerpc64-ps3-elf/lib/lv2-crt0.o (__librt_sys_lwmutex_create_r)
/home/louis/Documents/ps3/ps3toolchain/bin/ppu/lib/librt.a(dirent.o)
                              /home/louis/Documents/ps3/ps3toolchain/bin/ppu/lib/gcc/powerpc64-ps3-elf/7.2.0/../../../../powerpc64-ps3-elf/lib/lv2-crt0.o (__librt_opendir_r)
/home/louis/Documents/ps3/ps3toolchain/bin/ppu/lib/librt.a(mkdir.o)
                              /home/louis/Documents/ps3/ps3toolchain/bin/ppu/lib/gcc/powerpc64-ps3-elf/7.2.0/../../../../powerpc64-ps3-elf/lib/lv2-crt0.o (__librt_mkdir_r)
/home/louis/Documents/ps3/ps3toolchain/bin/ppu/lib/librt.a(times.o)
                              /home/louis/Documents/ps3/ps3toolchain/bin/ppu/lib/gcc/powerpc64-ps3-elf/7.2.0/../../../../powerpc64-ps3-elf/lib/lv2-crt0.o (__librt_times_r)
/home/louis/Documents/ps3/ps3toolchain/bin/ppu/lib/librt.a(umask.o)
                              /home/louis/Documents/ps3/ps3toolchain/bin/ppu/lib/gcc/powerpc64-ps3-elf/7.2.0/../../../../powerpc64-ps3-elf/lib/lv2-crt0.o (__librt_umask_r)
/home/louis/Documents/ps3/ps3toolchain/bin/ppu/lib/librt.a(lv2errno.o)
                              /home/louis/Documents/ps3/ps3toolchain/bin/ppu/lib/librt.a(socket.o) (lv2errno)
/home/louis/Documents/ps3/ps3toolchain/bin/ppu/lib/librt.a(heap.o)
                              /home/louis/Documents/ps3/ps3toolchain/bin/ppu/lib/librt.a(sbrk.o) (heapInit)
/home/louis/Documents/ps3/ps3toolchain/bin/ppu/lib/librt.a(chmod.o)
                              /home/louis/Documents/ps3/ps3toolchain/bin/ppu/lib/gcc/powerpc64-ps3-elf/7.2.0/../../../../powerpc64-ps3-elf/lib/lv2-crt0.o (__librt_chmod_r)
/home/louis/Documents/ps3/ps3toolchain/bin/ppu/lib/librt.a(rename.o)
                              /home/louis/Documents/ps3/ps3toolchain/bin/ppu/lib/gcc/powerpc64-ps3-elf/7.2.0/../../../../powerpc64-ps3-elf/lib/lv2-crt0.o (__librt_rename_r)
/home/louis/Documents/ps3/ps3toolchain/bin/ppu/lib/librt.a(rmdir.o)
                              /home/louis/Documents/ps3/ps3toolchain/bin/ppu/lib/gcc/powerpc64-ps3-elf/7.2.0/../../../../powerpc64-ps3-elf/lib/lv2-crt0.o (__librt_rmdir_r)
/home/louis/Documents/ps3/ps3toolchain/bin/ppu/lib/librt.a(isatty.o)
                              /home/louis/Documents/ps3/ps3toolchain/bin/ppu/lib/gcc/powerpc64-ps3-elf/7.2.0/../../../../powerpc64-ps3-elf/lib/lv2-crt0.o (__librt_isatty_r)
/home/louis/Documents/ps3/ps3toolchain/bin/ppu/lib/librt.a(gettod.o)
                              /home/louis/Documents/ps3/ps3toolchain/bin/ppu/lib/gcc/powerpc64-ps3-elf/7.2.0/../../../../powerpc64-ps3-elf/lib/lv2-crt0.o (__librt_gettod_r)
/home/louis/Documents/ps3/ps3toolchain/bin/ppu/lib/librt.a(settod.o)
                              /home/louis/Documents/ps3/ps3toolchain/bin/ppu/lib/gcc/powerpc64-ps3-elf/7.2.0/../../../../powerpc64-ps3-elf/lib/lv2-crt0.o (__librt_settod_r)
/home/louis/Documents/ps3/ps3toolchain/bin/ppu/lib/librt.a(unlink.o)
                              /home/louis/Documents/ps3/ps3toolchain/bin/ppu/lib/gcc/powerpc64-ps3-elf/7.2.0/../../../../powerpc64-ps3-elf/lib/lv2-crt0.o (__librt_unlink_r)
/home/louis/Documents/ps3/ps3toolchain/bin/ppu/lib/librt.a(link.o)
                              /home/louis/Documents/ps3/ps3toolchain/bin/ppu/lib/gcc/powerpc64-ps3-elf/7.2.0/../../../../powerpc64-ps3-elf/lib/lv2-crt0.o (__librt_link_r)
/home/louis/Documents/ps3/ps3toolchain/bin/ppu/lib/librt.a(truncate.o)
                              /home/louis/Documents/ps3/ps3toolchain/bin/ppu/lib/gcc/powerpc64-ps3-elf/7.2.0/../../../../powerpc64-ps3-elf/lib/lv2-crt0.o (__librt_truncate_r)
/home/louis/Documents/ps3/ps3toolchain/bin/ppu/lib/librt.a(fsync.o)
                              /home/louis/Documents/ps3/ps3toolchain/bin/ppu/lib/gcc/powerpc64-ps3-elf/7.2.0/../../../../powerpc64-ps3-elf/lib/lv2-crt0.o (__librt_fsync_r)
/home/louis/Documents/ps3/ps3toolchain/bin/ppu/lib/librt.a(utime.o)
                              /home/louis/Documents/ps3/ps3toolchain/bin/ppu/lib/gcc/powerpc64-ps3-elf/7.2.0/../../../../powerpc64-ps3-elf/lib/lv2-crt0.o (__librt_utime_r)
/home/louis/Documents/ps3/ps3toolchain/bin/ppu/lib/librt.a(globfile.o)
                              /home/louis/Documents/ps3/ps3toolchain/bin/ppu/lib/gcc/powerpc64-ps3-elf/7.2.0/../../../../powerpc64-ps3-elf/lib/lv2-crt0.o (__librt_chdir_r)
/home/louis/Documents/ps3/ps3toolchain/bin/ppu/lib/liblv2.a(sprx.o)
                              /home/louis/Documents/ps3/ps3toolchain/bin/ppu/lib/librt.a(sbrk.o) (sysSpinlockInitialize)
/home/louis/Documents/ps3/ps3toolchain/bin/ppu/lib/gcc/powerpc64-ps3-elf/7.2.0/../../../../powerpc64-ps3-elf/lib/libm.a(lib_a-sf_cos.o)
                              /home/louis/Documents/ps3/ps3toolchain/bin/portlibs/ppu/lib/libtiny3d.a(matrix.o) (cosf)
/home/louis/Documents/ps3/ps3toolchain/bin/ppu/lib/gcc/powerpc64-ps3-elf/7.2.0/../../../../powerpc64-ps3-elf/lib/libm.a(lib_a-sf_sine.o)
                              /home/louis/Documents/ps3/ps3toolchain/bin/ppu/lib/gcc/powerpc64-ps3-elf/7.2.0/../../../../powerpc64-ps3-elf/lib/libm.a(lib_a-sf_cos.o) (sinef)
/home/louis/Documents/ps3/ps3toolchain/bin/ppu/lib/gcc/powerpc64-ps3-elf/7.2.0/../../../../powerpc64-ps3-elf/lib/libm.a(lib_a-sf_sin.o)
                              /home/louis/Documents/ps3/ps3toolchain/bin/portlibs/ppu/lib/libtiny3d.a(matrix.o) (sinf)
/home/louis/Documents/ps3/ps3toolchain/bin/ppu/lib/gcc/powerpc64-ps3-elf/7.2.0/../../../../powerpc64-ps3-elf/lib/libm.a(lib_a-sf_sqrt.o)
                              /home/louis/Documents/ps3/ps3toolchain/bin/portlibs/ppu/lib/libtiny3d.a(matrix.o) (sqrtf)
/home/louis/Documents/ps3/ps3toolchain/bin/ppu/lib/gcc/powerpc64-ps3-elf/7.2.0/../../../../powerpc64-ps3-elf/lib/libm.a(lib_a-sf_tan.o)
                              /home/louis/Documents/ps3/ps3toolchain/bin/portlibs/ppu/lib/libtiny3d.a(matrix.o) (tanf)
/home/louis/Documents/ps3/ps3toolchain/bin/ppu/lib/gcc/powerpc64-ps3-elf/7.2.0/../../../../powerpc64-ps3-elf/lib/libm.a(lib_a-s_mathcnst.o)
                              /home/louis/Documents/ps3/ps3toolchain/bin/ppu/lib/gcc/powerpc64-ps3-elf/7.2.0/../../../../powerpc64-ps3-elf/lib/libm.a(lib_a-sf_sine.o) (z_notanum_f)
/home/louis/Documents/ps3/ps3toolchain/bin/ppu/lib/gcc/powerpc64-ps3-elf/7.2.0/../../../../powerpc64-ps3-elf/lib/libm.a(lib_a-s_sqrt.o)
                              /home/louis/Documents/ps3/ps3toolchain/bin/portlibs/ppu/lib/libtiny3d.a(matrix.o) (sqrt)
/home/louis/Documents/ps3/ps3toolchain/bin/ppu/lib/gcc/powerpc64-ps3-elf/7.2.0/../../../../powerpc64-ps3-elf/lib/libm.a(lib_a-sf_fabs.o)
                              /home/louis/Documents/ps3/ps3toolchain/bin/ppu/lib/gcc/powerpc64-ps3-elf/7.2.0/../../../../powerpc64-ps3-elf/lib/libm.a(lib_a-sf_sine.o) (fabsf)
/home/louis/Documents/ps3/ps3toolchain/bin/ppu/lib/gcc/powerpc64-ps3-elf/7.2.0/../../../../powerpc64-ps3-elf/lib/libm.a(lib_a-sf_floor.o)
                              /home/louis/Documents/ps3/ps3toolchain/bin/ppu/lib/gcc/powerpc64-ps3-elf/7.2.0/../../../../powerpc64-ps3-elf/lib/libm.a(lib_a-sf_sine.o) (floorf)
/home/louis/Documents/ps3/ps3toolchain/bin/ppu/lib/gcc/powerpc64-ps3-elf/7.2.0/../../../../powerpc64-ps3-elf/lib/libm.a(lib_a-sf_frexp.o)
                              /home/louis/Documents/ps3/ps3toolchain/bin/ppu/lib/gcc/powerpc64-ps3-elf/7.2.0/../../../../powerpc64-ps3-elf/lib/libm.a(lib_a-sf_sqrt.o) (frexpf)
/home/louis/Documents/ps3/ps3toolchain/bin/ppu/lib/gcc/powerpc64-ps3-elf/7.2.0/../../../../powerpc64-ps3-elf/lib/libm.a(lib_a-sf_ispos.o)
                              /home/louis/Documents/ps3/ps3toolchain/bin/ppu/lib/gcc/powerpc64-ps3-elf/7.2.0/../../../../powerpc64-ps3-elf/lib/libm.a(lib_a-sf_sqrt.o) (isposf)
/home/louis/Documents/ps3/ps3toolchain/bin/ppu/lib/gcc/powerpc64-ps3-elf/7.2.0/../../../../powerpc64-ps3-elf/lib/libm.a(lib_a-sf_ldexp.o)
                              /home/louis/Documents/ps3/ps3toolchain/bin/ppu/lib/gcc/powerpc64-ps3-elf/7.2.0/../../../../powerpc64-ps3-elf/lib/libm.a(lib_a-sf_sqrt.o) (ldexpf)
/home/louis/Documents/ps3/ps3toolchain/bin/ppu/lib/gcc/powerpc64-ps3-elf/7.2.0/../../../../powerpc64-ps3-elf/lib/libm.a(lib_a-sf_modf.o)
                              /home/louis/Documents/ps3/ps3toolchain/bin/ppu/lib/gcc/powerpc64-ps3-elf/7.2.0/../../../../powerpc64-ps3-elf/lib/libm.a(lib_a-sf_floor.o) (modff)
/home/louis/Documents/ps3/ps3toolchain/bin/ppu/lib/gcc/powerpc64-ps3-elf/7.2.0/../../../../powerpc64-ps3-elf/lib/libm.a(lib_a-sf_numtest.o)
                              /home/louis/Documents/ps3/ps3toolchain/bin/ppu/lib/gcc/powerpc64-ps3-elf/7.2.0/../../../../powerpc64-ps3-elf/lib/libm.a(lib_a-sf_sine.o) (numtestf)
/home/louis/Documents/ps3/ps3toolchain/bin/ppu/lib/gcc/powerpc64-ps3-elf/7.2.0/../../../../powerpc64-ps3-elf/lib/libm.a(lib_a-s_frexp.o)
                              /home/louis/Documents/ps3/ps3toolchain/bin/ppu/lib/gcc/powerpc64-ps3-elf/7.2.0/../../../../powerpc64-ps3-elf/lib/libm.a(lib_a-s_sqrt.o) (frexp)
/home/louis/Documents/ps3/ps3toolchain/bin/ppu/lib/gcc/powerpc64-ps3-elf/7.2.0/../../../../powerpc64-ps3-elf/lib/libm.a(lib_a-s_ispos.o)
                              /home/louis/Documents/ps3/ps3toolchain/bin/ppu/lib/gcc/powerpc64-ps3-elf/7.2.0/../../../../powerpc64-ps3-elf/lib/libm.a(lib_a-s_sqrt.o) (ispos)
/home/louis/Documents/ps3/ps3toolchain/bin/ppu/lib/gcc/powerpc64-ps3-elf/7.2.0/../../../../powerpc64-ps3-elf/lib/libm.a(lib_a-s_ldexp.o)
                              /home/louis/Documents/ps3/ps3toolchain/bin/ppu/lib/gcc/powerpc64-ps3-elf/7.2.0/../../../../powerpc64-ps3-elf/lib/libm.a(lib_a-s_sqrt.o) (ldexp)
/home/louis/Documents/ps3/ps3toolchain/bin/ppu/lib/gcc/powerpc64-ps3-elf/7.2.0/../../../../powerpc64-ps3-elf/lib/libm.a(lib_a-s_numtest.o)
                              /home/louis/Documents/ps3/ps3toolchain/bin/ppu/lib/gcc/powerpc64-ps3-elf/7.2.0/../../../../powerpc64-ps3-elf/lib/libm.a(lib_a-s_sqrt.o) (numtest)
/home/louis/Documents/ps3/ps3toolchain/bin/ppu/lib/gcc/powerpc64-ps3-elf/7.2.0/../../../../powerpc64-ps3-elf/lib/libsysbase.a(syscalls.o)
                              /home/louis/Documents/ps3/ps3toolchain/bin/ppu/lib/gcc/powerpc64-ps3-elf/7.2.0/../../../../powerpc64-ps3-elf/lib/lv2-crt0.o (__syscalls)
/home/louis/Documents/ps3/ps3toolchain/bin/ppu/lib/gcc/powerpc64-ps3-elf/7.2.0/../../../../powerpc64-ps3-elf/lib/libsysbase.a(sleep.o)
                              /home/louis/Documents/ps3/ps3toolchain/bin/portlibs/ppu/lib/libtiny3d.a(tiny3d.o) (usleep)
/home/louis/Documents/ps3/ps3toolchain/bin/ppu/lib/gcc/powerpc64-ps3-elf/7.2.0/../../../../powerpc64-ps3-elf/lib/libc.a(lib_a-atexit.o)
                              /home/louis/Documents/ps3/ps3toolchain/bin/portlibs/ppu/lib/libtiny3d.a(tiny3d.o) (atexit)
/home/louis/Documents/ps3/ps3toolchain/bin/ppu/lib/gcc/powerpc64-ps3-elf/7.2.0/../../../../powerpc64-ps3-elf/lib/libc.a(lib_a-calloc.o)
                              /home/louis/Documents/ps3/ps3toolchain/bin/ppu/lib/librt.a(dirent.o) (calloc)
/home/louis/Documents/ps3/ps3toolchain/bin/ppu/lib/gcc/powerpc64-ps3-elf/7.2.0/../../../../powerpc64-ps3-elf/lib/libc.a(lib_a-callocr.o)
                              /home/louis/Documents/ps3/ps3toolchain/bin/ppu/lib/gcc/powerpc64-ps3-elf/7.2.0/../../../../powerpc64-ps3-elf/lib/libc.a(lib_a-calloc.o) (_calloc_r)
/home/louis/Documents/ps3/ps3toolchain/bin/ppu/lib/gcc/powerpc64-ps3-elf/7.2.0/../../../../powerpc64-ps3-elf/lib/libc.a(lib_a-errno.o)
                              /home/louis/Documents/ps3/ps3toolchain/bin/ppu/lib/librt.a(socket.o) (__errno)
/home/louis/Documents/ps3/ps3toolchain/bin/ppu/lib/gcc/powerpc64-ps3-elf/7.2.0/../../../../powerpc64-ps3-elf/lib/libc.a(lib_a-exit.o)
                              /home/louis/Documents/ps3/ps3toolchain/bin/ppu/lib/gcc/powerpc64-ps3-elf/7.2.0/../../../../powerpc64-ps3-elf/lib/lv2-crt0.o (exit)
/home/louis/Documents/ps3/ps3toolchain/bin/ppu/lib/gcc/powerpc64-ps3-elf/7.2.0/../../../../powerpc64-ps3-elf/lib/libc.a(lib_a-fprintf.o)
                              rendering.o (fprintf)
/home/louis/Documents/ps3/ps3toolchain/bin/ppu/lib/gcc/powerpc64-ps3-elf/7.2.0/../../../../powerpc64-ps3-elf/lib/libc.a(lib_a-getreent.o)
                              rendering.o (__getreent)
/home/louis/Documents/ps3/ps3toolchain/bin/ppu/lib/gcc/powerpc64-ps3-elf/7.2.0/../../../../powerpc64-ps3-elf/lib/libc.a(lib_a-impure.o)
                              /home/louis/Documents/ps3/ps3toolchain/bin/ppu/lib/gcc/powerpc64-ps3-elf/7.2.0/../../../../powerpc64-ps3-elf/lib/libc.a(lib_a-exit.o) (_global_impure_ptr)
/home/louis/Documents/ps3/ps3toolchain/bin/ppu/lib/gcc/powerpc64-ps3-elf/7.2.0/../../../../powerpc64-ps3-elf/lib/libc.a(lib_a-malign.o)
                              /home/louis/Documents/ps3/ps3toolchain/bin/portlibs/ppu/lib/libtiny3d.a(rsxutil.o) (memalign)
/home/louis/Documents/ps3/ps3toolchain/bin/ppu/lib/gcc/powerpc64-ps3-elf/7.2.0/../../../../powerpc64-ps3-elf/lib/libc.a(lib_a-malignr.o)
                              /home/louis/Documents/ps3/ps3toolchain/bin/ppu/lib/gcc/powerpc64-ps3-elf/7.2.0/../../../../powerpc64-ps3-elf/lib/libc.a(lib_a-malign.o) (_memalign_r)
/home/louis/Documents/ps3/ps3toolchain/bin/ppu/lib/gcc/powerpc64-ps3-elf/7.2.0/../../../../powerpc64-ps3-elf/lib/libc.a(lib_a-malloc.o)
                              /home/louis/Documents/ps3/ps3toolchain/bin/portlibs/ppu/lib/libtiny3d.a(tiny3d.o) (malloc)
/home/louis/Documents/ps3/ps3toolchain/bin/ppu/lib/gcc/powerpc64-ps3-elf/7.2.0/../../../../powerpc64-ps3-elf/lib/libc.a(lib_a-mallocr.o)
                              /home/louis/Documents/ps3/ps3toolchain/bin/ppu/lib/gcc/powerpc64-ps3-elf/7.2.0/../../../../powerpc64-ps3-elf/lib/libc.a(lib_a-callocr.o) (_malloc_r)
/home/louis/Documents/ps3/ps3toolchain/bin/ppu/lib/gcc/powerpc64-ps3-elf/7.2.0/../../../../powerpc64-ps3-elf/lib/libc.a(lib_a-memcpy.o)
                              /home/louis/Documents/ps3/ps3toolchain/bin/portlibs/ppu/lib/libtiny3d.a(tiny3d.o) (memcpy)
/home/louis/Documents/ps3/ps3toolchain/bin/ppu/lib/gcc/powerpc64-ps3-elf/7.2.0/../../../../powerpc64-ps3-elf/lib/libc.a(lib_a-memset.o)
                              /home/louis/Documents/ps3/ps3toolchain/bin/ppu/lib/librt.a(fstat.o) (memset)
/home/louis/Documents/ps3/ps3toolchain/bin/ppu/lib/gcc/powerpc64-ps3-elf/7.2.0/../../../../powerpc64-ps3-elf/lib/libc.a(lib_a-mlock.o)
                              /home/louis/Documents/ps3/ps3toolchain/bin/ppu/lib/gcc/powerpc64-ps3-elf/7.2.0/../../../../powerpc64-ps3-elf/lib/libc.a(lib_a-malignr.o) (__malloc_lock)
/home/louis/Documents/ps3/ps3toolchain/bin/ppu/lib/gcc/powerpc64-ps3-elf/7.2.0/../../../../powerpc64-ps3-elf/lib/libc.a(lib_a-perror.o)
                              main.o (perror)
/home/louis/Documents/ps3/ps3toolchain/bin/ppu/lib/gcc/powerpc64-ps3-elf/7.2.0/../../../../powerpc64-ps3-elf/lib/libc.a(lib_a-realloc.o)
                              /home/louis/Documents/ps3/ps3toolchain/bin/ppu/lib/librt.a(globfile.o) (realloc)
/home/louis/Documents/ps3/ps3toolchain/bin/ppu/lib/gcc/powerpc64-ps3-elf/7.2.0/../../../../powerpc64-ps3-elf/lib/libc.a(lib_a-reallocr.o)
                              /home/louis/Documents/ps3/ps3toolchain/bin/ppu/lib/gcc/powerpc64-ps3-elf/7.2.0/../../../../powerpc64-ps3-elf/lib/libc.a(lib_a-realloc.o) (_realloc_r)
/home/louis/Documents/ps3/ps3toolchain/bin/ppu/lib/gcc/powerpc64-ps3-elf/7.2.0/../../../../powerpc64-ps3-elf/lib/libc.a(lib_a-sscanf.o)
                              /home/louis/Documents/ps3/ps3toolchain/bin/ppu/lib/librt.a(socket.o) (sscanf)
/home/louis/Documents/ps3/ps3toolchain/bin/ppu/lib/gcc/powerpc64-ps3-elf/7.2.0/../../../../powerpc64-ps3-elf/lib/libc.a(lib_a-stdio.o)
                              /home/louis/Documents/ps3/ps3toolchain/bin/ppu/lib/gcc/powerpc64-ps3-elf/7.2.0/../../../../powerpc64-ps3-elf/lib/libc.a(lib_a-sscanf.o) (__seofread)
/home/louis/Documents/ps3/ps3toolchain/bin/ppu/lib/gcc/powerpc64-ps3-elf/7.2.0/../../../../powerpc64-ps3-elf/lib/libc.a(lib_a-strcasecmp.o)
                              /home/louis/Documents/ps3/ps3toolchain/bin/portlibs/ppu/lib/libtiny3d.a(realityVP.o) (strcasecmp)
/home/louis/Documents/ps3/ps3toolchain/bin/ppu/lib/gcc/powerpc64-ps3-elf/7.2.0/../../../../powerpc64-ps3-elf/lib/libc.a(lib_a-strchr.o)
                              /home/louis/Documents/ps3/ps3toolchain/bin/ppu/lib/librt.a(globfile.o) (strchr)
/home/louis/Documents/ps3/ps3toolchain/bin/ppu/lib/gcc/powerpc64-ps3-elf/7.2.0/../../../../powerpc64-ps3-elf/lib/libc.a(lib_a-strcpy.o)
                              /home/louis/Documents/ps3/ps3toolchain/bin/ppu/lib/librt.a(globfile.o) (strcpy)
/home/louis/Documents/ps3/ps3toolchain/bin/ppu/lib/gcc/powerpc64-ps3-elf/7.2.0/../../../../powerpc64-ps3-elf/lib/libc.a(lib_a-strdup.o)
                              /home/louis/Documents/ps3/ps3toolchain/bin/ppu/lib/librt.a(globfile.o) (strdup)
/home/louis/Documents/ps3/ps3toolchain/bin/ppu/lib/gcc/powerpc64-ps3-elf/7.2.0/../../../../powerpc64-ps3-elf/lib/libc.a(lib_a-strdup_r.o)
                              /home/louis/Documents/ps3/ps3toolchain/bin/ppu/lib/gcc/powerpc64-ps3-elf/7.2.0/../../../../powerpc64-ps3-elf/lib/libc.a(lib_a-strdup.o) (_strdup_r)
/home/louis/Documents/ps3/ps3toolchain/bin/ppu/lib/gcc/powerpc64-ps3-elf/7.2.0/../../../../powerpc64-ps3-elf/lib/libc.a(lib_a-strerror.o)
                              /home/louis/Documents/ps3/ps3toolchain/bin/ppu/lib/gcc/powerpc64-ps3-elf/7.2.0/../../../../powerpc64-ps3-elf/lib/libc.a(lib_a-perror.o) (_strerror_r)
/home/louis/Documents/ps3/ps3toolchain/bin/ppu/lib/gcc/powerpc64-ps3-elf/7.2.0/../../../../powerpc64-ps3-elf/lib/libc.a(lib_a-strlen.o)
                              /home/louis/Documents/ps3/ps3toolchain/bin/ppu/lib/librt.a(globfile.o) (strlen)
/home/louis/Documents/ps3/ps3toolchain/bin/ppu/lib/gcc/powerpc64-ps3-elf/7.2.0/../../../../powerpc64-ps3-elf/lib/libc.a(lib_a-strncat.o)
                              /home/louis/Documents/ps3/ps3toolchain/bin/ppu/lib/librt.a(globfile.o) (strncat)
/home/louis/Documents/ps3/ps3toolchain/bin/ppu/lib/gcc/powerpc64-ps3-elf/7.2.0/../../../../powerpc64-ps3-elf/lib/libc.a(lib_a-strncpy.o)
                              /home/louis/Documents/ps3/ps3toolchain/bin/ppu/lib/librt.a(dirent.o) (strncpy)
/home/louis/Documents/ps3/ps3toolchain/bin/ppu/lib/gcc/powerpc64-ps3-elf/7.2.0/../../../../powerpc64-ps3-elf/lib/libc.a(lib_a-svfscanf.o)
                              /home/louis/Documents/ps3/ps3toolchain/bin/ppu/lib/gcc/powerpc64-ps3-elf/7.2.0/../../../../powerpc64-ps3-elf/lib/libc.a(lib_a-sscanf.o) (__ssvfscanf_r)
/home/louis/Documents/ps3/ps3toolchain/bin/ppu/lib/gcc/powerpc64-ps3-elf/7.2.0/../../../../powerpc64-ps3-elf/lib/libc.a(lib_a-time.o)
                              /home/louis/Documents/ps3/ps3toolchain/bin/ppu/lib/librt.a(utime.o) (time)
/home/louis/Documents/ps3/ps3toolchain/bin/ppu/lib/gcc/powerpc64-ps3-elf/7.2.0/../../../../powerpc64-ps3-elf/lib/libc.a(lib_a-u_strerr.o)
                              /home/louis/Documents/ps3/ps3toolchain/bin/ppu/lib/gcc/powerpc64-ps3-elf/7.2.0/../../../../powerpc64-ps3-elf/lib/libc.a(lib_a-strerror.o) (_user_strerror)
/home/louis/Documents/ps3/ps3toolchain/bin/ppu/lib/gcc/powerpc64-ps3-elf/7.2.0/../../../../powerpc64-ps3-elf/lib/libc.a(lib_a-vfprintf.o)
                              /home/louis/Documents/ps3/ps3toolchain/bin/ppu/lib/gcc/powerpc64-ps3-elf/7.2.0/../../../../powerpc64-ps3-elf/lib/libc.a(lib_a-fprintf.o) (_vfprintf_r)
/home/louis/Documents/ps3/ps3toolchain/bin/ppu/lib/gcc/powerpc64-ps3-elf/7.2.0/../../../../powerpc64-ps3-elf/lib/libc.a(lib_a-wsetup.o)
                              /home/louis/Documents/ps3/ps3toolchain/bin/ppu/lib/gcc/powerpc64-ps3-elf/7.2.0/../../../../powerpc64-ps3-elf/lib/libc.a(lib_a-vfprintf.o) (__swsetup_r)
/home/louis/Documents/ps3/ps3toolchain/bin/ppu/lib/gcc/powerpc64-ps3-elf/7.2.0/../../../../powerpc64-ps3-elf/lib/libc.a(lib_a-__atexit.o)
                              /home/louis/Documents/ps3/ps3toolchain/bin/ppu/lib/gcc/powerpc64-ps3-elf/7.2.0/../../../../powerpc64-ps3-elf/lib/libc.a(lib_a-atexit.o) (__register_exitproc)
/home/louis/Documents/ps3/ps3toolchain/bin/ppu/lib/gcc/powerpc64-ps3-elf/7.2.0/../../../../powerpc64-ps3-elf/lib/libc.a(lib_a-__call_atexit.o)
                              /home/louis/Documents/ps3/ps3toolchain/bin/ppu/lib/gcc/powerpc64-ps3-elf/7.2.0/../../../../powerpc64-ps3-elf/lib/libc.a(lib_a-exit.o) (__call_exitprocs)
/home/louis/Documents/ps3/ps3toolchain/bin/ppu/lib/gcc/powerpc64-ps3-elf/7.2.0/../../../../powerpc64-ps3-elf/lib/libc.a(lib_a-ctype_.o)
                              /home/louis/Documents/ps3/ps3toolchain/bin/ppu/lib/gcc/powerpc64-ps3-elf/7.2.0/../../../../powerpc64-ps3-elf/lib/libc.a(lib_a-strcasecmp.o) (__ctype_ptr__)
/home/louis/Documents/ps3/ps3toolchain/bin/ppu/lib/gcc/powerpc64-ps3-elf/7.2.0/../../../../powerpc64-ps3-elf/lib/libc.a(lib_a-dtoa.o)
                              /home/louis/Documents/ps3/ps3toolchain/bin/ppu/lib/gcc/powerpc64-ps3-elf/7.2.0/../../../../powerpc64-ps3-elf/lib/libc.a(lib_a-vfprintf.o) (_dtoa_r)
/home/louis/Documents/ps3/ps3toolchain/bin/ppu/lib/gcc/powerpc64-ps3-elf/7.2.0/../../../../powerpc64-ps3-elf/lib/libc.a(lib_a-fflush.o)
                              /home/louis/Documents/ps3/ps3toolchain/bin/ppu/lib/gcc/powerpc64-ps3-elf/7.2.0/../../../../powerpc64-ps3-elf/lib/libc.a(lib_a-vfprintf.o) (_fflush_r)
/home/louis/Documents/ps3/ps3toolchain/bin/ppu/lib/gcc/powerpc64-ps3-elf/7.2.0/../../../../powerpc64-ps3-elf/lib/libc.a(lib_a-findfp.o)
                              /home/louis/Documents/ps3/ps3toolchain/bin/ppu/lib/gcc/powerpc64-ps3-elf/7.2.0/../../../../powerpc64-ps3-elf/lib/libc.a(lib_a-vfprintf.o) (__sinit)
/home/louis/Documents/ps3/ps3toolchain/bin/ppu/lib/gcc/powerpc64-ps3-elf/7.2.0/../../../../powerpc64-ps3-elf/lib/libc.a(lib_a-fputc.o)
                              /home/louis/Documents/ps3/ps3toolchain/bin/ppu/lib/gcc/powerpc64-ps3-elf/7.2.0/../../../../powerpc64-ps3-elf/lib/libc.a(lib_a-perror.o) (fputc)
/home/louis/Documents/ps3/ps3toolchain/bin/ppu/lib/gcc/powerpc64-ps3-elf/7.2.0/../../../../powerpc64-ps3-elf/lib/libc.a(lib_a-fputs.o)
                              /home/louis/Documents/ps3/ps3toolchain/bin/ppu/lib/gcc/powerpc64-ps3-elf/7.2.0/../../../../powerpc64-ps3-elf/lib/libc.a(lib_a-perror.o) (fputs)
/home/louis/Documents/ps3/ps3toolchain/bin/ppu/lib/gcc/powerpc64-ps3-elf/7.2.0/../../../../powerpc64-ps3-elf/lib/libc.a(lib_a-freer.o)
                              /home/louis/Documents/ps3/ps3toolchain/bin/ppu/lib/gcc/powerpc64-ps3-elf/7.2.0/../../../../powerpc64-ps3-elf/lib/libc.a(lib_a-malignr.o) (_free_r)
/home/louis/Documents/ps3/ps3toolchain/bin/ppu/lib/gcc/powerpc64-ps3-elf/7.2.0/../../../../powerpc64-ps3-elf/lib/libc.a(lib_a-fvwrite.o)
                              /home/louis/Documents/ps3/ps3toolchain/bin/ppu/lib/gcc/powerpc64-ps3-elf/7.2.0/../../../../powerpc64-ps3-elf/lib/libc.a(lib_a-fputs.o) (__sfvwrite_r)
/home/louis/Documents/ps3/ps3toolchain/bin/ppu/lib/gcc/powerpc64-ps3-elf/7.2.0/../../../../powerpc64-ps3-elf/lib/libc.a(lib_a-fwalk.o)
                              /home/louis/Documents/ps3/ps3toolchain/bin/ppu/lib/gcc/powerpc64-ps3-elf/7.2.0/../../../../powerpc64-ps3-elf/lib/libc.a(lib_a-findfp.o) (_fwalk)
/home/louis/Documents/ps3/ps3toolchain/bin/ppu/lib/gcc/powerpc64-ps3-elf/7.2.0/../../../../powerpc64-ps3-elf/lib/libc.a(lib_a-iswspace.o)
                              /home/louis/Documents/ps3/ps3toolchain/bin/ppu/lib/gcc/powerpc64-ps3-elf/7.2.0/../../../../powerpc64-ps3-elf/lib/libc.a(lib_a-svfscanf.o) (iswspace)
/home/louis/Documents/ps3/ps3toolchain/bin/ppu/lib/gcc/powerpc64-ps3-elf/7.2.0/../../../../powerpc64-ps3-elf/lib/libc.a(lib_a-locale.o)
                              /home/louis/Documents/ps3/ps3toolchain/bin/ppu/lib/gcc/powerpc64-ps3-elf/7.2.0/../../../../powerpc64-ps3-elf/lib/libc.a(lib_a-svfscanf.o) (__locale_mb_cur_max)
/home/louis/Documents/ps3/ps3toolchain/bin/ppu/lib/gcc/powerpc64-ps3-elf/7.2.0/../../../../powerpc64-ps3-elf/lib/libc.a(lib_a-lock_recursive.o)
                              /home/louis/Documents/ps3/ps3toolchain/bin/ppu/lib/gcc/powerpc64-ps3-elf/7.2.0/../../../../powerpc64-ps3-elf/lib/libc.a(lib_a-vfprintf.o) (__libc_lock_init_recursive)
/home/louis/Documents/ps3/ps3toolchain/bin/ppu/lib/gcc/powerpc64-ps3-elf/7.2.0/../../../../powerpc64-ps3-elf/lib/libc.a(lib_a-makebuf.o)
                              /home/louis/Documents/ps3/ps3toolchain/bin/ppu/lib/gcc/powerpc64-ps3-elf/7.2.0/../../../../powerpc64-ps3-elf/lib/libc.a(lib_a-wsetup.o) (__smakebuf_r)
/home/louis/Documents/ps3/ps3toolchain/bin/ppu/lib/gcc/powerpc64-ps3-elf/7.2.0/../../../../powerpc64-ps3-elf/lib/libc.a(lib_a-mbrtowc.o)
                              /home/louis/Documents/ps3/ps3toolchain/bin/ppu/lib/gcc/powerpc64-ps3-elf/7.2.0/../../../../powerpc64-ps3-elf/lib/libc.a(lib_a-svfscanf.o) (_mbrtowc_r)
/home/louis/Documents/ps3/ps3toolchain/bin/ppu/lib/gcc/powerpc64-ps3-elf/7.2.0/../../../../powerpc64-ps3-elf/lib/libc.a(lib_a-mbtowc_r.o)
                              /home/louis/Documents/ps3/ps3toolchain/bin/ppu/lib/gcc/powerpc64-ps3-elf/7.2.0/../../../../powerpc64-ps3-elf/lib/libc.a(lib_a-mbrtowc.o) (__mbtowc)
/home/louis/Documents/ps3/ps3toolchain/bin/ppu/lib/gcc/powerpc64-ps3-elf/7.2.0/../../../../powerpc64-ps3-elf/lib/libc.a(lib_a-memchr.o)
                              /home/louis/Documents/ps3/ps3toolchain/bin/ppu/lib/gcc/powerpc64-ps3-elf/7.2.0/../../../../powerpc64-ps3-elf/lib/libc.a(lib_a-vfprintf.o) (memchr)
/home/louis/Documents/ps3/ps3toolchain/bin/ppu/lib/gcc/powerpc64-ps3-elf/7.2.0/../../../../powerpc64-ps3-elf/lib/libc.a(lib_a-memmove.o)
                              /home/louis/Documents/ps3/ps3toolchain/bin/ppu/lib/gcc/powerpc64-ps3-elf/7.2.0/../../../../powerpc64-ps3-elf/lib/libc.a(lib_a-reallocr.o) (memmove)
/home/louis/Documents/ps3/ps3toolchain/bin/ppu/lib/gcc/powerpc64-ps3-elf/7.2.0/../../../../powerpc64-ps3-elf/lib/libc.a(lib_a-mprec.o)
                              /home/louis/Documents/ps3/ps3toolchain/bin/ppu/lib/gcc/powerpc64-ps3-elf/7.2.0/../../../../powerpc64-ps3-elf/lib/libc.a(lib_a-dtoa.o) (_Balloc)
/home/louis/Documents/ps3/ps3toolchain/bin/ppu/lib/gcc/powerpc64-ps3-elf/7.2.0/../../../../powerpc64-ps3-elf/lib/libc.a(lib_a-putc.o)
                              /home/louis/Documents/ps3/ps3toolchain/bin/ppu/lib/gcc/powerpc64-ps3-elf/7.2.0/../../../../powerpc64-ps3-elf/lib/libc.a(lib_a-fputc.o) (_putc_r)
/home/louis/Documents/ps3/ps3toolchain/bin/ppu/lib/gcc/powerpc64-ps3-elf/7.2.0/../../../../powerpc64-ps3-elf/lib/libc.a(lib_a-sccl.o)
                              /home/louis/Documents/ps3/ps3toolchain/bin/ppu/lib/gcc/powerpc64-ps3-elf/7.2.0/../../../../powerpc64-ps3-elf/lib/libc.a(lib_a-svfscanf.o) (__sccl)
/home/louis/Documents/ps3/ps3toolchain/bin/ppu/lib/gcc/powerpc64-ps3-elf/7.2.0/../../../../powerpc64-ps3-elf/lib/libc.a(lib_a-sf_nan.o)
                              /home/louis/Documents/ps3/ps3toolchain/bin/ppu/lib/gcc/powerpc64-ps3-elf/7.2.0/../../../../powerpc64-ps3-elf/lib/libc.a(lib_a-svfscanf.o) (nanf)
/home/louis/Documents/ps3/ps3toolchain/bin/ppu/lib/gcc/powerpc64-ps3-elf/7.2.0/../../../../powerpc64-ps3-elf/lib/libc.a(lib_a-s_fpclassify.o)
                              /home/louis/Documents/ps3/ps3toolchain/bin/ppu/lib/gcc/powerpc64-ps3-elf/7.2.0/../../../../powerpc64-ps3-elf/lib/libc.a(lib_a-svfscanf.o) (__fpclassifyd)
/home/louis/Documents/ps3/ps3toolchain/bin/ppu/lib/gcc/powerpc64-ps3-elf/7.2.0/../../../../powerpc64-ps3-elf/lib/libc.a(lib_a-sprintf.o)
                              /home/louis/Documents/ps3/ps3toolchain/bin/ppu/lib/gcc/powerpc64-ps3-elf/7.2.0/../../../../powerpc64-ps3-elf/lib/libc.a(lib_a-svfscanf.o) (sprintf)
/home/louis/Documents/ps3/ps3toolchain/bin/ppu/lib/gcc/powerpc64-ps3-elf/7.2.0/../../../../powerpc64-ps3-elf/lib/libc.a(lib_a-strcmp.o)
                              /home/louis/Documents/ps3/ps3toolchain/bin/ppu/lib/gcc/powerpc64-ps3-elf/7.2.0/../../../../powerpc64-ps3-elf/lib/libc.a(lib_a-locale.o) (strcmp)
/home/louis/Documents/ps3/ps3toolchain/bin/ppu/lib/gcc/powerpc64-ps3-elf/7.2.0/../../../../powerpc64-ps3-elf/lib/libc.a(lib_a-strtod.o)
                              /home/louis/Documents/ps3/ps3toolchain/bin/ppu/lib/gcc/powerpc64-ps3-elf/7.2.0/../../../../powerpc64-ps3-elf/lib/libc.a(lib_a-svfscanf.o) (_strtod_r)
/home/louis/Documents/ps3/ps3toolchain/bin/ppu/lib/gcc/powerpc64-ps3-elf/7.2.0/../../../../powerpc64-ps3-elf/lib/libc.a(lib_a-strtoll_r.o)
                              /home/louis/Documents/ps3/ps3toolchain/bin/ppu/lib/gcc/powerpc64-ps3-elf/7.2.0/../../../../powerpc64-ps3-elf/lib/libc.a(lib_a-svfscanf.o) (_strtoll_r)
/home/louis/Documents/ps3/ps3toolchain/bin/ppu/lib/gcc/powerpc64-ps3-elf/7.2.0/../../../../powerpc64-ps3-elf/lib/libc.a(lib_a-strtol.o)
                              /home/louis/Documents/ps3/ps3toolchain/bin/ppu/lib/gcc/powerpc64-ps3-elf/7.2.0/../../../../powerpc64-ps3-elf/lib/libc.a(lib_a-svfscanf.o) (_strtol_r)
/home/louis/Documents/ps3/ps3toolchain/bin/ppu/lib/gcc/powerpc64-ps3-elf/7.2.0/../../../../powerpc64-ps3-elf/lib/libc.a(lib_a-strtoull_r.o)
                              /home/louis/Documents/ps3/ps3toolchain/bin/ppu/lib/gcc/powerpc64-ps3-elf/7.2.0/../../../../powerpc64-ps3-elf/lib/libc.a(lib_a-svfscanf.o) (_strtoull_r)
/home/louis/Documents/ps3/ps3toolchain/bin/ppu/lib/gcc/powerpc64-ps3-elf/7.2.0/../../../../powerpc64-ps3-elf/lib/libc.a(lib_a-strtoul.o)
                              /home/louis/Documents/ps3/ps3toolchain/bin/ppu/lib/gcc/powerpc64-ps3-elf/7.2.0/../../../../powerpc64-ps3-elf/lib/libc.a(lib_a-svfscanf.o) (_strtoul_r)
/home/louis/Documents/ps3/ps3toolchain/bin/ppu/lib/gcc/powerpc64-ps3-elf/7.2.0/../../../../powerpc64-ps3-elf/lib/libc.a(lib_a-svfiscanf.o)
                              /home/louis/Documents/ps3/ps3toolchain/bin/ppu/lib/gcc/powerpc64-ps3-elf/7.2.0/../../../../powerpc64-ps3-elf/lib/libc.a(lib_a-svfscanf.o) (_sungetc_r)
/home/louis/Documents/ps3/ps3toolchain/bin/ppu/lib/gcc/powerpc64-ps3-elf/7.2.0/../../../../powerpc64-ps3-elf/lib/libc.a(lib_a-svfprintf.o)
                              /home/louis/Documents/ps3/ps3toolchain/bin/ppu/lib/gcc/powerpc64-ps3-elf/7.2.0/../../../../powerpc64-ps3-elf/lib/libc.a(lib_a-sprintf.o) (_svfprintf_r)
/home/louis/Documents/ps3/ps3toolchain/bin/ppu/lib/gcc/powerpc64-ps3-elf/7.2.0/../../../../powerpc64-ps3-elf/lib/libc.a(lib_a-ungetc.o)
                              /home/louis/Documents/ps3/ps3toolchain/bin/ppu/lib/gcc/powerpc64-ps3-elf/7.2.0/../../../../powerpc64-ps3-elf/lib/libc.a(lib_a-svfiscanf.o) (__submore)
/home/louis/Documents/ps3/ps3toolchain/bin/ppu/lib/gcc/powerpc64-ps3-elf/7.2.0/../../../../powerpc64-ps3-elf/lib/libc.a(lib_a-vfiprintf.o)
                              /home/louis/Documents/ps3/ps3toolchain/bin/ppu/lib/gcc/powerpc64-ps3-elf/7.2.0/../../../../powerpc64-ps3-elf/lib/libc.a(lib_a-vfprintf.o) (__sprint_r)
/home/louis/Documents/ps3/ps3toolchain/bin/ppu/lib/gcc/powerpc64-ps3-elf/7.2.0/../../../../powerpc64-ps3-elf/lib/libc.a(lib_a-wbuf.o)
                              /home/louis/Documents/ps3/ps3toolchain/bin/ppu/lib/gcc/powerpc64-ps3-elf/7.2.0/../../../../powerpc64-ps3-elf/lib/libc.a(lib_a-putc.o) (__swbuf_r)
/home/louis/Documents/ps3/ps3toolchain/bin/ppu/lib/gcc/powerpc64-ps3-elf/7.2.0/../../../../powerpc64-ps3-elf/lib/libc.a(lib_a-fclose.o)
                              /home/louis/Documents/ps3/ps3toolchain/bin/ppu/lib/gcc/powerpc64-ps3-elf/7.2.0/../../../../powerpc64-ps3-elf/lib/libc.a(lib_a-findfp.o) (fclose)
/home/louis/Documents/ps3/ps3toolchain/bin/ppu/lib/gcc/powerpc64-ps3-elf/7.2.0/../../../../powerpc64-ps3-elf/lib/libc.a(lib_a-fputwc.o)
                              /home/louis/Documents/ps3/ps3toolchain/bin/ppu/lib/gcc/powerpc64-ps3-elf/7.2.0/../../../../powerpc64-ps3-elf/lib/libc.a(lib_a-vfiprintf.o) (_fputwc_r)
/home/louis/Documents/ps3/ps3toolchain/bin/ppu/lib/gcc/powerpc64-ps3-elf/7.2.0/../../../../powerpc64-ps3-elf/lib/libc.a(lib_a-gdtoa-gethex.o)
                              /home/louis/Documents/ps3/ps3toolchain/bin/ppu/lib/gcc/powerpc64-ps3-elf/7.2.0/../../../../powerpc64-ps3-elf/lib/libc.a(lib_a-strtod.o) (__gethex)
/home/louis/Documents/ps3/ps3toolchain/bin/ppu/lib/gcc/powerpc64-ps3-elf/7.2.0/../../../../powerpc64-ps3-elf/lib/libc.a(lib_a-gdtoa-hexnan.o)
                              /home/louis/Documents/ps3/ps3toolchain/bin/ppu/lib/gcc/powerpc64-ps3-elf/7.2.0/../../../../powerpc64-ps3-elf/lib/libc.a(lib_a-strtod.o) (__hexnan)
/home/louis/Documents/ps3/ps3toolchain/bin/ppu/lib/gcc/powerpc64-ps3-elf/7.2.0/../../../../powerpc64-ps3-elf/lib/libc.a(lib_a-lock_internal.o)
                              /home/louis/Documents/ps3/ps3toolchain/bin/ppu/lib/gcc/powerpc64-ps3-elf/7.2.0/../../../../powerpc64-ps3-elf/lib/libc.a(lib_a-lock_recursive.o) (__libc_auto_lock_allocate)
/home/louis/Documents/ps3/ps3toolchain/bin/ppu/lib/gcc/powerpc64-ps3-elf/7.2.0/../../../../powerpc64-ps3-elf/lib/libc.a(lib_a-strncmp.o)
                              /home/louis/Documents/ps3/ps3toolchain/bin/ppu/lib/gcc/powerpc64-ps3-elf/7.2.0/../../../../powerpc64-ps3-elf/lib/libc.a(lib_a-strtod.o) (strncmp)
/home/louis/Documents/ps3/ps3toolchain/bin/ppu/lib/gcc/powerpc64-ps3-elf/7.2.0/../../../../powerpc64-ps3-elf/lib/libc.a(lib_a-svfiprintf.o)
                              /home/louis/Documents/ps3/ps3toolchain/bin/ppu/lib/gcc/powerpc64-ps3-elf/7.2.0/../../../../powerpc64-ps3-elf/lib/libc.a(lib_a-svfprintf.o) (__ssprint_r)
/home/louis/Documents/ps3/ps3toolchain/bin/ppu/lib/gcc/powerpc64-ps3-elf/7.2.0/../../../../powerpc64-ps3-elf/lib/libc.a(lib_a-wcrtomb.o)
                              /home/louis/Documents/ps3/ps3toolchain/bin/ppu/lib/gcc/powerpc64-ps3-elf/7.2.0/../../../../powerpc64-ps3-elf/lib/libc.a(lib_a-fputwc.o) (_wcrtomb_r)
/home/louis/Documents/ps3/ps3toolchain/bin/ppu/lib/gcc/powerpc64-ps3-elf/7.2.0/../../../../powerpc64-ps3-elf/lib/libc.a(lib_a-wctomb_r.o)
                              /home/louis/Documents/ps3/ps3toolchain/bin/ppu/lib/gcc/powerpc64-ps3-elf/7.2.0/../../../../powerpc64-ps3-elf/lib/libc.a(lib_a-wcrtomb.o) (__wctomb)
/home/louis/Documents/ps3/ps3toolchain/bin/ppu/lib/gcc/powerpc64-ps3-elf/7.2.0/../../../../powerpc64-ps3-elf/lib/libc.a(lib_a-abort.o)
                              /home/louis/Documents/ps3/ps3toolchain/bin/ppu/lib/gcc/powerpc64-ps3-elf/7.2.0/../../../../powerpc64-ps3-elf/lib/libc.a(lib_a-lock_internal.o) (abort)
/home/louis/Documents/ps3/ps3toolchain/bin/ppu/lib/gcc/powerpc64-ps3-elf/7.2.0/../../../../powerpc64-ps3-elf/lib/libc.a(lib_a-signal.o)
                              /home/louis/Documents/ps3/ps3toolchain/bin/ppu/lib/gcc/powerpc64-ps3-elf/7.2.0/../../../../powerpc64-ps3-elf/lib/libc.a(lib_a-abort.o) (raise)
/home/louis/Documents/ps3/ps3toolchain/bin/ppu/lib/gcc/powerpc64-ps3-elf/7.2.0/../../../../powerpc64-ps3-elf/lib/libsysbase.a(close.o)
                              /home/louis/Documents/ps3/ps3toolchain/bin/ppu/lib/gcc/powerpc64-ps3-elf/7.2.0/../../../../powerpc64-ps3-elf/lib/libc.a(lib_a-stdio.o) (_close_r)
/home/louis/Documents/ps3/ps3toolchain/bin/ppu/lib/gcc/powerpc64-ps3-elf/7.2.0/../../../../powerpc64-ps3-elf/lib/libsysbase.a(sbrk.o)
                              /home/louis/Documents/ps3/ps3toolchain/bin/ppu/lib/gcc/powerpc64-ps3-elf/7.2.0/../../../../powerpc64-ps3-elf/lib/libc.a(lib_a-mallocr.o) (_sbrk_r)
/home/louis/Documents/ps3/ps3toolchain/bin/ppu/lib/gcc/powerpc64-ps3-elf/7.2.0/../../../../powerpc64-ps3-elf/lib/libsysbase.a(_exit.o)
                              /home/louis/Documents/ps3/ps3toolchain/bin/ppu/lib/gcc/powerpc64-ps3-elf/7.2.0/../../../../powerpc64-ps3-elf/lib/libc.a(lib_a-exit.o) (_exit)
/home/louis/Documents/ps3/ps3toolchain/bin/ppu/lib/gcc/powerpc64-ps3-elf/7.2.0/../../../../powerpc64-ps3-elf/lib/libsysbase.a(fstat.o)
                              /home/louis/Documents/ps3/ps3toolchain/bin/ppu/lib/gcc/powerpc64-ps3-elf/7.2.0/../../../../powerpc64-ps3-elf/lib/libc.a(lib_a-makebuf.o) (_fstat_r)
/home/louis/Documents/ps3/ps3toolchain/bin/ppu/lib/gcc/powerpc64-ps3-elf/7.2.0/../../../../powerpc64-ps3-elf/lib/libsysbase.a(isatty.o)
                              /home/louis/Documents/ps3/ps3toolchain/bin/ppu/lib/gcc/powerpc64-ps3-elf/7.2.0/../../../../powerpc64-ps3-elf/lib/libc.a(lib_a-makebuf.o) (_isatty_r)
/home/louis/Documents/ps3/ps3toolchain/bin/ppu/lib/gcc/powerpc64-ps3-elf/7.2.0/../../../../powerpc64-ps3-elf/lib/libsysbase.a(lseek.o)
                              /home/louis/Documents/ps3/ps3toolchain/bin/ppu/lib/gcc/powerpc64-ps3-elf/7.2.0/../../../../powerpc64-ps3-elf/lib/libc.a(lib_a-stdio.o) (_lseek_r)
/home/louis/Documents/ps3/ps3toolchain/bin/ppu/lib/gcc/powerpc64-ps3-elf/7.2.0/../../../../powerpc64-ps3-elf/lib/libsysbase.a(read.o)
                              /home/louis/Documents/ps3/ps3toolchain/bin/ppu/lib/gcc/powerpc64-ps3-elf/7.2.0/../../../../powerpc64-ps3-elf/lib/libc.a(lib_a-stdio.o) (_read_r)
/home/louis/Documents/ps3/ps3toolchain/bin/ppu/lib/gcc/powerpc64-ps3-elf/7.2.0/../../../../powerpc64-ps3-elf/lib/libsysbase.a(write.o)
                              /home/louis/Documents/ps3/ps3toolchain/bin/ppu/lib/gcc/powerpc64-ps3-elf/7.2.0/../../../../powerpc64-ps3-elf/lib/libc.a(lib_a-stdio.o) (_write_r)
/home/louis/Documents/ps3/ps3toolchain/bin/ppu/lib/gcc/powerpc64-ps3-elf/7.2.0/../../../../powerpc64-ps3-elf/lib/libsysbase.a(lock.o)
                              /home/louis/Documents/ps3/ps3toolchain/bin/ppu/lib/gcc/powerpc64-ps3-elf/7.2.0/../../../../powerpc64-ps3-elf/lib/libc.a(lib_a-lock_recursive.o) (sys_lwmutex_create)
/home/louis/Documents/ps3/ps3toolchain/bin/ppu/lib/gcc/powerpc64-ps3-elf/7.2.0/../../../../powerpc64-ps3-elf/lib/libsysbase.a(getpid.o)
                              /home/louis/Documents/ps3/ps3toolchain/bin/ppu/lib/gcc/powerpc64-ps3-elf/7.2.0/../../../../powerpc64-ps3-elf/lib/libc.a(lib_a-signal.o) (_getpid_r)
/home/louis/Documents/ps3/ps3toolchain/bin/ppu/lib/gcc/powerpc64-ps3-elf/7.2.0/../../../../powerpc64-ps3-elf/lib/libsysbase.a(kill.o)
                              /home/louis/Documents/ps3/ps3toolchain/bin/ppu/lib/gcc/powerpc64-ps3-elf/7.2.0/../../../../powerpc64-ps3-elf/lib/libc.a(lib_a-signal.o) (_kill_r)
/home/louis/Documents/ps3/ps3toolchain/bin/ppu/lib/gcc/powerpc64-ps3-elf/7.2.0/../../../../powerpc64-ps3-elf/lib/libsysbase.a(gettod.o)
                              /home/louis/Documents/ps3/ps3toolchain/bin/ppu/lib/gcc/powerpc64-ps3-elf/7.2.0/../../../../powerpc64-ps3-elf/lib/libc.a(lib_a-time.o) (_gettimeofday_r)

Allocating common symbols
Common symbol       size              file

Video_buffer        0x10              /home/louis/Documents/ps3/ps3toolchain/bin/portlibs/ppu/lib/libtiny3d.a(rsxutil.o)
Video_aspect        0x1               /home/louis/Documents/ps3/ps3toolchain/bin/portlibs/ppu/lib/libtiny3d.a(rsxutil.o)
Video_pitch         0x4               /home/louis/Documents/ps3/ps3toolchain/bin/portlibs/ppu/lib/libtiny3d.a(rsxutil.o)
__hexdig            0x100             /home/louis/Documents/ps3/ps3toolchain/bin/ppu/lib/gcc/powerpc64-ps3-elf/7.2.0/../../../../powerpc64-ps3-elf/lib/libc.a(lib_a-gdtoa-gethex.o)
context             0x8               /home/louis/Documents/ps3/ps3toolchain/bin/portlibs/ppu/lib/libtiny3d.a(rsxutil.o)
heap_pointer        0x8               /home/louis/Documents/ps3/ps3toolchain/bin/portlibs/ppu/lib/libtiny3d.a(mm.o)
Video_Resolution    0x4               /home/louis/Documents/ps3/ps3toolchain/bin/portlibs/ppu/lib/libtiny3d.a(rsxutil.o)
config              0x18              /home/louis/Documents/ps3/ps3toolchain/bin/portlibs/ppu/lib/libtiny3d.a(mm.o)

Memory Configuration

Name             Origin             Length             Attributes
*default*        0x0000000000000000 0xffffffffffffffff

Linker script and memory map

                0x0000000000010000                PROVIDE (__executable_start, 0x10000)
                0x0000000000010200                . = (0x10000 + SIZEOF_HEADERS)

.interp
 *(.interp)

.hash
 *(.hash)

.dynsym
 *(.dynsym)

.dynstr
 *(.dynstr)

.gnu.version
 *(.gnu.version)

.gnu.version_d
 *(.gnu.version_d)

.gnu.version_r
 *(.gnu.version_r)

.rel.dyn
 *(.rel.init)
 *(.rel.text .rel.text.* .rel.gnu.linkonce.t.*)
 *(.rel.fini)
 *(.rel.rodata .rel.rodata.* .rel.gnu.linkonce.r.*)
 *(.rel.data.rel.ro*)
 *(.rel.data .rel.data.* .rel.gnu.linkonce.d.*)
 *(.rel.tdata .rel.tdata.* .rel.gnu.linkonce.td.*)
 *(.rel.tbss .rel.tbss.* .rel.gnu.linkonce.tb.*)
 *(.rel.ctors)
 *(.rel.dtors)
 *(.rel.got)
 *(.rel.sdata .rel.sdata.* .rel.gnu.linkonce.s.*)
 *(.rel.sbss .rel.sbss.* .rel.gnu.linkonce.sb.*)
 *(.rel.sdata2 .rel.sdata2.* .rel.gnu.linkonce.s2.*)
 *(.rel.sbss2 .rel.sbss2.* .rel.gnu.linkonce.sb2.*)
 *(.rel.bss .rel.bss.* .rel.gnu.linkonce.b.*)

.rela.dyn       0x0000000000010200        0x0
 *(.rela.init)
 *(.rela.text .rela.text.* .rela.gnu.linkonce.t.*)
 *(.rela.fini)
 *(.rela.rodata .rela.rodata.* .rela.gnu.linkonce.r.*)
 *(.rela.data .rela.data.* .rela.gnu.linkonce.d.*)
 *(.rela.tdata .rela.tdata.* .rela.gnu.linkonce.td.*)
 *(.rela.tbss .rela.tbss.* .rela.gnu.linkonce.tb.*)
 *(.rela.ctors)
 *(.rela.dtors)
 *(.rela.got)
 *(.rela.toc)
 .rela.toc      0x0000000000000000        0x0 linker stubs
 *(.rela.sdata .rela.sdata.* .rela.gnu.linkonce.s.*)
 *(.rela.sbss .rela.sbss.* .rela.gnu.linkonce.sb.*)
 *(.rela.sdata2 .rela.sdata2.* .rela.gnu.linkonce.s2.*)
 *(.rela.sbss2 .rela.sbss2.* .rela.gnu.linkonce.sb2.*)
 *(.rela.bss .rela.bss.* .rela.gnu.linkonce.b.*)
 .rela.iplt     0x0000000000000000        0x0 linker stubs
 .rela.sys_proc_prx_param
                0x0000000000000000        0x0 linker stubs

.rel.plt
 *(.rel.plt)

.rela.plt
 *(.rela.plt)

.rela.tocbss
 *(.rela.tocbss)

.init           0x0000000000010200       0x2c
 *(.init)
 .init          0x0000000000010200        0xc /home/louis/Documents/ps3/ps3toolchain/bin/ppu/lib/gcc/powerpc64-ps3-elf/7.2.0/../../../../powerpc64-ps3-elf/lib/lv2-crti.o
                0x0000000000010200                ._init
 .init          0x000000000001020c        0x8 /home/louis/Documents/ps3/ps3toolchain/bin/ppu/lib/gcc/powerpc64-ps3-elf/7.2.0/crtbegin.o
 .init          0x0000000000010214        0x8 /home/louis/Documents/ps3/ps3toolchain/bin/ppu/lib/gcc/powerpc64-ps3-elf/7.2.0/crtend.o
 .init          0x000000000001021c       0x10 /home/louis/Documents/ps3/ps3toolchain/bin/ppu/lib/gcc/powerpc64-ps3-elf/7.2.0/../../../../powerpc64-ps3-elf/lib/lv2-crtn.o

.text           0x0000000000010230    0x26bac
 *(.text .stub .text.* .gnu.linkonce.t.*)
 .text          0x0000000000010230        0x0 /home/louis/Documents/ps3/ps3toolchain/bin/ppu/lib/gcc/powerpc64-ps3-elf/7.2.0/../../../../powerpc64-ps3-elf/lib/lv2-crti.o
 .text          0x0000000000010230        0x0 /home/louis/Documents/ps3/ps3toolchain/bin/ppu/lib/gcc/powerpc64-ps3-elf/7.2.0/crtbegin.o
 .text.deregister_tm_clones
                0x0000000000010230       0x54 /home/louis/Documents/ps3/ps3toolchain/bin/ppu/lib/gcc/powerpc64-ps3-elf/7.2.0/crtbegin.o
 *fill*         0x0000000000010284        0x4 60000000
 .text.register_tm_clones
                0x0000000000010288       0x60 /home/louis/Documents/ps3/ps3toolchain/bin/ppu/lib/gcc/powerpc64-ps3-elf/7.2.0/crtbegin.o
 .text.__do_global_dtors_aux
                0x00000000000102e8       0xd4 /home/louis/Documents/ps3/ps3toolchain/bin/ppu/lib/gcc/powerpc64-ps3-elf/7.2.0/crtbegin.o
 *fill*         0x00000000000103bc        0x4 60000000
 .text.frame_dummy
                0x00000000000103c0       0x38 /home/louis/Documents/ps3/ps3toolchain/bin/ppu/lib/gcc/powerpc64-ps3-elf/7.2.0/crtbegin.o
 .text          0x00000000000103f8       0x58 /home/louis/Documents/ps3/ps3toolchain/bin/ppu/lib/gcc/powerpc64-ps3-elf/7.2.0/../../../../powerpc64-ps3-elf/lib/lv2-crt0.o
                0x00000000000103f8                ._start
 .text.startup.__syscalls_init
                0x0000000000010450      0x180 /home/louis/Documents/ps3/ps3toolchain/bin/ppu/lib/gcc/powerpc64-ps3-elf/7.2.0/../../../../powerpc64-ps3-elf/lib/lv2-crt0.o
 .text._initialize
                0x00000000000105d0       0x40 /home/louis/Documents/ps3/ps3toolchain/bin/ppu/lib/gcc/powerpc64-ps3-elf/7.2.0/../../../../powerpc64-ps3-elf/lib/lv2-crt0.o
 .text          0x0000000000010610        0x0 /home/louis/Documents/ps3/ps3toolchain/bin/ppu/lib/gcc/powerpc64-ps3-elf/7.2.0/../../../../powerpc64-ps3-elf/lib/lv2-sprx.o
 .text          0x0000000000010610        0x0 main.o
 .text.startup.main
                0x0000000000010610       0x5c main.o
 .text          0x000000000001066c        0x0 pad.o
 *fill*         0x000000000001066c        0x4 60000000
 .text.normalizeAnalogSticks
                0x0000000000010670       0x28 pad.o
 .text.getControl
                0x0000000000010698       0xa8 pad.o
 .text          0x0000000000010740        0x0 rendering.o
 .text.render_pipeline.part.0
                0x0000000000010740      0x31c rendering.o
 *fill*         0x0000000000010a5c        0x4 60000000
 .text.rendering_loop
                0x0000000000010a60      0x158 rendering.o
 .text.render_pipeline
                0x0000000000010bb8       0x90 rendering.o
 .text          0x0000000000010c48        0x0 /home/louis/Documents/ps3/ps3toolchain/bin/portlibs/ppu/lib/libtiny3d.a(matrix.o)
 .text.MatrixProjPerspective
                0x0000000000010c48      0x108 /home/louis/Documents/ps3/ps3toolchain/bin/portlibs/ppu/lib/libtiny3d.a(matrix.o)
 .text.MatrixVectorMultiply
                0x0000000000010d50       0xac /home/louis/Documents/ps3/ps3toolchain/bin/portlibs/ppu/lib/libtiny3d.a(matrix.o)
 *fill*         0x0000000000010dfc        0x4 60000000
 .text.MatrixVectorMultiply3x3
                0x0000000000010e00       0x8c /home/louis/Documents/ps3/ps3toolchain/bin/portlibs/ppu/lib/libtiny3d.a(matrix.o)
 *fill*         0x0000000000010e8c        0x4 60000000
 .text.MatrixMultiply
                0x0000000000010e90      0x2f4 /home/louis/Documents/ps3/ps3toolchain/bin/portlibs/ppu/lib/libtiny3d.a(matrix.o)
 *fill*         0x0000000000011184        0x4 60000000
 .text.MatrixIdentity
                0x0000000000011188       0x54 /home/louis/Documents/ps3/ps3toolchain/bin/portlibs/ppu/lib/libtiny3d.a(matrix.o)
 *fill*         0x00000000000111dc        0x4 60000000
 .text.MatrixTranslation
                0x00000000000111e0       0x58 /home/louis/Documents/ps3/ps3toolchain/bin/portlibs/ppu/lib/libtiny3d.a(matrix.o)
 .text.MatrixTranspose
                0x0000000000011238       0xb0 /home/louis/Documents/ps3/ps3toolchain/bin/portlibs/ppu/lib/libtiny3d.a(matrix.o)
 .text.MatrixScale
                0x00000000000112e8       0x60 /home/louis/Documents/ps3/ps3toolchain/bin/portlibs/ppu/lib/libtiny3d.a(matrix.o)
 .text.MatrixRotationX
                0x0000000000011348       0xbc /home/louis/Documents/ps3/ps3toolchain/bin/portlibs/ppu/lib/libtiny3d.a(matrix.o)
 *fill*         0x0000000000011404        0x4 60000000
 .text.MatrixRotationY
                0x0000000000011408       0xbc /home/louis/Documents/ps3/ps3toolchain/bin/portlibs/ppu/lib/libtiny3d.a(matrix.o)
 *fill*         0x00000000000114c4        0x4 60000000
 .text.MatrixRotationZ
                0x00000000000114c8       0xac /home/louis/Documents/ps3/ps3toolchain/bin/portlibs/ppu/lib/libtiny3d.a(matrix.o)
 *fill*         0x0000000000011574        0x4 60000000
 .text.MatrixRotationAxis
                0x0000000000011578      0x2b0 /home/louis/Documents/ps3/ps3toolchain/bin/portlibs/ppu/lib/libtiny3d.a(matrix.o)
 .text.VectorToUnit
                0x0000000000011828       0xc4 /home/louis/Documents/ps3/ps3toolchain/bin/portlibs/ppu/lib/libtiny3d.a(matrix.o)
 *fill*         0x00000000000118ec        0x4 60000000
 .text.VectorNormalPlane
                0x00000000000118f0       0xdc /home/louis/Documents/ps3/ps3toolchain/bin/portlibs/ppu/lib/libtiny3d.a(matrix.o)
 *fill*         0x00000000000119cc        0x4 60000000
 .text.MakeLookAtMatrix
                0x00000000000119d0      0x2f0 /home/louis/Documents/ps3/ps3toolchain/bin/portlibs/ppu/lib/libtiny3d.a(matrix.o)
 .text          0x0000000000011cc0        0x0 /home/louis/Documents/ps3/ps3toolchain/bin/portlibs/ppu/lib/libtiny3d.a(tiny3d.o)
 .text.put_vertex
                0x0000000000011cc0      0x1f0 /home/louis/Documents/ps3/ps3toolchain/bin/portlibs/ppu/lib/libtiny3d.a(tiny3d.o)
 .text.push_list_cmd
                0x0000000000011eb0      0x16c /home/louis/Documents/ps3/ps3toolchain/bin/portlibs/ppu/lib/libtiny3d.a(tiny3d.o)
 *fill*         0x000000000001201c        0x4 60000000
 .text.tiny3d_Exit
                0x0000000000012020      0x180 /home/louis/Documents/ps3/ps3toolchain/bin/portlibs/ppu/lib/libtiny3d.a(tiny3d.o)
 .text.tiny3d_callback
                0x00000000000121a0      0x180 /home/louis/Documents/ps3/ps3toolchain/bin/portlibs/ppu/lib/libtiny3d.a(tiny3d.o)
 .text.Update_With_Normal
                0x0000000000012320      0x29c /home/louis/Documents/ps3/ps3toolchain/bin/portlibs/ppu/lib/libtiny3d.a(tiny3d.o)
 *fill*         0x00000000000125bc        0x4 60000000
 .text.set_shader_context.part.8
                0x00000000000125c0      0x318 /home/louis/Documents/ps3/ps3toolchain/bin/portlibs/ppu/lib/libtiny3d.a(tiny3d.o)
 .text.push_normal_list
                0x00000000000128d8      0x198 /home/louis/Documents/ps3/ps3toolchain/bin/portlibs/ppu/lib/libtiny3d.a(tiny3d.o)
 .text.push_position_list
                0x0000000000012a70      0x1b0 /home/louis/Documents/ps3/ps3toolchain/bin/portlibs/ppu/lib/libtiny3d.a(tiny3d.o)
 .text.tiny3d_alarm
                0x0000000000012c20       0x10 /home/louis/Documents/ps3/ps3toolchain/bin/portlibs/ppu/lib/libtiny3d.a(tiny3d.o)
 .text.tiny3d_RecordList
                0x0000000000012c30       0xac /home/louis/Documents/ps3/ps3toolchain/bin/portlibs/ppu/lib/libtiny3d.a(tiny3d.o)
 *fill*         0x0000000000012cdc        0x4 60000000
 .text.tiny3d_StopList
                0x0000000000012ce0      0x14c /home/louis/Documents/ps3/ps3toolchain/bin/portlibs/ppu/lib/libtiny3d.a(tiny3d.o)
 *fill*         0x0000000000012e2c        0x4 60000000
 .text.tiny3d_FreeList
                0x0000000000012e30       0xb4 /home/louis/Documents/ps3/ps3toolchain/bin/portlibs/ppu/lib/libtiny3d.a(tiny3d.o)
 *fill*         0x0000000000012ee4        0x4 60000000
 .text.tiny3d_DynamicMatrixList
                0x0000000000012ee8      0x104 /home/louis/Documents/ps3/ps3toolchain/bin/portlibs/ppu/lib/libtiny3d.a(tiny3d.o)
 *fill*         0x0000000000012fec        0x4 60000000
 .text.tiny3d_ApplyMatrixList
                0x0000000000012ff0       0xc8 /home/louis/Documents/ps3/ps3toolchain/bin/portlibs/ppu/lib/libtiny3d.a(tiny3d.o)
 .text.tiny3d_Init
                0x00000000000130b8      0x510 /home/louis/Documents/ps3/ps3toolchain/bin/portlibs/ppu/lib/libtiny3d.a(tiny3d.o)
 .text.tiny3d_SetPolygon
                0x00000000000135c8      0x230 /home/louis/Documents/ps3/ps3toolchain/bin/portlibs/ppu/lib/libtiny3d.a(tiny3d.o)
 .text.tiny3d_VertexPos
                0x00000000000137f8       0xc8 /home/louis/Documents/ps3/ps3toolchain/bin/portlibs/ppu/lib/libtiny3d.a(tiny3d.o)
 .text.tiny3d_VertexPos4
                0x00000000000138c0       0xc8 /home/louis/Documents/ps3/ps3toolchain/bin/portlibs/ppu/lib/libtiny3d.a(tiny3d.o)
 .text.tiny3d_VertexPosVector
                0x0000000000013988       0xd8 /home/louis/Documents/ps3/ps3toolchain/bin/portlibs/ppu/lib/libtiny3d.a(tiny3d.o)
 .text.tiny3d_VertexColor
                0x0000000000013a60       0xcc /home/louis/Documents/ps3/ps3toolchain/bin/portlibs/ppu/lib/libtiny3d.a(tiny3d.o)
 *fill*         0x0000000000013b2c        0x4 60000000
 .text.tiny3d_VertexFcolor
                0x0000000000013b30      0x114 /home/louis/Documents/ps3/ps3toolchain/bin/portlibs/ppu/lib/libtiny3d.a(tiny3d.o)
 *fill*         0x0000000000013c44        0x4 60000000
 .text.tiny3d_VertexTexture
                0x0000000000013c48       0xe4 /home/louis/Documents/ps3/ps3toolchain/bin/portlibs/ppu/lib/libtiny3d.a(tiny3d.o)
 *fill*         0x0000000000013d2c        0x4 60000000
 .text.tiny3d_VertexTexture2
                0x0000000000013d30       0xe4 /home/louis/Documents/ps3/ps3toolchain/bin/portlibs/ppu/lib/libtiny3d.a(tiny3d.o)
 *fill*         0x0000000000013e14        0x4 60000000
 .text.tiny3d_Normal
                0x0000000000013e18       0x48 /home/louis/Documents/ps3/ps3toolchain/bin/portlibs/ppu/lib/libtiny3d.a(tiny3d.o)
 .text.tiny3d_NormalVector
                0x0000000000013e60       0x58 /home/louis/Documents/ps3/ps3toolchain/bin/portlibs/ppu/lib/libtiny3d.a(tiny3d.o)
 .text.tiny3d_End
                0x0000000000013eb8      0x5e8 /home/louis/Documents/ps3/ps3toolchain/bin/portlibs/ppu/lib/libtiny3d.a(tiny3d.o)
 .text.tiny3d_SetMatrixModelView
                0x00000000000144a0      0x1dc /home/louis/Documents/ps3/ps3toolchain/bin/portlibs/ppu/lib/libtiny3d.a(tiny3d.o)
 *fill*         0x000000000001467c        0x4 60000000
 .text.tiny3d_SetProjectionMatrix
                0x0000000000014680       0xd8 /home/louis/Documents/ps3/ps3toolchain/bin/portlibs/ppu/lib/libtiny3d.a(tiny3d.o)
 .text.tiny3d_Flip
                0x0000000000014758      0x110 /home/louis/Documents/ps3/ps3toolchain/bin/portlibs/ppu/lib/libtiny3d.a(tiny3d.o)
 .text.tiny3d_UserViewport
                0x0000000000014868       0x60 /home/louis/Documents/ps3/ps3toolchain/bin/portlibs/ppu/lib/libtiny3d.a(tiny3d.o)
 .text.tiny3d_UserViewport2
                0x00000000000148c8       0x58 /home/louis/Documents/ps3/ps3toolchain/bin/portlibs/ppu/lib/libtiny3d.a(tiny3d.o)
 .text.tiny3d_UserViewportSurface
                0x0000000000014920       0x28 /home/louis/Documents/ps3/ps3toolchain/bin/portlibs/ppu/lib/libtiny3d.a(tiny3d.o)
 .text.tiny3d_Project2D
                0x0000000000014948      0x330 /home/louis/Documents/ps3/ps3toolchain/bin/portlibs/ppu/lib/libtiny3d.a(tiny3d.o)
 .text.tiny3d_Project3D
                0x0000000000014c78      0x208 /home/louis/Documents/ps3/ps3toolchain/bin/portlibs/ppu/lib/libtiny3d.a(tiny3d.o)
 .text.tiny3d_Clear
                0x0000000000014e80      0x36c /home/louis/Documents/ps3/ps3toolchain/bin/portlibs/ppu/lib/libtiny3d.a(tiny3d.o)
 *fill*         0x00000000000151ec        0x4 60000000
 .text.tiny3d_ClearSurface
                0x00000000000151f0      0x204 /home/louis/Documents/ps3/ps3toolchain/bin/portlibs/ppu/lib/libtiny3d.a(tiny3d.o)
 *fill*         0x00000000000153f4        0x4 60000000
 .text.tiny3d_AlphaTest
                0x00000000000153f8       0x84 /home/louis/Documents/ps3/ps3toolchain/bin/portlibs/ppu/lib/libtiny3d.a(tiny3d.o)
 *fill*         0x000000000001547c        0x4 60000000
 .text.tiny3d_BlendFunc
                0x0000000000015480       0x80 /home/louis/Documents/ps3/ps3toolchain/bin/portlibs/ppu/lib/libtiny3d.a(tiny3d.o)
 .text.tiny3d_SetTextureWrap
                0x0000000000015500      0x1d8 /home/louis/Documents/ps3/ps3toolchain/bin/portlibs/ppu/lib/libtiny3d.a(tiny3d.o)
 .text.tiny3d_SetTexture
                0x00000000000156d8      0x120 /home/louis/Documents/ps3/ps3toolchain/bin/portlibs/ppu/lib/libtiny3d.a(tiny3d.o)
 .text.tiny3d_AllocTexture
                0x00000000000157f8       0x38 /home/louis/Documents/ps3/ps3toolchain/bin/portlibs/ppu/lib/libtiny3d.a(tiny3d.o)
 .text.tiny3d_TextureOffset
                0x0000000000015830       0x40 /home/louis/Documents/ps3/ps3toolchain/bin/portlibs/ppu/lib/libtiny3d.a(tiny3d.o)
 .text.tiny3d_EmissiveMaterial
                0x0000000000015870      0x104 /home/louis/Documents/ps3/ps3toolchain/bin/portlibs/ppu/lib/libtiny3d.a(tiny3d.o)
 *fill*         0x0000000000015974        0x4 60000000
 .text.tiny3d_AmbientMaterial
                0x0000000000015978      0x104 /home/louis/Documents/ps3/ps3toolchain/bin/portlibs/ppu/lib/libtiny3d.a(tiny3d.o)
 *fill*         0x0000000000015a7c        0x4 60000000
 .text.tiny3d_DiffuseMaterial
                0x0000000000015a80      0x104 /home/louis/Documents/ps3/ps3toolchain/bin/portlibs/ppu/lib/libtiny3d.a(tiny3d.o)
 *fill*         0x0000000000015b84        0x4 60000000
 .text.tiny3d_SpecularMaterial
                0x0000000000015b88      0x104 /home/louis/Documents/ps3/ps3toolchain/bin/portlibs/ppu/lib/libtiny3d.a(tiny3d.o)
 *fill*         0x0000000000015c8c        0x4 60000000
 .text.tiny3d_SetLightCameraPosition
                0x0000000000015c90       0x3c /home/louis/Documents/ps3/ps3toolchain/bin/portlibs/ppu/lib/libtiny3d.a(tiny3d.o)
 *fill*         0x0000000000015ccc        0x4 60000000
 .text.tiny3d_SetLight
                0x0000000000015cd0       0xd4 /home/louis/Documents/ps3/ps3toolchain/bin/portlibs/ppu/lib/libtiny3d.a(tiny3d.o)
 *fill*         0x0000000000015da4        0x4 60000000
 .text.tiny3d_SetLightsOff
                0x0000000000015da8       0x3c /home/louis/Documents/ps3/ps3toolchain/bin/portlibs/ppu/lib/libtiny3d.a(tiny3d.o)
 *fill*         0x0000000000015de4        0x4 60000000
 .text.tiny3d_SetAmbientLight
                0x0000000000015de8       0x3c /home/louis/Documents/ps3/ps3toolchain/bin/portlibs/ppu/lib/libtiny3d.a(tiny3d.o)
 *fill*         0x0000000000015e24        0x4 60000000
 .text.tiny3d_SelMultiTexturesMethod
                0x0000000000015e28       0xc0 /home/louis/Documents/ps3/ps3toolchain/bin/portlibs/ppu/lib/libtiny3d.a(tiny3d.o)
 .text.tiny3d_DrawList
                0x0000000000015ee8      0x58c /home/louis/Documents/ps3/ps3toolchain/bin/portlibs/ppu/lib/libtiny3d.a(tiny3d.o)
 *fill*         0x0000000000016474        0x4 60000000
 .text.tiny3d_MenuActive
                0x0000000000016478       0x1c /home/louis/Documents/ps3/ps3toolchain/bin/portlibs/ppu/lib/libtiny3d.a(tiny3d.o)
 *fill*         0x0000000000016494        0x4 60000000
 .text.tiny3d_Enable_YUV
                0x0000000000016498       0x2c /home/louis/Documents/ps3/ps3toolchain/bin/portlibs/ppu/lib/libtiny3d.a(tiny3d.o)
 *fill*         0x00000000000164c4        0x4 60000000
 .text.tiny3d_Disable_YUV
                0x00000000000164c8       0x28 /home/louis/Documents/ps3/ps3toolchain/bin/portlibs/ppu/lib/libtiny3d.a(tiny3d.o)
 .text.tiny3d_Dirty_Status
                0x00000000000164f0       0x78 /home/louis/Documents/ps3/ps3toolchain/bin/portlibs/ppu/lib/libtiny3d.a(tiny3d.o)
 .text.tiny3d_Get_GCM_Context
                0x0000000000016568       0x18 /home/louis/Documents/ps3/ps3toolchain/bin/portlibs/ppu/lib/libtiny3d.a(tiny3d.o)
 .text.tiny3d_DoCmd_Space
                0x0000000000016580       0x6c /home/louis/Documents/ps3/ps3toolchain/bin/portlibs/ppu/lib/libtiny3d.a(tiny3d.o)
 .text          0x00000000000165ec        0x0 /home/louis/Documents/ps3/ps3toolchain/bin/portlibs/ppu/lib/libtiny3d.a(vshader_text_normal.vcg.o)
 .text          0x00000000000165ec        0x0 /home/louis/Documents/ps3/ps3toolchain/bin/portlibs/ppu/lib/libtiny3d.a(commands.o)
 *fill*         0x00000000000165ec        0x4 60000000
 .text.rsxtiny_MakeCmdSpace
                0x00000000000165f0      0x104 /home/louis/Documents/ps3/ps3toolchain/bin/portlibs/ppu/lib/libtiny3d.a(commands.o)
 *fill*         0x00000000000166f4        0x4 60000000
 .text.rsxtiny_SetReferenceCommand
                0x00000000000166f8      0x128 /home/louis/Documents/ps3/ps3toolchain/bin/portlibs/ppu/lib/libtiny3d.a(commands.o)
 .text.rsxtiny_SetWriteBackendLabel
                0x0000000000016820      0x168 /home/louis/Documents/ps3/ps3toolchain/bin/portlibs/ppu/lib/libtiny3d.a(commands.o)
 .text.rsxtiny_SetWaitLabel
                0x0000000000016988      0x150 /home/louis/Documents/ps3/ps3toolchain/bin/portlibs/ppu/lib/libtiny3d.a(commands.o)
 .text.rsxtiny_SetScissor
                0x0000000000016ad8      0x168 /home/louis/Documents/ps3/ps3toolchain/bin/portlibs/ppu/lib/libtiny3d.a(commands.o)
 .text.rsxtiny_SetClearColor
                0x0000000000016c40      0x128 /home/louis/Documents/ps3/ps3toolchain/bin/portlibs/ppu/lib/libtiny3d.a(commands.o)
 .text.rsxtiny_SetClearDepthValue
                0x0000000000016d68      0x128 /home/louis/Documents/ps3/ps3toolchain/bin/portlibs/ppu/lib/libtiny3d.a(commands.o)
 .text.rsxtiny_Nop
                0x0000000000016e90      0x118 /home/louis/Documents/ps3/ps3toolchain/bin/portlibs/ppu/lib/libtiny3d.a(commands.o)
 .text.rsxtiny_ClearBuffers
                0x0000000000016fa8      0x140 /home/louis/Documents/ps3/ps3toolchain/bin/portlibs/ppu/lib/libtiny3d.a(commands.o)
 .text.rsxtiny_SetRenderSurface
                0x00000000000170e8      0x198 /home/louis/Documents/ps3/ps3toolchain/bin/portlibs/ppu/lib/libtiny3d.a(commands.o)
 .text.rsxtiny_SelectRenderTarget
                0x0000000000017280      0x218 /home/louis/Documents/ps3/ps3toolchain/bin/portlibs/ppu/lib/libtiny3d.a(commands.o)
 .text.rsxtiny_Viewport
                0x0000000000017498      0x140 /home/louis/Documents/ps3/ps3toolchain/bin/portlibs/ppu/lib/libtiny3d.a(commands.o)
 .text.rsxtiny_ViewportClip
                0x00000000000175d8      0x160 /home/louis/Documents/ps3/ps3toolchain/bin/portlibs/ppu/lib/libtiny3d.a(commands.o)
 .text.rsxtiny_VertexBegin
                0x0000000000017738      0x128 /home/louis/Documents/ps3/ps3toolchain/bin/portlibs/ppu/lib/libtiny3d.a(commands.o)
 .text.rsxtiny_VertexEnd
                0x0000000000017860      0x118 /home/louis/Documents/ps3/ps3toolchain/bin/portlibs/ppu/lib/libtiny3d.a(commands.o)
 .text.rsxtiny_Vertex4f
                0x0000000000017978      0x170 /home/louis/Documents/ps3/ps3toolchain/bin/portlibs/ppu/lib/libtiny3d.a(commands.o)
 .text.rsxtiny_TexCoord2f
                0x0000000000017ae8      0x140 /home/louis/Documents/ps3/ps3toolchain/bin/portlibs/ppu/lib/libtiny3d.a(commands.o)
 .text.rsxtiny_SetVertexProgramConstant4f
                0x0000000000017c28      0x158 /home/louis/Documents/ps3/ps3toolchain/bin/portlibs/ppu/lib/libtiny3d.a(commands.o)
 .text.rsxtiny_LoadVertexProgram
                0x0000000000017d80      0x2d0 /home/louis/Documents/ps3/ps3toolchain/bin/portlibs/ppu/lib/libtiny3d.a(commands.o)
 .text.rsxtiny_SetVertexProgramConstant4fBlock
                0x0000000000018050      0x174 /home/louis/Documents/ps3/ps3toolchain/bin/portlibs/ppu/lib/libtiny3d.a(commands.o)
 *fill*         0x00000000000181c4        0x4 60000000
 .text.rsxtiny_InstallFragmentProgram
                0x00000000000181c8       0x70 /home/louis/Documents/ps3/ps3toolchain/bin/portlibs/ppu/lib/libtiny3d.a(commands.o)
 .text.rsxtiny_LoadFragmentProgram
                0x0000000000018238      0x158 /home/louis/Documents/ps3/ps3toolchain/bin/portlibs/ppu/lib/libtiny3d.a(commands.o)
 .text.rsxtiny_InvalidateTextureCache
                0x0000000000018390      0x128 /home/louis/Documents/ps3/ps3toolchain/bin/portlibs/ppu/lib/libtiny3d.a(commands.o)
 .text.rsxtiny_SetTexture
                0x00000000000184b8      0x1a0 /home/louis/Documents/ps3/ps3toolchain/bin/portlibs/ppu/lib/libtiny3d.a(commands.o)
 .text.rsxtiny_ViewportTranslate
                0x0000000000018658      0x170 /home/louis/Documents/ps3/ps3toolchain/bin/portlibs/ppu/lib/libtiny3d.a(commands.o)
 .text.rsxtiny_ViewportScale
                0x00000000000187c8      0x170 /home/louis/Documents/ps3/ps3toolchain/bin/portlibs/ppu/lib/libtiny3d.a(commands.o)
 .text.rsxtiny_CullFace
                0x0000000000018938      0x128 /home/louis/Documents/ps3/ps3toolchain/bin/portlibs/ppu/lib/libtiny3d.a(commands.o)
 .text.rsxtiny_FrontFace
                0x0000000000018a60      0x128 /home/louis/Documents/ps3/ps3toolchain/bin/portlibs/ppu/lib/libtiny3d.a(commands.o)
 .text.rsxtiny_CullEnable
                0x0000000000018b88      0x128 /home/louis/Documents/ps3/ps3toolchain/bin/portlibs/ppu/lib/libtiny3d.a(commands.o)
 .text.rsxtiny_AlphaEnable
                0x0000000000018cb0      0x128 /home/louis/Documents/ps3/ps3toolchain/bin/portlibs/ppu/lib/libtiny3d.a(commands.o)
 .text.rsxtiny_AlphaRef
                0x0000000000018dd8      0x128 /home/louis/Documents/ps3/ps3toolchain/bin/portlibs/ppu/lib/libtiny3d.a(commands.o)
 .text.rsxtiny_AlphaFunc
                0x0000000000018f00      0x128 /home/louis/Documents/ps3/ps3toolchain/bin/portlibs/ppu/lib/libtiny3d.a(commands.o)
 .text.rsxtiny_BlendEnable
                0x0000000000019028      0x128 /home/louis/Documents/ps3/ps3toolchain/bin/portlibs/ppu/lib/libtiny3d.a(commands.o)
 .text.rsxtiny_BlendEquation
                0x0000000000019150      0x128 /home/louis/Documents/ps3/ps3toolchain/bin/portlibs/ppu/lib/libtiny3d.a(commands.o)
 .text.rsxtiny_BlendFunc
                0x0000000000019278      0x138 /home/louis/Documents/ps3/ps3toolchain/bin/portlibs/ppu/lib/libtiny3d.a(commands.o)
 .text.rsxtiny_ZControl
                0x00000000000193b0      0x158 /home/louis/Documents/ps3/ps3toolchain/bin/portlibs/ppu/lib/libtiny3d.a(commands.o)
 .text.rsxtiny_BindVertexBufferAttribute
                0x0000000000019508      0x1a8 /home/louis/Documents/ps3/ps3toolchain/bin/portlibs/ppu/lib/libtiny3d.a(commands.o)
 .text.rsxtiny_VertexInvalidate
                0x00000000000196b0      0x120 /home/louis/Documents/ps3/ps3toolchain/bin/portlibs/ppu/lib/libtiny3d.a(commands.o)
 .text.rsxtiny_DrawVertexBuffer
                0x00000000000197d0      0x30c /home/louis/Documents/ps3/ps3toolchain/bin/portlibs/ppu/lib/libtiny3d.a(commands.o)
 *fill*         0x0000000000019adc        0x4 60000000
 .text.rsxtiny_DrawVertexBufferIndex
                0x0000000000019ae0      0x34c /home/louis/Documents/ps3/ps3toolchain/bin/portlibs/ppu/lib/libtiny3d.a(commands.o)
 *fill*         0x0000000000019e2c        0x4 60000000
 .text.rsxtiny_DepthTestEnable
                0x0000000000019e30      0x128 /home/louis/Documents/ps3/ps3toolchain/bin/portlibs/ppu/lib/libtiny3d.a(commands.o)
 .text.rsxtiny_DepthTestFunc
                0x0000000000019f58      0x128 /home/louis/Documents/ps3/ps3toolchain/bin/portlibs/ppu/lib/libtiny3d.a(commands.o)
 .text.rsxtiny_DepthWriteEnable
                0x000000000001a080      0x128 /home/louis/Documents/ps3/ps3toolchain/bin/portlibs/ppu/lib/libtiny3d.a(commands.o)
 .text          0x000000000001a1a8        0x0 /home/louis/Documents/ps3/ps3toolchain/bin/portlibs/ppu/lib/libtiny3d.a(glue.o)
 .text.rsxtiny_FlushBuffer
                0x000000000001a1a8       0x78 /home/louis/Documents/ps3/ps3toolchain/bin/portlibs/ppu/lib/libtiny3d.a(glue.o)
 .text.rsxtiny_Init
                0x000000000001a220       0x54 /home/louis/Documents/ps3/ps3toolchain/bin/portlibs/ppu/lib/libtiny3d.a(glue.o)
 *fill*         0x000000000001a274        0x4 60000000
 .text.rsxtiny_AddressToOffset
                0x000000000001a278       0x30 /home/louis/Documents/ps3/ps3toolchain/bin/portlibs/ppu/lib/libtiny3d.a(glue.o)
 .text          0x000000000001a2a8        0x0 /home/louis/Documents/ps3/ps3toolchain/bin/portlibs/ppu/lib/libtiny3d.a(mm.o)
 .text.rsxtiny_MemAlign
                0x000000000001a2a8      0x134 /home/louis/Documents/ps3/ps3toolchain/bin/portlibs/ppu/lib/libtiny3d.a(mm.o)
 *fill*         0x000000000001a3dc        0x4 60000000
 .text.rsxtiny_Mem
                0x000000000001a3e0       0x18 /home/louis/Documents/ps3/ps3toolchain/bin/portlibs/ppu/lib/libtiny3d.a(mm.o)
 .text          0x000000000001a3f8        0x0 /home/louis/Documents/ps3/ps3toolchain/bin/portlibs/ppu/lib/libtiny3d.a(realityVP.o)
 .text.rsxtiny_VertexProgramGetUCode
                0x000000000001a3f8       0x18 /home/louis/Documents/ps3/ps3toolchain/bin/portlibs/ppu/lib/libtiny3d.a(realityVP.o)
 .text.rsxtiny_VertexProgramGetInputMask
                0x000000000001a410       0x14 /home/louis/Documents/ps3/ps3toolchain/bin/portlibs/ppu/lib/libtiny3d.a(realityVP.o)
 *fill*         0x000000000001a424        0x4 60000000
 .text.rsxtiny_VertexProgramGetOutputMask
                0x000000000001a428       0x14 /home/louis/Documents/ps3/ps3toolchain/bin/portlibs/ppu/lib/libtiny3d.a(realityVP.o)
 *fill*         0x000000000001a43c        0x4 60000000
 .text.rsxtiny_VertexProgramGetAttributes
                0x000000000001a440       0x18 /home/louis/Documents/ps3/ps3toolchain/bin/portlibs/ppu/lib/libtiny3d.a(realityVP.o)
 .text.rsxtiny_VertexProgramGetInputAttribute
                0x000000000001a458       0xc8 /home/louis/Documents/ps3/ps3toolchain/bin/portlibs/ppu/lib/libtiny3d.a(realityVP.o)
 .text.rsxtiny_VertexProgramGetConstants
                0x000000000001a520       0x18 /home/louis/Documents/ps3/ps3toolchain/bin/portlibs/ppu/lib/libtiny3d.a(realityVP.o)
 .text.rsxtiny_VertexProgramGetConstant
                0x000000000001a538       0xc8 /home/louis/Documents/ps3/ps3toolchain/bin/portlibs/ppu/lib/libtiny3d.a(realityVP.o)
 .text          0x000000000001a600        0x0 /home/louis/Documents/ps3/ps3toolchain/bin/portlibs/ppu/lib/libtiny3d.a(rsxutil.o)
 .text.waitFlip
                0x000000000001a600       0xbc /home/louis/Documents/ps3/ps3toolchain/bin/portlibs/ppu/lib/libtiny3d.a(rsxutil.o)
 *fill*         0x000000000001a6bc        0x4 60000000
 .text.flip     0x000000000001a6c0       0x5c /home/louis/Documents/ps3/ps3toolchain/bin/portlibs/ppu/lib/libtiny3d.a(rsxutil.o)
 *fill*         0x000000000001a71c        0x4 60000000
 .text.init_screen
                0x000000000001a720      0x354 /home/louis/Documents/ps3/ps3toolchain/bin/portlibs/ppu/lib/libtiny3d.a(rsxutil.o)
 *fill*         0x000000000001aa74        0x4 60000000
 .text.setupRenderTarget
                0x000000000001aa78      0x108 /home/louis/Documents/ps3/ps3toolchain/bin/portlibs/ppu/lib/libtiny3d.a(rsxutil.o)
 .text.setupRenderTarget2
                0x000000000001ab80      0x130 /home/louis/Documents/ps3/ps3toolchain/bin/portlibs/ppu/lib/libtiny3d.a(rsxutil.o)
 .text          0x000000000001acb0        0x0 /home/louis/Documents/ps3/ps3toolchain/bin/portlibs/ppu/lib/libtiny3d.a(buffer.o)
 .text.tiny_rsxContextCallback
                0x000000000001acb0       0x50 /home/louis/Documents/ps3/ps3toolchain/bin/portlibs/ppu/lib/libtiny3d.a(buffer.o)
 .text.commandBufferPut
                0x000000000001ad00       0x20 /home/louis/Documents/ps3/ps3toolchain/bin/portlibs/ppu/lib/libtiny3d.a(buffer.o)
 .text          0x000000000001ad20        0x0 /home/louis/Documents/ps3/ps3toolchain/bin/ppu/lib/libgcm_sys.a(sprx.o)
 .text          0x000000000001ad20        0x0 /home/louis/Documents/ps3/ps3toolchain/bin/ppu/lib/libgcm_sys.a(gcm_wrapper.o)
 .text.gcmInitBody
                0x000000000001ad20       0x64 /home/louis/Documents/ps3/ps3toolchain/bin/ppu/lib/libgcm_sys.a(gcm_wrapper.o)
 *fill*         0x000000000001ad84        0x4 60000000
 .text.gcmIoOffsetToAddress
                0x000000000001ad88       0x64 /home/louis/Documents/ps3/ps3toolchain/bin/ppu/lib/libgcm_sys.a(gcm_wrapper.o)
 *fill*         0x000000000001adec        0x4 60000000
 .text.gcmSetVBlankHandler
                0x000000000001adf0       0x58 /home/louis/Documents/ps3/ps3toolchain/bin/ppu/lib/libgcm_sys.a(gcm_wrapper.o)
 .text.gcmSetFlipHandler
                0x000000000001ae48       0x58 /home/louis/Documents/ps3/ps3toolchain/bin/ppu/lib/libgcm_sys.a(gcm_wrapper.o)
 .text.gcmSetGraphicsHandler
                0x000000000001aea0       0x58 /home/louis/Documents/ps3/ps3toolchain/bin/ppu/lib/libgcm_sys.a(gcm_wrapper.o)
 .text.gcmSetSecondVHandler
                0x000000000001aef8       0x58 /home/louis/Documents/ps3/ps3toolchain/bin/ppu/lib/libgcm_sys.a(gcm_wrapper.o)
 .text.gcmSetUserHandler
                0x000000000001af50       0x58 /home/louis/Documents/ps3/ps3toolchain/bin/ppu/lib/libgcm_sys.a(gcm_wrapper.o)
 .text.gcmSetQueueHandler
                0x000000000001afa8       0x58 /home/louis/Documents/ps3/ps3toolchain/bin/ppu/lib/libgcm_sys.a(gcm_wrapper.o)
 .text.gcmSetUserCommand
                0x000000000001b000       0x58 /home/louis/Documents/ps3/ps3toolchain/bin/ppu/lib/libgcm_sys.a(gcm_wrapper.o)
 .text          0x000000000001b058        0x0 /home/louis/Documents/ps3/ps3toolchain/bin/ppu/lib/libio.a(sprx.o)
 .text          0x000000000001b058        0x0 /home/louis/Documents/ps3/ps3toolchain/bin/ppu/lib/libsysutil.a(sprx.o)
 .text          0x000000000001b058        0x0 /home/louis/Documents/ps3/ps3toolchain/bin/ppu/lib/libsysutil.a(sysutil_wrapper.o)
 .text.sysUtilRegisterCallback
                0x000000000001b058       0x58 /home/louis/Documents/ps3/ps3toolchain/bin/ppu/lib/libsysutil.a(sysutil_wrapper.o)
 .text.msgDialogOpen
                0x000000000001b0b0       0x58 /home/louis/Documents/ps3/ps3toolchain/bin/ppu/lib/libsysutil.a(sysutil_wrapper.o)
 .text.msgDialogOpen2
                0x000000000001b108       0x58 /home/louis/Documents/ps3/ps3toolchain/bin/ppu/lib/libsysutil.a(sysutil_wrapper.o)
 .text.msgDialogOpenErrorCode
                0x000000000001b160       0x58 /home/louis/Documents/ps3/ps3toolchain/bin/ppu/lib/libsysutil.a(sysutil_wrapper.o)
 .text.sysSaveListLoad2
                0x000000000001b1b8       0x74 /home/louis/Documents/ps3/ps3toolchain/bin/ppu/lib/libsysutil.a(sysutil_wrapper.o)
 *fill*         0x000000000001b22c        0x4 60000000
 .text.sysSaveListSave2
                0x000000000001b230       0x74 /home/louis/Documents/ps3/ps3toolchain/bin/ppu/lib/libsysutil.a(sysutil_wrapper.o)
 *fill*         0x000000000001b2a4        0x4 60000000
 .text.sysSaveListAutoLoad
                0x000000000001b2a8       0x7c /home/louis/Documents/ps3/ps3toolchain/bin/ppu/lib/libsysutil.a(sysutil_wrapper.o)
 *fill*         0x000000000001b324        0x4 60000000
 .text.sysSaveListAutoSave
                0x000000000001b328       0x7c /home/louis/Documents/ps3/ps3toolchain/bin/ppu/lib/libsysutil.a(sysutil_wrapper.o)
 *fill*         0x000000000001b3a4        0x4 60000000
 .text.sysSaveFixedLoad2
                0x000000000001b3a8       0x74 /home/louis/Documents/ps3/ps3toolchain/bin/ppu/lib/libsysutil.a(sysutil_wrapper.o)
 *fill*         0x000000000001b41c        0x4 60000000
 .text.sysSaveFixedSave2
                0x000000000001b420       0x74 /home/louis/Documents/ps3/ps3toolchain/bin/ppu/lib/libsysutil.a(sysutil_wrapper.o)
 *fill*         0x000000000001b494        0x4 60000000
 .text.sysSaveAutoLoad2
                0x000000000001b498       0x5c /home/louis/Documents/ps3/ps3toolchain/bin/ppu/lib/libsysutil.a(sysutil_wrapper.o)
 *fill*         0x000000000001b4f4        0x4 60000000
 .text.sysSaveAutoSave2
                0x000000000001b4f8       0x5c /home/louis/Documents/ps3/ps3toolchain/bin/ppu/lib/libsysutil.a(sysutil_wrapper.o)
 *fill*         0x000000000001b554        0x4 60000000
 .text.sysGameThemeInstallFromBuffer
                0x000000000001b558       0x58 /home/louis/Documents/ps3/ps3toolchain/bin/ppu/lib/libsysutil.a(sysutil_wrapper.o)
 .text.sysDiscRegisterDiscChangeCallback
                0x000000000001b5b0       0x5c /home/louis/Documents/ps3/ps3toolchain/bin/ppu/lib/libsysutil.a(sysutil_wrapper.o)
 *fill*         0x000000000001b60c        0x4 60000000
 .text.sysGameDiscRegisterDiscChangeCallback
                0x000000000001b610       0x10 /home/louis/Documents/ps3/ps3toolchain/bin/ppu/lib/libsysutil.a(sysutil_wrapper.o)
 .text.videoRegisterCallback
                0x000000000001b620       0x58 /home/louis/Documents/ps3/ps3toolchain/bin/ppu/lib/libsysutil.a(sysutil_wrapper.o)
 .text          0x000000000001b678        0x0 /home/louis/Documents/ps3/ps3toolchain/bin/ppu/lib/librt.a(sbrk.o)
 .text.startup.sbrk_init
                0x000000000001b678       0xb8 /home/louis/Documents/ps3/ps3toolchain/bin/ppu/lib/librt.a(sbrk.o)
 .text.sbrk_deinit
                0x000000000001b730       0xc8 /home/louis/Documents/ps3/ps3toolchain/bin/ppu/lib/librt.a(sbrk.o)
 .text.__librt_sbrk_r
                0x000000000001b7f8      0x2f4 /home/louis/Documents/ps3/ps3toolchain/bin/ppu/lib/librt.a(sbrk.o)
 .text          0x000000000001baec        0x0 /home/louis/Documents/ps3/ps3toolchain/bin/ppu/lib/librt.a(exit.o)
 *fill*         0x000000000001baec        0x4 60000000
 .text.__librt_exit
                0x000000000001baf0       0x30 /home/louis/Documents/ps3/ps3toolchain/bin/ppu/lib/librt.a(exit.o)
 .text          0x000000000001bb20        0x0 /home/louis/Documents/ps3/ps3toolchain/bin/ppu/lib/librt.a(close.o)
 .text.__librt_close_r
                0x000000000001bb20       0x88 /home/louis/Documents/ps3/ps3toolchain/bin/ppu/lib/librt.a(close.o)
 .text          0x000000000001bba8        0x0 /home/louis/Documents/ps3/ps3toolchain/bin/ppu/lib/librt.a(lseek.o)
 .text.__librt_lseek_r
                0x000000000001bba8       0x8c /home/louis/Documents/ps3/ps3toolchain/bin/ppu/lib/librt.a(lseek.o)
 *fill*         0x000000000001bc34        0x4 60000000
 .text.__librt_lseek64_r
                0x000000000001bc38       0x10 /home/louis/Documents/ps3/ps3toolchain/bin/ppu/lib/librt.a(lseek.o)
 .text          0x000000000001bc48        0x0 /home/louis/Documents/ps3/ps3toolchain/bin/ppu/lib/librt.a(read.o)
 .text.__librt_read_r
                0x000000000001bc48      0x10c /home/louis/Documents/ps3/ps3toolchain/bin/ppu/lib/librt.a(read.o)
 .text          0x000000000001bd54        0x0 /home/louis/Documents/ps3/ps3toolchain/bin/ppu/lib/librt.a(open.o)
 *fill*         0x000000000001bd54        0x4 60000000
 .text.__librt_open_r
                0x000000000001bd58      0x180 /home/louis/Documents/ps3/ps3toolchain/bin/ppu/lib/librt.a(open.o)
 .text          0x000000000001bed8        0x0 /home/louis/Documents/ps3/ps3toolchain/bin/ppu/lib/librt.a(sleep.o)
 .text.__librt_usleep_r
                0x000000000001bed8       0x50 /home/louis/Documents/ps3/ps3toolchain/bin/ppu/lib/librt.a(sleep.o)
 .text.__librt_sleep_r
                0x000000000001bf28       0x6c /home/louis/Documents/ps3/ps3toolchain/bin/ppu/lib/librt.a(sleep.o)
 .text          0x000000000001bf94        0x0 /home/louis/Documents/ps3/ps3toolchain/bin/ppu/lib/librt.a(write.o)
 *fill*         0x000000000001bf94        0x4 60000000
 .text.__librt_write_r
                0x000000000001bf98      0x104 /home/louis/Documents/ps3/ps3toolchain/bin/ppu/lib/librt.a(write.o)
 .text          0x000000000001c09c        0x0 /home/louis/Documents/ps3/ps3toolchain/bin/ppu/lib/librt.a(fstat.o)
 *fill*         0x000000000001c09c        0x4 60000000
 .text.__librt_fstat_r
                0x000000000001c0a0       0xd0 /home/louis/Documents/ps3/ps3toolchain/bin/ppu/lib/librt.a(fstat.o)
 .text.__librt_fstat64_r
                0x000000000001c170       0x10 /home/louis/Documents/ps3/ps3toolchain/bin/ppu/lib/librt.a(fstat.o)
 .text.__librt_stat_r
                0x000000000001c180       0xd0 /home/louis/Documents/ps3/ps3toolchain/bin/ppu/lib/librt.a(fstat.o)
 .text.__librt_stat64_r
                0x000000000001c250       0x10 /home/louis/Documents/ps3/ps3toolchain/bin/ppu/lib/librt.a(fstat.o)
 .text          0x000000000001c260        0x0 /home/louis/Documents/ps3/ps3toolchain/bin/ppu/lib/librt.a(socket.o)
 .text.accept   0x000000000001c260       0xe0 /home/louis/Documents/ps3/ps3toolchain/bin/ppu/lib/librt.a(socket.o)
 .text.bind     0x000000000001c340       0x44 /home/louis/Documents/ps3/ps3toolchain/bin/ppu/lib/librt.a(socket.o)
 *fill*         0x000000000001c384        0x4 60000000
 .text.connect  0x000000000001c388       0x44 /home/louis/Documents/ps3/ps3toolchain/bin/ppu/lib/librt.a(socket.o)
 *fill*         0x000000000001c3cc        0x4 60000000
 .text.listen   0x000000000001c3d0       0x44 /home/louis/Documents/ps3/ps3toolchain/bin/ppu/lib/librt.a(socket.o)
 *fill*         0x000000000001c414        0x4 60000000
 .text.socket   0x000000000001c418       0x5c /home/louis/Documents/ps3/ps3toolchain/bin/ppu/lib/librt.a(socket.o)
 *fill*         0x000000000001c474        0x4 60000000
 .text.send     0x000000000001c478       0x4c /home/louis/Documents/ps3/ps3toolchain/bin/ppu/lib/librt.a(socket.o)
 *fill*         0x000000000001c4c4        0x4 60000000
 .text.sendto   0x000000000001c4c8       0x44 /home/louis/Documents/ps3/ps3toolchain/bin/ppu/lib/librt.a(socket.o)
 *fill*         0x000000000001c50c        0x4 60000000
 .text.recv     0x000000000001c510       0x4c /home/louis/Documents/ps3/ps3toolchain/bin/ppu/lib/librt.a(socket.o)
 *fill*         0x000000000001c55c        0x4 60000000
 .text.recvfrom
                0x000000000001c560       0xd8 /home/louis/Documents/ps3/ps3toolchain/bin/ppu/lib/librt.a(socket.o)
 .text.shutdown
                0x000000000001c638       0x44 /home/louis/Documents/ps3/ps3toolchain/bin/ppu/lib/librt.a(socket.o)
 *fill*         0x000000000001c67c        0x4 60000000
 .text.inet_aton
                0x000000000001c680       0xbc /home/louis/Documents/ps3/ps3toolchain/bin/ppu/lib/librt.a(socket.o)
 *fill*         0x000000000001c73c        0x4 60000000
 .text.inet_pton
                0x000000000001c740       0x48 /home/louis/Documents/ps3/ps3toolchain/bin/ppu/lib/librt.a(socket.o)
 .text.select   0x000000000001c788       0x3c /home/louis/Documents/ps3/ps3toolchain/bin/ppu/lib/librt.a(socket.o)
 *fill*         0x000000000001c7c4        0x4 60000000
 .text.closesocket
                0x000000000001c7c8       0x44 /home/louis/Documents/ps3/ps3toolchain/bin/ppu/lib/librt.a(socket.o)
 .text          0x000000000001c80c        0x0 /home/louis/Documents/ps3/ps3toolchain/bin/ppu/lib/librt.a(lock.o)
 *fill*         0x000000000001c80c        0x4 60000000
 .text.__librt_sys_lwmutex_create_r
                0x000000000001c810       0x38 /home/louis/Documents/ps3/ps3toolchain/bin/ppu/lib/librt.a(lock.o)
 .text.__librt_sys_lwmutex_destroy_r
                0x000000000001c848       0x34 /home/louis/Documents/ps3/ps3toolchain/bin/ppu/lib/librt.a(lock.o)
 *fill*         0x000000000001c87c        0x4 60000000
 .text.__librt_sys_lwmutex_lock_r
                0x000000000001c880       0x38 /home/louis/Documents/ps3/ps3toolchain/bin/ppu/lib/librt.a(lock.o)
 .text.__librt_sys_lwmutex_trylock_r
                0x000000000001c8b8       0x34 /home/louis/Documents/ps3/ps3toolchain/bin/ppu/lib/librt.a(lock.o)
 *fill*         0x000000000001c8ec        0x4 60000000
 .text.__librt_sys_lwmutex_unlock_r
                0x000000000001c8f0       0x34 /home/louis/Documents/ps3/ps3toolchain/bin/ppu/lib/librt.a(lock.o)
 .text          0x000000000001c924        0x0 /home/louis/Documents/ps3/ps3toolchain/bin/ppu/lib/librt.a(dirent.o)
 *fill*         0x000000000001c924        0x4 60000000
 .text.readdir_i
                0x000000000001c928      0x10c /home/louis/Documents/ps3/ps3toolchain/bin/ppu/lib/librt.a(dirent.o)
 *fill*         0x000000000001ca34        0x4 60000000
 .text.__librt_opendir_r
                0x000000000001ca38      0x114 /home/louis/Documents/ps3/ps3toolchain/bin/ppu/lib/librt.a(dirent.o)
 *fill*         0x000000000001cb4c        0x4 60000000
 .text.__librt_readdir_r
                0x000000000001cb50       0x84 /home/louis/Documents/ps3/ps3toolchain/bin/ppu/lib/librt.a(dirent.o)
 *fill*         0x000000000001cbd4        0x4 60000000
 .text.__librt_readdir_r_r
                0x000000000001cbd8       0x58 /home/louis/Documents/ps3/ps3toolchain/bin/ppu/lib/librt.a(dirent.o)
 .text.__librt_closedir_r
                0x000000000001cc30       0x84 /home/louis/Documents/ps3/ps3toolchain/bin/ppu/lib/librt.a(dirent.o)
 *fill*         0x000000000001ccb4        0x4 60000000
 .text.__librt_telldir_r
                0x000000000001ccb8       0x24 /home/louis/Documents/ps3/ps3toolchain/bin/ppu/lib/librt.a(dirent.o)
 *fill*         0x000000000001ccdc        0x4 60000000
 .text.__librt_rewinddir_r
                0x000000000001cce0       0x18 /home/louis/Documents/ps3/ps3toolchain/bin/ppu/lib/librt.a(dirent.o)
 .text.__librt_seekdir_r
                0x000000000001ccf8       0x18 /home/louis/Documents/ps3/ps3toolchain/bin/ppu/lib/librt.a(dirent.o)
 .text          0x000000000001cd10        0x0 /home/louis/Documents/ps3/ps3toolchain/bin/ppu/lib/librt.a(mkdir.o)
 .text.__librt_mkdir_r
                0x000000000001cd10       0x60 /home/louis/Documents/ps3/ps3toolchain/bin/ppu/lib/librt.a(mkdir.o)
 .text          0x000000000001cd70        0x0 /home/louis/Documents/ps3/ps3toolchain/bin/ppu/lib/librt.a(times.o)
 .text.__librt_times_r
                0x000000000001cd70       0x1c /home/louis/Documents/ps3/ps3toolchain/bin/ppu/lib/librt.a(times.o)
 .text          0x000000000001cd8c        0x0 /home/louis/Documents/ps3/ps3toolchain/bin/ppu/lib/librt.a(umask.o)
 *fill*         0x000000000001cd8c        0x4 60000000
 .text.__librt_umask_r
                0x000000000001cd90       0x20 /home/louis/Documents/ps3/ps3toolchain/bin/ppu/lib/librt.a(umask.o)
 .text          0x000000000001cdb0        0x0 /home/louis/Documents/ps3/ps3toolchain/bin/ppu/lib/librt.a(lv2errno.o)
 .text.lv2error
                0x000000000001cdb0      0x434 /home/louis/Documents/ps3/ps3toolchain/bin/ppu/lib/librt.a(lv2errno.o)
 *fill*         0x000000000001d1e4        0x4 60000000
 .text.lv2errno
                0x000000000001d1e8       0x68 /home/louis/Documents/ps3/ps3toolchain/bin/ppu/lib/librt.a(lv2errno.o)
 .text.lv2errno_r
                0x000000000001d250       0x58 /home/louis/Documents/ps3/ps3toolchain/bin/ppu/lib/librt.a(lv2errno.o)
 .text          0x000000000001d2a8        0x0 /home/louis/Documents/ps3/ps3toolchain/bin/ppu/lib/librt.a(heap.o)
 .text.__heap_block_split.isra.2
                0x000000000001d2a8      0x104 /home/louis/Documents/ps3/ps3toolchain/bin/ppu/lib/librt.a(heap.o)
 *fill*         0x000000000001d3ac        0x4 60000000
 .text.heapInit
                0x000000000001d3b0      0x128 /home/louis/Documents/ps3/ps3toolchain/bin/ppu/lib/librt.a(heap.o)
 .text.heapAllocateAligned
                0x000000000001d4d8      0x230 /home/louis/Documents/ps3/ps3toolchain/bin/ppu/lib/librt.a(heap.o)
 .text.heapAllocate
                0x000000000001d708       0x14 /home/louis/Documents/ps3/ps3toolchain/bin/ppu/lib/librt.a(heap.o)
 *fill*         0x000000000001d71c        0x4 60000000
 .text.heapFree
                0x000000000001d720      0x1fc /home/louis/Documents/ps3/ps3toolchain/bin/ppu/lib/librt.a(heap.o)
 .text          0x000000000001d91c        0x0 /home/louis/Documents/ps3/ps3toolchain/bin/ppu/lib/librt.a(chmod.o)
 *fill*         0x000000000001d91c        0x4 60000000
 .text.__librt_chmod_r
                0x000000000001d920       0x54 /home/louis/Documents/ps3/ps3toolchain/bin/ppu/lib/librt.a(chmod.o)
 .text          0x000000000001d974        0x0 /home/louis/Documents/ps3/ps3toolchain/bin/ppu/lib/librt.a(rename.o)
 *fill*         0x000000000001d974        0x4 60000000
 .text.__librt_rename_r
                0x000000000001d978       0x54 /home/louis/Documents/ps3/ps3toolchain/bin/ppu/lib/librt.a(rename.o)
 .text          0x000000000001d9cc        0x0 /home/louis/Documents/ps3/ps3toolchain/bin/ppu/lib/librt.a(rmdir.o)
 *fill*         0x000000000001d9cc        0x4 60000000
 .text.__librt_rmdir_r
                0x000000000001d9d0       0x50 /home/louis/Documents/ps3/ps3toolchain/bin/ppu/lib/librt.a(rmdir.o)
 .text          0x000000000001da20        0x0 /home/louis/Documents/ps3/ps3toolchain/bin/ppu/lib/librt.a(isatty.o)
 .text.__librt_isatty_r
                0x000000000001da20       0x2c /home/louis/Documents/ps3/ps3toolchain/bin/ppu/lib/librt.a(isatty.o)
 .text          0x000000000001da4c        0x0 /home/louis/Documents/ps3/ps3toolchain/bin/ppu/lib/librt.a(gettod.o)
 *fill*         0x000000000001da4c        0x4 60000000
 .text.__librt_gettod_r
                0x000000000001da50       0xb8 /home/louis/Documents/ps3/ps3toolchain/bin/ppu/lib/librt.a(gettod.o)
 .text          0x000000000001db08        0x0 /home/louis/Documents/ps3/ps3toolchain/bin/ppu/lib/librt.a(settod.o)
 .text.__librt_settod_r
                0x000000000001db08       0x58 /home/louis/Documents/ps3/ps3toolchain/bin/ppu/lib/librt.a(settod.o)
 .text          0x000000000001db60        0x0 /home/louis/Documents/ps3/ps3toolchain/bin/ppu/lib/librt.a(unlink.o)
 .text.__librt_unlink_r
                0x000000000001db60       0x50 /home/louis/Documents/ps3/ps3toolchain/bin/ppu/lib/librt.a(unlink.o)
 .text          0x000000000001dbb0        0x0 /home/louis/Documents/ps3/ps3toolchain/bin/ppu/lib/librt.a(link.o)
 .text.__librt_link_r
                0x000000000001dbb0       0x54 /home/louis/Documents/ps3/ps3toolchain/bin/ppu/lib/librt.a(link.o)
 .text          0x000000000001dc04        0x0 /home/louis/Documents/ps3/ps3toolchain/bin/ppu/lib/librt.a(truncate.o)
 *fill*         0x000000000001dc04        0x4 60000000
 .text.__librt_truncate_r
                0x000000000001dc08       0x54 /home/louis/Documents/ps3/ps3toolchain/bin/ppu/lib/librt.a(truncate.o)
 *fill*         0x000000000001dc5c        0x4 60000000
 .text.__librt_ftruncate_r
                0x000000000001dc60       0x54 /home/louis/Documents/ps3/ps3toolchain/bin/ppu/lib/librt.a(truncate.o)
 .text          0x000000000001dcb4        0x0 /home/louis/Documents/ps3/ps3toolchain/bin/ppu/lib/librt.a(fsync.o)
 *fill*         0x000000000001dcb4        0x4 60000000
 .text.__librt_fsync_r
                0x000000000001dcb8       0x50 /home/louis/Documents/ps3/ps3toolchain/bin/ppu/lib/librt.a(fsync.o)
 .text          0x000000000001dd08        0x0 /home/louis/Documents/ps3/ps3toolchain/bin/ppu/lib/librt.a(utime.o)
 .text.__librt_utime_r
                0x000000000001dd08       0xbc /home/louis/Documents/ps3/ps3toolchain/bin/ppu/lib/librt.a(utime.o)
 .text          0x000000000001ddc4        0x0 /home/louis/Documents/ps3/ps3toolchain/bin/ppu/lib/librt.a(globfile.o)
 *fill*         0x000000000001ddc4        0x4 60000000
 .text.resolve_path
                0x000000000001ddc8      0x188 /home/louis/Documents/ps3/ps3toolchain/bin/ppu/lib/librt.a(globfile.o)
 .text.flattenDirectory.constprop.0
                0x000000000001df50      0x2d0 /home/louis/Documents/ps3/ps3toolchain/bin/ppu/lib/librt.a(globfile.o)
 .text.startup.__glob_file_init
                0x000000000001e220       0x3c /home/louis/Documents/ps3/ps3toolchain/bin/ppu/lib/librt.a(globfile.o)
 *fill*         0x000000000001e25c        0x4 60000000
 .text.__full_path
                0x000000000001e260      0x12c /home/louis/Documents/ps3/ps3toolchain/bin/ppu/lib/librt.a(globfile.o)
 *fill*         0x000000000001e38c        0x4 60000000
 .text.__librt_chdir_r
                0x000000000001e390       0xbc /home/louis/Documents/ps3/ps3toolchain/bin/ppu/lib/librt.a(globfile.o)
 *fill*         0x000000000001e44c        0x4 60000000
 .text.__librt_getcwd_r
                0x000000000001e450       0xc0 /home/louis/Documents/ps3/ps3toolchain/bin/ppu/lib/librt.a(globfile.o)
 .text          0x000000000001e510        0x0 /home/louis/Documents/ps3/ps3toolchain/bin/ppu/lib/liblv2.a(sprx.o)
 .text          0x000000000001e510        0x0 /home/louis/Documents/ps3/ps3toolchain/bin/ppu/lib/gcc/powerpc64-ps3-elf/7.2.0/../../../../powerpc64-ps3-elf/lib/libm.a(lib_a-sf_cos.o)
 .text.cosf     0x000000000001e510       0x34 /home/louis/Documents/ps3/ps3toolchain/bin/ppu/lib/gcc/powerpc64-ps3-elf/7.2.0/../../../../powerpc64-ps3-elf/lib/libm.a(lib_a-sf_cos.o)
 .text          0x000000000001e544        0x0 /home/louis/Documents/ps3/ps3toolchain/bin/ppu/lib/gcc/powerpc64-ps3-elf/7.2.0/../../../../powerpc64-ps3-elf/lib/libm.a(lib_a-sf_sine.o)
 *fill*         0x000000000001e544        0x4 60000000
 .text.sinef    0x000000000001e548      0x33c /home/louis/Documents/ps3/ps3toolchain/bin/ppu/lib/gcc/powerpc64-ps3-elf/7.2.0/../../../../powerpc64-ps3-elf/lib/libm.a(lib_a-sf_sine.o)
 .text          0x000000000001e884        0x0 /home/louis/Documents/ps3/ps3toolchain/bin/ppu/lib/gcc/powerpc64-ps3-elf/7.2.0/../../../../powerpc64-ps3-elf/lib/libm.a(lib_a-sf_sin.o)
 *fill*         0x000000000001e884        0x4 60000000
 .text.sinf     0x000000000001e888       0x34 /home/louis/Documents/ps3/ps3toolchain/bin/ppu/lib/gcc/powerpc64-ps3-elf/7.2.0/../../../../powerpc64-ps3-elf/lib/libm.a(lib_a-sf_sin.o)
 .text          0x000000000001e8bc        0x0 /home/louis/Documents/ps3/ps3toolchain/bin/ppu/lib/gcc/powerpc64-ps3-elf/7.2.0/../../../../powerpc64-ps3-elf/lib/libm.a(lib_a-sf_sqrt.o)
 *fill*         0x000000000001e8bc        0x4 60000000
 .text.sqrtf    0x000000000001e8c0      0x1a0 /home/louis/Documents/ps3/ps3toolchain/bin/ppu/lib/gcc/powerpc64-ps3-elf/7.2.0/../../../../powerpc64-ps3-elf/lib/libm.a(lib_a-sf_sqrt.o)
 .text          0x000000000001ea60        0x0 /home/louis/Documents/ps3/ps3toolchain/bin/ppu/lib/gcc/powerpc64-ps3-elf/7.2.0/../../../../powerpc64-ps3-elf/lib/libm.a(lib_a-sf_tan.o)
 .text.tanf     0x000000000001ea60      0x1f8 /home/louis/Documents/ps3/ps3toolchain/bin/ppu/lib/gcc/powerpc64-ps3-elf/7.2.0/../../../../powerpc64-ps3-elf/lib/libm.a(lib_a-sf_tan.o)
 .text          0x000000000001ec58        0x0 /home/louis/Documents/ps3/ps3toolchain/bin/ppu/lib/gcc/powerpc64-ps3-elf/7.2.0/../../../../powerpc64-ps3-elf/lib/libm.a(lib_a-s_mathcnst.o)
 .text          0x000000000001ec58        0x0 /home/louis/Documents/ps3/ps3toolchain/bin/ppu/lib/gcc/powerpc64-ps3-elf/7.2.0/../../../../powerpc64-ps3-elf/lib/libm.a(lib_a-s_sqrt.o)
 .text.sqrt     0x000000000001ec58      0x188 /home/louis/Documents/ps3/ps3toolchain/bin/ppu/lib/gcc/powerpc64-ps3-elf/7.2.0/../../../../powerpc64-ps3-elf/lib/libm.a(lib_a-s_sqrt.o)
 .text          0x000000000001ede0        0x0 /home/louis/Documents/ps3/ps3toolchain/bin/ppu/lib/gcc/powerpc64-ps3-elf/7.2.0/../../../../powerpc64-ps3-elf/lib/libm.a(lib_a-sf_fabs.o)
 .text.fabsf    0x000000000001ede0       0xcc /home/louis/Documents/ps3/ps3toolchain/bin/ppu/lib/gcc/powerpc64-ps3-elf/7.2.0/../../../../powerpc64-ps3-elf/lib/libm.a(lib_a-sf_fabs.o)
 .text          0x000000000001eeac        0x0 /home/louis/Documents/ps3/ps3toolchain/bin/ppu/lib/gcc/powerpc64-ps3-elf/7.2.0/../../../../powerpc64-ps3-elf/lib/libm.a(lib_a-sf_floor.o)
 *fill*         0x000000000001eeac        0x4 60000000
 .text.floorf   0x000000000001eeb0       0xd0 /home/louis/Documents/ps3/ps3toolchain/bin/ppu/lib/gcc/powerpc64-ps3-elf/7.2.0/../../../../powerpc64-ps3-elf/lib/libm.a(lib_a-sf_floor.o)
 .text          0x000000000001ef80        0x0 /home/louis/Documents/ps3/ps3toolchain/bin/ppu/lib/gcc/powerpc64-ps3-elf/7.2.0/../../../../powerpc64-ps3-elf/lib/libm.a(lib_a-sf_frexp.o)
 .text.frexpf   0x000000000001ef80       0xb0 /home/louis/Documents/ps3/ps3toolchain/bin/ppu/lib/gcc/powerpc64-ps3-elf/7.2.0/../../../../powerpc64-ps3-elf/lib/libm.a(lib_a-sf_frexp.o)
 .text          0x000000000001f030        0x0 /home/louis/Documents/ps3/ps3toolchain/bin/ppu/lib/gcc/powerpc64-ps3-elf/7.2.0/../../../../powerpc64-ps3-elf/lib/libm.a(lib_a-sf_ispos.o)
 .text.isposf   0x000000000001f030       0x20 /home/louis/Documents/ps3/ps3toolchain/bin/ppu/lib/gcc/powerpc64-ps3-elf/7.2.0/../../../../powerpc64-ps3-elf/lib/libm.a(lib_a-sf_ispos.o)
 .text          0x000000000001f050        0x0 /home/louis/Documents/ps3/ps3toolchain/bin/ppu/lib/gcc/powerpc64-ps3-elf/7.2.0/../../../../powerpc64-ps3-elf/lib/libm.a(lib_a-sf_ldexp.o)
 .text.ldexpf   0x000000000001f050      0x188 /home/louis/Documents/ps3/ps3toolchain/bin/ppu/lib/gcc/powerpc64-ps3-elf/7.2.0/../../../../powerpc64-ps3-elf/lib/libm.a(lib_a-sf_ldexp.o)
 .text          0x000000000001f1d8        0x0 /home/louis/Documents/ps3/ps3toolchain/bin/ppu/lib/gcc/powerpc64-ps3-elf/7.2.0/../../../../powerpc64-ps3-elf/lib/libm.a(lib_a-sf_modf.o)
 .text.modff    0x000000000001f1d8       0xac /home/louis/Documents/ps3/ps3toolchain/bin/ppu/lib/gcc/powerpc64-ps3-elf/7.2.0/../../../../powerpc64-ps3-elf/lib/libm.a(lib_a-sf_modf.o)
 .text          0x000000000001f284        0x0 /home/louis/Documents/ps3/ps3toolchain/bin/ppu/lib/gcc/powerpc64-ps3-elf/7.2.0/../../../../powerpc64-ps3-elf/lib/libm.a(lib_a-sf_numtest.o)
 *fill*         0x000000000001f284        0x4 60000000
 .text.numtestf
                0x000000000001f288       0x28 /home/louis/Documents/ps3/ps3toolchain/bin/ppu/lib/gcc/powerpc64-ps3-elf/7.2.0/../../../../powerpc64-ps3-elf/lib/libm.a(lib_a-sf_numtest.o)
 .text          0x000000000001f2b0        0x0 /home/louis/Documents/ps3/ps3toolchain/bin/ppu/lib/gcc/powerpc64-ps3-elf/7.2.0/../../../../powerpc64-ps3-elf/lib/libm.a(lib_a-s_frexp.o)
 .text.frexp    0x000000000001f2b0       0xc4 /home/louis/Documents/ps3/ps3toolchain/bin/ppu/lib/gcc/powerpc64-ps3-elf/7.2.0/../../../../powerpc64-ps3-elf/lib/libm.a(lib_a-s_frexp.o)
 .text          0x000000000001f374        0x0 /home/louis/Documents/ps3/ps3toolchain/bin/ppu/lib/gcc/powerpc64-ps3-elf/7.2.0/../../../../powerpc64-ps3-elf/lib/libm.a(lib_a-s_ispos.o)
 *fill*         0x000000000001f374        0x4 60000000
 .text.ispos    0x000000000001f378       0x24 /home/louis/Documents/ps3/ps3toolchain/bin/ppu/lib/gcc/powerpc64-ps3-elf/7.2.0/../../../../powerpc64-ps3-elf/lib/libm.a(lib_a-s_ispos.o)
 .text          0x000000000001f39c        0x0 /home/louis/Documents/ps3/ps3toolchain/bin/ppu/lib/gcc/powerpc64-ps3-elf/7.2.0/../../../../powerpc64-ps3-elf/lib/libm.a(lib_a-s_ldexp.o)
 *fill*         0x000000000001f39c        0x4 60000000
 .text.ldexp    0x000000000001f3a0      0x144 /home/louis/Documents/ps3/ps3toolchain/bin/ppu/lib/gcc/powerpc64-ps3-elf/7.2.0/../../../../powerpc64-ps3-elf/lib/libm.a(lib_a-s_ldexp.o)
 .text          0x000000000001f4e4        0x0 /home/louis/Documents/ps3/ps3toolchain/bin/ppu/lib/gcc/powerpc64-ps3-elf/7.2.0/../../../../powerpc64-ps3-elf/lib/libm.a(lib_a-s_numtest.o)
 *fill*         0x000000000001f4e4        0x4 60000000
 .text.numtest  0x000000000001f4e8       0x58 /home/louis/Documents/ps3/ps3toolchain/bin/ppu/lib/gcc/powerpc64-ps3-elf/7.2.0/../../../../powerpc64-ps3-elf/lib/libm.a(lib_a-s_numtest.o)
 .text          0x000000000001f540        0x0 /home/louis/Documents/ps3/ps3toolchain/bin/ppu/lib/gcc/powerpc64-ps3-elf/7.2.0/../../../../powerpc64-ps3-elf/lib/libsysbase.a(syscalls.o)
 .text          0x000000000001f540        0x0 /home/louis/Documents/ps3/ps3toolchain/bin/ppu/lib/gcc/powerpc64-ps3-elf/7.2.0/../../../../powerpc64-ps3-elf/lib/libsysbase.a(sleep.o)
 .text.usleep   0x000000000001f540       0x80 /home/louis/Documents/ps3/ps3toolchain/bin/ppu/lib/gcc/powerpc64-ps3-elf/7.2.0/../../../../powerpc64-ps3-elf/lib/libsysbase.a(sleep.o)
 .text.sleep    0x000000000001f5c0       0x84 /home/louis/Documents/ps3/ps3toolchain/bin/ppu/lib/gcc/powerpc64-ps3-elf/7.2.0/../../../../powerpc64-ps3-elf/lib/libsysbase.a(sleep.o)
 .text          0x000000000001f644        0x0 /home/louis/Documents/ps3/ps3toolchain/bin/ppu/lib/gcc/powerpc64-ps3-elf/7.2.0/../../../../powerpc64-ps3-elf/lib/libc.a(lib_a-atexit.o)
 *fill*         0x000000000001f644        0x4 60000000
 .text.atexit   0x000000000001f648       0x40 /home/louis/Documents/ps3/ps3toolchain/bin/ppu/lib/gcc/powerpc64-ps3-elf/7.2.0/../../../../powerpc64-ps3-elf/lib/libc.a(lib_a-atexit.o)
 .text          0x000000000001f688        0x0 /home/louis/Documents/ps3/ps3toolchain/bin/ppu/lib/gcc/powerpc64-ps3-elf/7.2.0/../../../../powerpc64-ps3-elf/lib/libc.a(lib_a-calloc.o)
 .text.calloc   0x000000000001f688       0x58 /home/louis/Documents/ps3/ps3toolchain/bin/ppu/lib/gcc/powerpc64-ps3-elf/7.2.0/../../../../powerpc64-ps3-elf/lib/libc.a(lib_a-calloc.o)
 .text          0x000000000001f6e0        0x0 /home/louis/Documents/ps3/ps3toolchain/bin/ppu/lib/gcc/powerpc64-ps3-elf/7.2.0/../../../../powerpc64-ps3-elf/lib/libc.a(lib_a-callocr.o)
 .text._calloc_r
                0x000000000001f6e0       0xdc /home/louis/Documents/ps3/ps3toolchain/bin/ppu/lib/gcc/powerpc64-ps3-elf/7.2.0/../../../../powerpc64-ps3-elf/lib/libc.a(lib_a-callocr.o)
 .text          0x000000000001f7bc        0x0 /home/louis/Documents/ps3/ps3toolchain/bin/ppu/lib/gcc/powerpc64-ps3-elf/7.2.0/../../../../powerpc64-ps3-elf/lib/libc.a(lib_a-errno.o)
 *fill*         0x000000000001f7bc        0x4 60000000
 .text.__errno  0x000000000001f7c0       0x30 /home/louis/Documents/ps3/ps3toolchain/bin/ppu/lib/gcc/powerpc64-ps3-elf/7.2.0/../../../../powerpc64-ps3-elf/lib/libc.a(lib_a-errno.o)
 .text          0x000000000001f7f0        0x0 /home/louis/Documents/ps3/ps3toolchain/bin/ppu/lib/gcc/powerpc64-ps3-elf/7.2.0/../../../../powerpc64-ps3-elf/lib/libc.a(lib_a-exit.o)
 .text.exit     0x000000000001f7f0       0x68 /home/louis/Documents/ps3/ps3toolchain/bin/ppu/lib/gcc/powerpc64-ps3-elf/7.2.0/../../../../powerpc64-ps3-elf/lib/libc.a(lib_a-exit.o)
 .text          0x000000000001f858        0x0 /home/louis/Documents/ps3/ps3toolchain/bin/ppu/lib/gcc/powerpc64-ps3-elf/7.2.0/../../../../powerpc64-ps3-elf/lib/libc.a(lib_a-fprintf.o)
 .text._fprintf_r
                0x000000000001f858       0x48 /home/louis/Documents/ps3/ps3toolchain/bin/ppu/lib/gcc/powerpc64-ps3-elf/7.2.0/../../../../powerpc64-ps3-elf/lib/libc.a(lib_a-fprintf.o)
 .text.fprintf  0x000000000001f8a0       0x74 /home/louis/Documents/ps3/ps3toolchain/bin/ppu/lib/gcc/powerpc64-ps3-elf/7.2.0/../../../../powerpc64-ps3-elf/lib/libc.a(lib_a-fprintf.o)
 .text          0x000000000001f914        0x0 /home/louis/Documents/ps3/ps3toolchain/bin/ppu/lib/gcc/powerpc64-ps3-elf/7.2.0/../../../../powerpc64-ps3-elf/lib/libc.a(lib_a-getreent.o)
 *fill*         0x000000000001f914        0x4 60000000
 .text.__getreent
                0x000000000001f918      0x1b4 /home/louis/Documents/ps3/ps3toolchain/bin/ppu/lib/gcc/powerpc64-ps3-elf/7.2.0/../../../../powerpc64-ps3-elf/lib/libc.a(lib_a-getreent.o)
 .text          0x000000000001facc        0x0 /home/louis/Documents/ps3/ps3toolchain/bin/ppu/lib/gcc/powerpc64-ps3-elf/7.2.0/../../../../powerpc64-ps3-elf/lib/libc.a(lib_a-impure.o)
 .text          0x000000000001facc        0x0 /home/louis/Documents/ps3/ps3toolchain/bin/ppu/lib/gcc/powerpc64-ps3-elf/7.2.0/../../../../powerpc64-ps3-elf/lib/libc.a(lib_a-malign.o)
 *fill*         0x000000000001facc        0x4 60000000
 .text.memalign
                0x000000000001fad0       0x58 /home/louis/Documents/ps3/ps3toolchain/bin/ppu/lib/gcc/powerpc64-ps3-elf/7.2.0/../../../../powerpc64-ps3-elf/lib/libc.a(lib_a-malign.o)
 .text          0x000000000001fb28        0x0 /home/louis/Documents/ps3/ps3toolchain/bin/ppu/lib/gcc/powerpc64-ps3-elf/7.2.0/../../../../powerpc64-ps3-elf/lib/libc.a(lib_a-malignr.o)
 .text._memalign_r
                0x000000000001fb28      0x224 /home/louis/Documents/ps3/ps3toolchain/bin/ppu/lib/gcc/powerpc64-ps3-elf/7.2.0/../../../../powerpc64-ps3-elf/lib/libc.a(lib_a-malignr.o)
 .text          0x000000000001fd4c        0x0 /home/louis/Documents/ps3/ps3toolchain/bin/ppu/lib/gcc/powerpc64-ps3-elf/7.2.0/../../../../powerpc64-ps3-elf/lib/libc.a(lib_a-malloc.o)
 *fill*         0x000000000001fd4c        0x4 60000000
 .text.malloc   0x000000000001fd50       0x48 /home/louis/Documents/ps3/ps3toolchain/bin/ppu/lib/gcc/powerpc64-ps3-elf/7.2.0/../../../../powerpc64-ps3-elf/lib/libc.a(lib_a-malloc.o)
 .text.free     0x000000000001fd98       0x48 /home/louis/Documents/ps3/ps3toolchain/bin/ppu/lib/gcc/powerpc64-ps3-elf/7.2.0/../../../../powerpc64-ps3-elf/lib/libc.a(lib_a-malloc.o)
 .text          0x000000000001fde0        0x0 /home/louis/Documents/ps3/ps3toolchain/bin/ppu/lib/gcc/powerpc64-ps3-elf/7.2.0/../../../../powerpc64-ps3-elf/lib/libc.a(lib_a-mallocr.o)
 .text._malloc_r
                0x000000000001fde0      0x9e4 /home/louis/Documents/ps3/ps3toolchain/bin/ppu/lib/gcc/powerpc64-ps3-elf/7.2.0/../../../../powerpc64-ps3-elf/lib/libc.a(lib_a-mallocr.o)
 .text          0x00000000000207c4        0x0 /home/louis/Documents/ps3/ps3toolchain/bin/ppu/lib/gcc/powerpc64-ps3-elf/7.2.0/../../../../powerpc64-ps3-elf/lib/libc.a(lib_a-memcpy.o)
 *fill*         0x00000000000207c4        0x4 60000000
 .text.memcpy   0x00000000000207c8      0x11c /home/louis/Documents/ps3/ps3toolchain/bin/ppu/lib/gcc/powerpc64-ps3-elf/7.2.0/../../../../powerpc64-ps3-elf/lib/libc.a(lib_a-memcpy.o)
 .text          0x00000000000208e4        0x0 /home/louis/Documents/ps3/ps3toolchain/bin/ppu/lib/gcc/powerpc64-ps3-elf/7.2.0/../../../../powerpc64-ps3-elf/lib/libc.a(lib_a-memset.o)
 *fill*         0x00000000000208e4        0x4 60000000
 .text.memset   0x00000000000208e8      0x138 /home/louis/Documents/ps3/ps3toolchain/bin/ppu/lib/gcc/powerpc64-ps3-elf/7.2.0/../../../../powerpc64-ps3-elf/lib/libc.a(lib_a-memset.o)
 .text          0x0000000000020a20        0x0 /home/louis/Documents/ps3/ps3toolchain/bin/ppu/lib/gcc/powerpc64-ps3-elf/7.2.0/../../../../powerpc64-ps3-elf/lib/libc.a(lib_a-mlock.o)
 .text.__malloc_lock
                0x0000000000020a20       0x34 /home/louis/Documents/ps3/ps3toolchain/bin/ppu/lib/gcc/powerpc64-ps3-elf/7.2.0/../../../../powerpc64-ps3-elf/lib/libc.a(lib_a-mlock.o)
 *fill*         0x0000000000020a54        0x4 60000000
 .text.__malloc_unlock
                0x0000000000020a58       0x34 /home/louis/Documents/ps3/ps3toolchain/bin/ppu/lib/gcc/powerpc64-ps3-elf/7.2.0/../../../../powerpc64-ps3-elf/lib/libc.a(lib_a-mlock.o)
 .text          0x0000000000020a8c        0x0 /home/louis/Documents/ps3/ps3toolchain/bin/ppu/lib/gcc/powerpc64-ps3-elf/7.2.0/../../../../powerpc64-ps3-elf/lib/libc.a(lib_a-perror.o)
 *fill*         0x0000000000020a8c        0x4 60000000
 .text._perror_r
                0x0000000000020a90       0xb0 /home/louis/Documents/ps3/ps3toolchain/bin/ppu/lib/gcc/powerpc64-ps3-elf/7.2.0/../../../../powerpc64-ps3-elf/lib/libc.a(lib_a-perror.o)
 .text.perror   0x0000000000020b40       0x40 /home/louis/Documents/ps3/ps3toolchain/bin/ppu/lib/gcc/powerpc64-ps3-elf/7.2.0/../../../../powerpc64-ps3-elf/lib/libc.a(lib_a-perror.o)
 .text          0x0000000000020b80        0x0 /home/louis/Documents/ps3/ps3toolchain/bin/ppu/lib/gcc/powerpc64-ps3-elf/7.2.0/../../../../powerpc64-ps3-elf/lib/libc.a(lib_a-realloc.o)
 .text.realloc  0x0000000000020b80       0x58 /home/louis/Documents/ps3/ps3toolchain/bin/ppu/lib/gcc/powerpc64-ps3-elf/7.2.0/../../../../powerpc64-ps3-elf/lib/libc.a(lib_a-realloc.o)
 .text          0x0000000000020bd8        0x0 /home/louis/Documents/ps3/ps3toolchain/bin/ppu/lib/gcc/powerpc64-ps3-elf/7.2.0/../../../../powerpc64-ps3-elf/lib/libc.a(lib_a-reallocr.o)
 .text._realloc_r
                0x0000000000020bd8      0x6c4 /home/louis/Documents/ps3/ps3toolchain/bin/ppu/lib/gcc/powerpc64-ps3-elf/7.2.0/../../../../powerpc64-ps3-elf/lib/libc.a(lib_a-reallocr.o)
 .text          0x000000000002129c        0x0 /home/louis/Documents/ps3/ps3toolchain/bin/ppu/lib/gcc/powerpc64-ps3-elf/7.2.0/../../../../powerpc64-ps3-elf/lib/libc.a(lib_a-sscanf.o)
 *fill*         0x000000000002129c        0x4 60000000
 .text.sscanf   0x00000000000212a0       0xa8 /home/louis/Documents/ps3/ps3toolchain/bin/ppu/lib/gcc/powerpc64-ps3-elf/7.2.0/../../../../powerpc64-ps3-elf/lib/libc.a(lib_a-sscanf.o)
 .text._sscanf_r
                0x0000000000021348       0xa8 /home/louis/Documents/ps3/ps3toolchain/bin/ppu/lib/gcc/powerpc64-ps3-elf/7.2.0/../../../../powerpc64-ps3-elf/lib/libc.a(lib_a-sscanf.o)
 .text          0x00000000000213f0        0x0 /home/louis/Documents/ps3/ps3toolchain/bin/ppu/lib/gcc/powerpc64-ps3-elf/7.2.0/../../../../powerpc64-ps3-elf/lib/libc.a(lib_a-stdio.o)
 .text.__sread  0x00000000000213f0       0x7c /home/louis/Documents/ps3/ps3toolchain/bin/ppu/lib/gcc/powerpc64-ps3-elf/7.2.0/../../../../powerpc64-ps3-elf/lib/libc.a(lib_a-stdio.o)
 *fill*         0x000000000002146c        0x4 60000000
 .text.__seofread
                0x0000000000021470       0x14 /home/louis/Documents/ps3/ps3toolchain/bin/ppu/lib/gcc/powerpc64-ps3-elf/7.2.0/../../../../powerpc64-ps3-elf/lib/libc.a(lib_a-stdio.o)
 *fill*         0x0000000000021484        0x4 60000000
 .text.__swrite
                0x0000000000021488       0xb0 /home/louis/Documents/ps3/ps3toolchain/bin/ppu/lib/gcc/powerpc64-ps3-elf/7.2.0/../../../../powerpc64-ps3-elf/lib/libc.a(lib_a-stdio.o)
 .text.__sseek  0x0000000000021538       0x78 /home/louis/Documents/ps3/ps3toolchain/bin/ppu/lib/gcc/powerpc64-ps3-elf/7.2.0/../../../../powerpc64-ps3-elf/lib/libc.a(lib_a-stdio.o)
 .text.__sclose
                0x00000000000215b0       0x38 /home/louis/Documents/ps3/ps3toolchain/bin/ppu/lib/gcc/powerpc64-ps3-elf/7.2.0/../../../../powerpc64-ps3-elf/lib/libc.a(lib_a-stdio.o)
 .text          0x00000000000215e8        0x0 /home/louis/Documents/ps3/ps3toolchain/bin/ppu/lib/gcc/powerpc64-ps3-elf/7.2.0/../../../../powerpc64-ps3-elf/lib/libc.a(lib_a-strcasecmp.o)
 .text.strcasecmp
                0x00000000000215e8       0x8c /home/louis/Documents/ps3/ps3toolchain/bin/ppu/lib/gcc/powerpc64-ps3-elf/7.2.0/../../../../powerpc64-ps3-elf/lib/libc.a(lib_a-strcasecmp.o)
 .text          0x0000000000021674        0x0 /home/louis/Documents/ps3/ps3toolchain/bin/ppu/lib/gcc/powerpc64-ps3-elf/7.2.0/../../../../powerpc64-ps3-elf/lib/libc.a(lib_a-strchr.o)
 *fill*         0x0000000000021674        0x4 60000000
 .text.strchr   0x0000000000021678      0x1c0 /home/louis/Documents/ps3/ps3toolchain/bin/ppu/lib/gcc/powerpc64-ps3-elf/7.2.0/../../../../powerpc64-ps3-elf/lib/libc.a(lib_a-strchr.o)
 .text          0x0000000000021838        0x0 /home/louis/Documents/ps3/ps3toolchain/bin/ppu/lib/gcc/powerpc64-ps3-elf/7.2.0/../../../../powerpc64-ps3-elf/lib/libc.a(lib_a-strcpy.o)
 .text.strcpy   0x0000000000021838       0xc0 /home/louis/Documents/ps3/ps3toolchain/bin/ppu/lib/gcc/powerpc64-ps3-elf/7.2.0/../../../../powerpc64-ps3-elf/lib/libc.a(lib_a-strcpy.o)
 .text          0x00000000000218f8        0x0 /home/louis/Documents/ps3/ps3toolchain/bin/ppu/lib/gcc/powerpc64-ps3-elf/7.2.0/../../../../powerpc64-ps3-elf/lib/libc.a(lib_a-strdup.o)
 .text.strdup   0x00000000000218f8       0x48 /home/louis/Documents/ps3/ps3toolchain/bin/ppu/lib/gcc/powerpc64-ps3-elf/7.2.0/../../../../powerpc64-ps3-elf/lib/libc.a(lib_a-strdup.o)
 .text          0x0000000000021940        0x0 /home/louis/Documents/ps3/ps3toolchain/bin/ppu/lib/gcc/powerpc64-ps3-elf/7.2.0/../../../../powerpc64-ps3-elf/lib/libc.a(lib_a-strdup_r.o)
 .text._strdup_r
                0x0000000000021940       0x88 /home/louis/Documents/ps3/ps3toolchain/bin/ppu/lib/gcc/powerpc64-ps3-elf/7.2.0/../../../../powerpc64-ps3-elf/lib/libc.a(lib_a-strdup_r.o)
 .text          0x00000000000219c8        0x0 /home/louis/Documents/ps3/ps3toolchain/bin/ppu/lib/gcc/powerpc64-ps3-elf/7.2.0/../../../../powerpc64-ps3-elf/lib/libc.a(lib_a-strerror.o)
 .text._strerror_r
                0x00000000000219c8      0x520 /home/louis/Documents/ps3/ps3toolchain/bin/ppu/lib/gcc/powerpc64-ps3-elf/7.2.0/../../../../powerpc64-ps3-elf/lib/libc.a(lib_a-strerror.o)
 .text.strerror
                0x0000000000021ee8       0x48 /home/louis/Documents/ps3/ps3toolchain/bin/ppu/lib/gcc/powerpc64-ps3-elf/7.2.0/../../../../powerpc64-ps3-elf/lib/libc.a(lib_a-strerror.o)
 .text          0x0000000000021f30        0x0 /home/louis/Documents/ps3/ps3toolchain/bin/ppu/lib/gcc/powerpc64-ps3-elf/7.2.0/../../../../powerpc64-ps3-elf/lib/libc.a(lib_a-strlen.o)
 .text.strlen   0x0000000000021f30       0xc4 /home/louis/Documents/ps3/ps3toolchain/bin/ppu/lib/gcc/powerpc64-ps3-elf/7.2.0/../../../../powerpc64-ps3-elf/lib/libc.a(lib_a-strlen.o)
 .text          0x0000000000021ff4        0x0 /home/louis/Documents/ps3/ps3toolchain/bin/ppu/lib/gcc/powerpc64-ps3-elf/7.2.0/../../../../powerpc64-ps3-elf/lib/libc.a(lib_a-strncat.o)
 *fill*         0x0000000000021ff4        0x4 60000000
 .text.strncat  0x0000000000021ff8       0xe0 /home/louis/Documents/ps3/ps3toolchain/bin/ppu/lib/gcc/powerpc64-ps3-elf/7.2.0/../../../../powerpc64-ps3-elf/lib/libc.a(lib_a-strncat.o)
 .text          0x00000000000220d8        0x0 /home/louis/Documents/ps3/ps3toolchain/bin/ppu/lib/gcc/powerpc64-ps3-elf/7.2.0/../../../../powerpc64-ps3-elf/lib/libc.a(lib_a-strncpy.o)
 .text.strncpy  0x00000000000220d8      0x118 /home/louis/Documents/ps3/ps3toolchain/bin/ppu/lib/gcc/powerpc64-ps3-elf/7.2.0/../../../../powerpc64-ps3-elf/lib/libc.a(lib_a-strncpy.o)
 .text          0x00000000000221f0        0x0 /home/louis/Documents/ps3/ps3toolchain/bin/ppu/lib/gcc/powerpc64-ps3-elf/7.2.0/../../../../powerpc64-ps3-elf/lib/libc.a(lib_a-svfscanf.o)
 .text.__ssvfscanf_r
                0x00000000000221f0     0x1864 /home/louis/Documents/ps3/ps3toolchain/bin/ppu/lib/gcc/powerpc64-ps3-elf/7.2.0/../../../../powerpc64-ps3-elf/lib/libc.a(lib_a-svfscanf.o)
 .text          0x0000000000023a54        0x0 /home/louis/Documents/ps3/ps3toolchain/bin/ppu/lib/gcc/powerpc64-ps3-elf/7.2.0/../../../../powerpc64-ps3-elf/lib/libc.a(lib_a-time.o)
 *fill*         0x0000000000023a54        0x4 60000000
 .text.time     0x0000000000023a58       0x6c /home/louis/Documents/ps3/ps3toolchain/bin/ppu/lib/gcc/powerpc64-ps3-elf/7.2.0/../../../../powerpc64-ps3-elf/lib/libc.a(lib_a-time.o)
 .text          0x0000000000023ac4        0x0 /home/louis/Documents/ps3/ps3toolchain/bin/ppu/lib/gcc/powerpc64-ps3-elf/7.2.0/../../../../powerpc64-ps3-elf/lib/libc.a(lib_a-u_strerr.o)
 *fill*         0x0000000000023ac4        0x4 60000000
 .text._user_strerror
                0x0000000000023ac8       0x14 /home/louis/Documents/ps3/ps3toolchain/bin/ppu/lib/gcc/powerpc64-ps3-elf/7.2.0/../../../../powerpc64-ps3-elf/lib/libc.a(lib_a-u_strerr.o)
 .text          0x0000000000023adc        0x0 /home/louis/Documents/ps3/ps3toolchain/bin/ppu/lib/gcc/powerpc64-ps3-elf/7.2.0/../../../../powerpc64-ps3-elf/lib/libc.a(lib_a-vfprintf.o)
 *fill*         0x0000000000023adc        0x4 60000000
 .text._vfprintf_r
                0x0000000000023ae0     0x2300 /home/louis/Documents/ps3/ps3toolchain/bin/ppu/lib/gcc/powerpc64-ps3-elf/7.2.0/../../../../powerpc64-ps3-elf/lib/libc.a(lib_a-vfprintf.o)
 .text.vfprintf
                0x0000000000025de0       0x60 /home/louis/Documents/ps3/ps3toolchain/bin/ppu/lib/gcc/powerpc64-ps3-elf/7.2.0/../../../../powerpc64-ps3-elf/lib/libc.a(lib_a-vfprintf.o)
 .text          0x0000000000025e40        0x0 /home/louis/Documents/ps3/ps3toolchain/bin/ppu/lib/gcc/powerpc64-ps3-elf/7.2.0/../../../../powerpc64-ps3-elf/lib/libc.a(lib_a-wsetup.o)
 .text.__swsetup_r
                0x0000000000025e40      0x1f0 /home/louis/Documents/ps3/ps3toolchain/bin/ppu/lib/gcc/powerpc64-ps3-elf/7.2.0/../../../../powerpc64-ps3-elf/lib/libc.a(lib_a-wsetup.o)
 .text          0x0000000000026030        0x0 /home/louis/Documents/ps3/ps3toolchain/bin/ppu/lib/gcc/powerpc64-ps3-elf/7.2.0/../../../../powerpc64-ps3-elf/lib/libc.a(lib_a-__atexit.o)
 .text.__register_exitproc
                0x0000000000026030      0x184 /home/louis/Documents/ps3/ps3toolchain/bin/ppu/lib/gcc/powerpc64-ps3-elf/7.2.0/../../../../powerpc64-ps3-elf/lib/libc.a(lib_a-__atexit.o)
 .text          0x00000000000261b4        0x0 /home/louis/Documents/ps3/ps3toolchain/bin/ppu/lib/gcc/powerpc64-ps3-elf/7.2.0/../../../../powerpc64-ps3-elf/lib/libc.a(lib_a-__call_atexit.o)
 *fill*         0x00000000000261b4        0x4 60000000
 .text.__call_exitprocs
                0x00000000000261b8      0x24c /home/louis/Documents/ps3/ps3toolchain/bin/ppu/lib/gcc/powerpc64-ps3-elf/7.2.0/../../../../powerpc64-ps3-elf/lib/libc.a(lib_a-__call_atexit.o)
 .text          0x0000000000026404        0x0 /home/louis/Documents/ps3/ps3toolchain/bin/ppu/lib/gcc/powerpc64-ps3-elf/7.2.0/../../../../powerpc64-ps3-elf/lib/libc.a(lib_a-ctype_.o)
 .text          0x0000000000026404        0x0 /home/louis/Documents/ps3/ps3toolchain/bin/ppu/lib/gcc/powerpc64-ps3-elf/7.2.0/../../../../powerpc64-ps3-elf/lib/libc.a(lib_a-dtoa.o)
 *fill*         0x0000000000026404        0x4 60000000
 .text.quorem   0x0000000000026408      0x26c /home/louis/Documents/ps3/ps3toolchain/bin/ppu/lib/gcc/powerpc64-ps3-elf/7.2.0/../../../../powerpc64-ps3-elf/lib/libc.a(lib_a-dtoa.o)
 *fill*         0x0000000000026674        0x4 60000000
 .text._dtoa_r  0x0000000000026678     0x1478 /home/louis/Documents/ps3/ps3toolchain/bin/ppu/lib/gcc/powerpc64-ps3-elf/7.2.0/../../../../powerpc64-ps3-elf/lib/libc.a(lib_a-dtoa.o)
 .text          0x0000000000027af0        0x0 /home/louis/Documents/ps3/ps3toolchain/bin/ppu/lib/gcc/powerpc64-ps3-elf/7.2.0/../../../../powerpc64-ps3-elf/lib/libc.a(lib_a-fflush.o)
 .text.__sflush_r
                0x0000000000027af0      0x3d0 /home/louis/Documents/ps3/ps3toolchain/bin/ppu/lib/gcc/powerpc64-ps3-elf/7.2.0/../../../../powerpc64-ps3-elf/lib/libc.a(lib_a-fflush.o)
 .text._fflush_r
                0x0000000000027ec0      0x124 /home/louis/Documents/ps3/ps3toolchain/bin/ppu/lib/gcc/powerpc64-ps3-elf/7.2.0/../../../../powerpc64-ps3-elf/lib/libc.a(lib_a-fflush.o)
 *fill*         0x0000000000027fe4        0x4 60000000
 .text.fflush   0x0000000000027fe8       0x70 /home/louis/Documents/ps3/ps3toolchain/bin/ppu/lib/gcc/powerpc64-ps3-elf/7.2.0/../../../../powerpc64-ps3-elf/lib/libc.a(lib_a-fflush.o)
 .text          0x0000000000028058        0x0 /home/louis/Documents/ps3/ps3toolchain/bin/ppu/lib/gcc/powerpc64-ps3-elf/7.2.0/../../../../powerpc64-ps3-elf/lib/libc.a(lib_a-findfp.o)
 .text._cleanup_r
                0x0000000000028058       0x34 /home/louis/Documents/ps3/ps3toolchain/bin/ppu/lib/gcc/powerpc64-ps3-elf/7.2.0/../../../../powerpc64-ps3-elf/lib/libc.a(lib_a-findfp.o)
 *fill*         0x000000000002808c        0x4 60000000
 .text.__fp_lock
                0x0000000000028090       0x50 /home/louis/Documents/ps3/ps3toolchain/bin/ppu/lib/gcc/powerpc64-ps3-elf/7.2.0/../../../../powerpc64-ps3-elf/lib/libc.a(lib_a-findfp.o)
 .text.__fp_unlock
                0x00000000000280e0       0x50 /home/louis/Documents/ps3/ps3toolchain/bin/ppu/lib/gcc/powerpc64-ps3-elf/7.2.0/../../../../powerpc64-ps3-elf/lib/libc.a(lib_a-findfp.o)
 .text.std.isra.0
                0x0000000000028130       0x9c /home/louis/Documents/ps3/ps3toolchain/bin/ppu/lib/gcc/powerpc64-ps3-elf/7.2.0/../../../../powerpc64-ps3-elf/lib/libc.a(lib_a-findfp.o)
 *fill*         0x00000000000281cc        0x4 60000000
 .text.__sfmoreglue
                0x00000000000281d0       0x88 /home/louis/Documents/ps3/ps3toolchain/bin/ppu/lib/gcc/powerpc64-ps3-elf/7.2.0/../../../../powerpc64-ps3-elf/lib/libc.a(lib_a-findfp.o)
 .text._cleanup
                0x0000000000028258       0x3c /home/louis/Documents/ps3/ps3toolchain/bin/ppu/lib/gcc/powerpc64-ps3-elf/7.2.0/../../../../powerpc64-ps3-elf/lib/libc.a(lib_a-findfp.o)
 *fill*         0x0000000000028294        0x4 60000000
 .text.__sinit  0x0000000000028298       0xbc /home/louis/Documents/ps3/ps3toolchain/bin/ppu/lib/gcc/powerpc64-ps3-elf/7.2.0/../../../../powerpc64-ps3-elf/lib/libc.a(lib_a-findfp.o)
 *fill*         0x0000000000028354        0x4 60000000
 .text.__sfp    0x0000000000028358      0x190 /home/louis/Documents/ps3/ps3toolchain/bin/ppu/lib/gcc/powerpc64-ps3-elf/7.2.0/../../../../powerpc64-ps3-elf/lib/libc.a(lib_a-findfp.o)
 .text.__sfp_lock_acquire
                0x00000000000284e8       0x34 /home/louis/Documents/ps3/ps3toolchain/bin/ppu/lib/gcc/powerpc64-ps3-elf/7.2.0/../../../../powerpc64-ps3-elf/lib/libc.a(lib_a-findfp.o)
 *fill*         0x000000000002851c        0x4 60000000
 .text.__sfp_lock_release
                0x0000000000028520       0x34 /home/louis/Documents/ps3/ps3toolchain/bin/ppu/lib/gcc/powerpc64-ps3-elf/7.2.0/../../../../powerpc64-ps3-elf/lib/libc.a(lib_a-findfp.o)
 *fill*         0x0000000000028554        0x4 60000000
 .text.__sinit_lock_acquire
                0x0000000000028558       0x34 /home/louis/Documents/ps3/ps3toolchain/bin/ppu/lib/gcc/powerpc64-ps3-elf/7.2.0/../../../../powerpc64-ps3-elf/lib/libc.a(lib_a-findfp.o)
 *fill*         0x000000000002858c        0x4 60000000
 .text.__sinit_lock_release
                0x0000000000028590       0x34 /home/louis/Documents/ps3/ps3toolchain/bin/ppu/lib/gcc/powerpc64-ps3-elf/7.2.0/../../../../powerpc64-ps3-elf/lib/libc.a(lib_a-findfp.o)
 *fill*         0x00000000000285c4        0x4 60000000
 .text.__fp_lock_all
                0x00000000000285c8       0x48 /home/louis/Documents/ps3/ps3toolchain/bin/ppu/lib/gcc/powerpc64-ps3-elf/7.2.0/../../../../powerpc64-ps3-elf/lib/libc.a(lib_a-findfp.o)
 .text.__fp_unlock_all
                0x0000000000028610       0x48 /home/louis/Documents/ps3/ps3toolchain/bin/ppu/lib/gcc/powerpc64-ps3-elf/7.2.0/../../../../powerpc64-ps3-elf/lib/libc.a(lib_a-findfp.o)
 .text          0x0000000000028658        0x0 /home/louis/Documents/ps3/ps3toolchain/bin/ppu/lib/gcc/powerpc64-ps3-elf/7.2.0/../../../../powerpc64-ps3-elf/lib/libc.a(lib_a-fputc.o)
 .text._fputc_r
                0x0000000000028658       0xd4 /home/louis/Documents/ps3/ps3toolchain/bin/ppu/lib/gcc/powerpc64-ps3-elf/7.2.0/../../../../powerpc64-ps3-elf/lib/libc.a(lib_a-fputc.o)
 *fill*         0x000000000002872c        0x4 60000000
 .text.fputc    0x0000000000028730       0xd8 /home/louis/Documents/ps3/ps3toolchain/bin/ppu/lib/gcc/powerpc64-ps3-elf/7.2.0/../../../../powerpc64-ps3-elf/lib/libc.a(lib_a-fputc.o)
 .text          0x0000000000028808        0x0 /home/louis/Documents/ps3/ps3toolchain/bin/ppu/lib/gcc/powerpc64-ps3-elf/7.2.0/../../../../powerpc64-ps3-elf/lib/libc.a(lib_a-fputs.o)
 .text._fputs_r
                0x0000000000028808      0x134 /home/louis/Documents/ps3/ps3toolchain/bin/ppu/lib/gcc/powerpc64-ps3-elf/7.2.0/../../../../powerpc64-ps3-elf/lib/libc.a(lib_a-fputs.o)
 *fill*         0x000000000002893c        0x4 60000000
 .text.fputs    0x0000000000028940       0x50 /home/louis/Documents/ps3/ps3toolchain/bin/ppu/lib/gcc/powerpc64-ps3-elf/7.2.0/../../../../powerpc64-ps3-elf/lib/libc.a(lib_a-fputs.o)
 .text          0x0000000000028990        0x0 /home/louis/Documents/ps3/ps3toolchain/bin/ppu/lib/gcc/powerpc64-ps3-elf/7.2.0/../../../../powerpc64-ps3-elf/lib/libc.a(lib_a-freer.o)
 .text._malloc_trim_r
                0x0000000000028990      0x15c /home/louis/Documents/ps3/ps3toolchain/bin/ppu/lib/gcc/powerpc64-ps3-elf/7.2.0/../../../../powerpc64-ps3-elf/lib/libc.a(lib_a-freer.o)
 *fill*         0x0000000000028aec        0x4 60000000
 .text._free_r  0x0000000000028af0      0x3b0 /home/louis/Documents/ps3/ps3toolchain/bin/ppu/lib/gcc/powerpc64-ps3-elf/7.2.0/../../../../powerpc64-ps3-elf/lib/libc.a(lib_a-freer.o)
 .text          0x0000000000028ea0        0x0 /home/louis/Documents/ps3/ps3toolchain/bin/ppu/lib/gcc/powerpc64-ps3-elf/7.2.0/../../../../powerpc64-ps3-elf/lib/libc.a(lib_a-fvwrite.o)
 .text.__sfvwrite_r
                0x0000000000028ea0      0x688 /home/louis/Documents/ps3/ps3toolchain/bin/ppu/lib/gcc/powerpc64-ps3-elf/7.2.0/../../../../powerpc64-ps3-elf/lib/libc.a(lib_a-fvwrite.o)
 .text          0x0000000000029528        0x0 /home/louis/Documents/ps3/ps3toolchain/bin/ppu/lib/gcc/powerpc64-ps3-elf/7.2.0/../../../../powerpc64-ps3-elf/lib/libc.a(lib_a-fwalk.o)
 .text._fwalk   0x0000000000029528      0x100 /home/louis/Documents/ps3/ps3toolchain/bin/ppu/lib/gcc/powerpc64-ps3-elf/7.2.0/../../../../powerpc64-ps3-elf/lib/libc.a(lib_a-fwalk.o)
 .text._fwalk_reent
                0x0000000000029628      0x110 /home/louis/Documents/ps3/ps3toolchain/bin/ppu/lib/gcc/powerpc64-ps3-elf/7.2.0/../../../../powerpc64-ps3-elf/lib/libc.a(lib_a-fwalk.o)
 .text          0x0000000000029738        0x0 /home/louis/Documents/ps3/ps3toolchain/bin/ppu/lib/gcc/powerpc64-ps3-elf/7.2.0/../../../../powerpc64-ps3-elf/lib/libc.a(lib_a-iswspace.o)
 .text.iswspace
                0x0000000000029738       0x3c /home/louis/Documents/ps3/ps3toolchain/bin/ppu/lib/gcc/powerpc64-ps3-elf/7.2.0/../../../../powerpc64-ps3-elf/lib/libc.a(lib_a-iswspace.o)
 .text          0x0000000000029774        0x0 /home/louis/Documents/ps3/ps3toolchain/bin/ppu/lib/gcc/powerpc64-ps3-elf/7.2.0/../../../../powerpc64-ps3-elf/lib/libc.a(lib_a-locale.o)
 *fill*         0x0000000000029774        0x4 60000000
 .text._setlocale_r
                0x0000000000029778       0xb4 /home/louis/Documents/ps3/ps3toolchain/bin/ppu/lib/gcc/powerpc64-ps3-elf/7.2.0/../../../../powerpc64-ps3-elf/lib/libc.a(lib_a-locale.o)
 *fill*         0x000000000002982c        0x4 60000000
 .text.__locale_charset
                0x0000000000029830       0x14 /home/louis/Documents/ps3/ps3toolchain/bin/ppu/lib/gcc/powerpc64-ps3-elf/7.2.0/../../../../powerpc64-ps3-elf/lib/libc.a(lib_a-locale.o)
 *fill*         0x0000000000029844        0x4 60000000
 .text.__locale_mb_cur_max
                0x0000000000029848       0x1c /home/louis/Documents/ps3/ps3toolchain/bin/ppu/lib/gcc/powerpc64-ps3-elf/7.2.0/../../../../powerpc64-ps3-elf/lib/libc.a(lib_a-locale.o)
 *fill*         0x0000000000029864        0x4 60000000
 .text.__locale_msgcharset
                0x0000000000029868       0x14 /home/louis/Documents/ps3/ps3toolchain/bin/ppu/lib/gcc/powerpc64-ps3-elf/7.2.0/../../../../powerpc64-ps3-elf/lib/libc.a(lib_a-locale.o)
 *fill*         0x000000000002987c        0x4 60000000
 .text.__locale_cjk_lang
                0x0000000000029880       0x14 /home/louis/Documents/ps3/ps3toolchain/bin/ppu/lib/gcc/powerpc64-ps3-elf/7.2.0/../../../../powerpc64-ps3-elf/lib/libc.a(lib_a-locale.o)
 *fill*         0x0000000000029894        0x4 60000000
 .text._localeconv_r
                0x0000000000029898       0x14 /home/louis/Documents/ps3/ps3toolchain/bin/ppu/lib/gcc/powerpc64-ps3-elf/7.2.0/../../../../powerpc64-ps3-elf/lib/libc.a(lib_a-locale.o)
 *fill*         0x00000000000298ac        0x4 60000000
 .text.setlocale
                0x00000000000298b0       0x50 /home/louis/Documents/ps3/ps3toolchain/bin/ppu/lib/gcc/powerpc64-ps3-elf/7.2.0/../../../../powerpc64-ps3-elf/lib/libc.a(lib_a-locale.o)
 .text.localeconv
                0x0000000000029900       0x34 /home/louis/Documents/ps3/ps3toolchain/bin/ppu/lib/gcc/powerpc64-ps3-elf/7.2.0/../../../../powerpc64-ps3-elf/lib/libc.a(lib_a-locale.o)
 .text          0x0000000000029934        0x0 /home/louis/Documents/ps3/ps3toolchain/bin/ppu/lib/gcc/powerpc64-ps3-elf/7.2.0/../../../../powerpc64-ps3-elf/lib/libc.a(lib_a-lock_recursive.o)
 *fill*         0x0000000000029934        0x4 60000000
 .text.__libc_lock_init_recursive
                0x0000000000029938       0x34 /home/louis/Documents/ps3/ps3toolchain/bin/ppu/lib/gcc/powerpc64-ps3-elf/7.2.0/../../../../powerpc64-ps3-elf/lib/libc.a(lib_a-lock_recursive.o)
 *fill*         0x000000000002996c        0x4 60000000
 .text.__libc_lock_close_recursive
                0x0000000000029970       0x30 /home/louis/Documents/ps3/ps3toolchain/bin/ppu/lib/gcc/powerpc64-ps3-elf/7.2.0/../../../../powerpc64-ps3-elf/lib/libc.a(lib_a-lock_recursive.o)
 .text.__libc_lock_acquire_recursive
                0x00000000000299a0       0x58 /home/louis/Documents/ps3/ps3toolchain/bin/ppu/lib/gcc/powerpc64-ps3-elf/7.2.0/../../../../powerpc64-ps3-elf/lib/libc.a(lib_a-lock_recursive.o)
 .text.__libc_lock_try_acquire_recursive
                0x00000000000299f8       0x54 /home/louis/Documents/ps3/ps3toolchain/bin/ppu/lib/gcc/powerpc64-ps3-elf/7.2.0/../../../../powerpc64-ps3-elf/lib/libc.a(lib_a-lock_recursive.o)
 *fill*         0x0000000000029a4c        0x4 60000000
 .text.__libc_lock_release_recursive
                0x0000000000029a50       0x54 /home/louis/Documents/ps3/ps3toolchain/bin/ppu/lib/gcc/powerpc64-ps3-elf/7.2.0/../../../../powerpc64-ps3-elf/lib/libc.a(lib_a-lock_recursive.o)
 .text          0x0000000000029aa4        0x0 /home/louis/Documents/ps3/ps3toolchain/bin/ppu/lib/gcc/powerpc64-ps3-elf/7.2.0/../../../../powerpc64-ps3-elf/lib/libc.a(lib_a-makebuf.o)
 *fill*         0x0000000000029aa4        0x4 60000000
 .text.__smakebuf_r
                0x0000000000029aa8      0x1f4 /home/louis/Documents/ps3/ps3toolchain/bin/ppu/lib/gcc/powerpc64-ps3-elf/7.2.0/../../../../powerpc64-ps3-elf/lib/libc.a(lib_a-makebuf.o)
 .text          0x0000000000029c9c        0x0 /home/louis/Documents/ps3/ps3toolchain/bin/ppu/lib/gcc/powerpc64-ps3-elf/7.2.0/../../../../powerpc64-ps3-elf/lib/libc.a(lib_a-mbrtowc.o)
 *fill*         0x0000000000029c9c        0x4 60000000
 .text._mbrtowc_r
                0x0000000000029ca0      0x128 /home/louis/Documents/ps3/ps3toolchain/bin/ppu/lib/gcc/powerpc64-ps3-elf/7.2.0/../../../../powerpc64-ps3-elf/lib/libc.a(lib_a-mbrtowc.o)
 .text.mbrtowc  0x0000000000029dc8      0x164 /home/louis/Documents/ps3/ps3toolchain/bin/ppu/lib/gcc/powerpc64-ps3-elf/7.2.0/../../../../powerpc64-ps3-elf/lib/libc.a(lib_a-mbrtowc.o)
 .text          0x0000000000029f2c        0x0 /home/louis/Documents/ps3/ps3toolchain/bin/ppu/lib/gcc/powerpc64-ps3-elf/7.2.0/../../../../powerpc64-ps3-elf/lib/libc.a(lib_a-mbtowc_r.o)
 *fill*         0x0000000000029f2c        0x4 60000000
 .text.__ascii_mbtowc
                0x0000000000029f30       0x64 /home/louis/Documents/ps3/ps3toolchain/bin/ppu/lib/gcc/powerpc64-ps3-elf/7.2.0/../../../../powerpc64-ps3-elf/lib/libc.a(lib_a-mbtowc_r.o)
 *fill*         0x0000000000029f94        0x4 60000000
 .text._mbtowc_r
                0x0000000000029f98       0x98 /home/louis/Documents/ps3/ps3toolchain/bin/ppu/lib/gcc/powerpc64-ps3-elf/7.2.0/../../../../powerpc64-ps3-elf/lib/libc.a(lib_a-mbtowc_r.o)
 .text          0x000000000002a030        0x0 /home/louis/Documents/ps3/ps3toolchain/bin/ppu/lib/gcc/powerpc64-ps3-elf/7.2.0/../../../../powerpc64-ps3-elf/lib/libc.a(lib_a-memchr.o)
 .text.memchr   0x000000000002a030      0x130 /home/louis/Documents/ps3/ps3toolchain/bin/ppu/lib/gcc/powerpc64-ps3-elf/7.2.0/../../../../powerpc64-ps3-elf/lib/libc.a(lib_a-memchr.o)
 .text          0x000000000002a160        0x0 /home/louis/Documents/ps3/ps3toolchain/bin/ppu/lib/gcc/powerpc64-ps3-elf/7.2.0/../../../../powerpc64-ps3-elf/lib/libc.a(lib_a-memmove.o)
 .text.memmove  0x000000000002a160      0x154 /home/louis/Documents/ps3/ps3toolchain/bin/ppu/lib/gcc/powerpc64-ps3-elf/7.2.0/../../../../powerpc64-ps3-elf/lib/libc.a(lib_a-memmove.o)
 .text          0x000000000002a2b4        0x0 /home/louis/Documents/ps3/ps3toolchain/bin/ppu/lib/gcc/powerpc64-ps3-elf/7.2.0/../../../../powerpc64-ps3-elf/lib/libc.a(lib_a-mprec.o)
 *fill*         0x000000000002a2b4        0x4 60000000
 .text._Balloc  0x000000000002a2b8       0xfc /home/louis/Documents/ps3/ps3toolchain/bin/ppu/lib/gcc/powerpc64-ps3-elf/7.2.0/../../../../powerpc64-ps3-elf/lib/libc.a(lib_a-mprec.o)
 *fill*         0x000000000002a3b4        0x4 60000000
 .text._Bfree   0x000000000002a3b8       0x34 /home/louis/Documents/ps3/ps3toolchain/bin/ppu/lib/gcc/powerpc64-ps3-elf/7.2.0/../../../../powerpc64-ps3-elf/lib/libc.a(lib_a-mprec.o)
 *fill*         0x000000000002a3ec        0x4 60000000
 .text.__multadd
                0x000000000002a3f0      0x164 /home/louis/Documents/ps3/ps3toolchain/bin/ppu/lib/gcc/powerpc64-ps3-elf/7.2.0/../../../../powerpc64-ps3-elf/lib/libc.a(lib_a-mprec.o)
 *fill*         0x000000000002a554        0x4 60000000
 .text.__s2b    0x000000000002a558      0x174 /home/louis/Documents/ps3/ps3toolchain/bin/ppu/lib/gcc/powerpc64-ps3-elf/7.2.0/../../../../powerpc64-ps3-elf/lib/libc.a(lib_a-mprec.o)
 *fill*         0x000000000002a6cc        0x4 60000000
 .text.__hi0bits
                0x000000000002a6d0       0x9c /home/louis/Documents/ps3/ps3toolchain/bin/ppu/lib/gcc/powerpc64-ps3-elf/7.2.0/../../../../powerpc64-ps3-elf/lib/libc.a(lib_a-mprec.o)
 *fill*         0x000000000002a76c        0x4 60000000
 .text.__lo0bits
                0x000000000002a770       0xf4 /home/louis/Documents/ps3/ps3toolchain/bin/ppu/lib/gcc/powerpc64-ps3-elf/7.2.0/../../../../powerpc64-ps3-elf/lib/libc.a(lib_a-mprec.o)
 *fill*         0x000000000002a864        0x4 60000000
 .text.__i2b    0x000000000002a868       0x48 /home/louis/Documents/ps3/ps3toolchain/bin/ppu/lib/gcc/powerpc64-ps3-elf/7.2.0/../../../../powerpc64-ps3-elf/lib/libc.a(lib_a-mprec.o)
 .text.__multiply
                0x000000000002a8b0      0x2a8 /home/louis/Documents/ps3/ps3toolchain/bin/ppu/lib/gcc/powerpc64-ps3-elf/7.2.0/../../../../powerpc64-ps3-elf/lib/libc.a(lib_a-mprec.o)
 .text.__pow5mult
                0x000000000002ab58      0x19c /home/louis/Documents/ps3/ps3toolchain/bin/ppu/lib/gcc/powerpc64-ps3-elf/7.2.0/../../../../powerpc64-ps3-elf/lib/libc.a(lib_a-mprec.o)
 *fill*         0x000000000002acf4        0x4 60000000
 .text.__lshift
                0x000000000002acf8      0x1c0 /home/louis/Documents/ps3/ps3toolchain/bin/ppu/lib/gcc/powerpc64-ps3-elf/7.2.0/../../../../powerpc64-ps3-elf/lib/libc.a(lib_a-mprec.o)
 .text.__mcmp   0x000000000002aeb8       0x70 /home/louis/Documents/ps3/ps3toolchain/bin/ppu/lib/gcc/powerpc64-ps3-elf/7.2.0/../../../../powerpc64-ps3-elf/lib/libc.a(lib_a-mprec.o)
 .text.__mdiff  0x000000000002af28      0x244 /home/louis/Documents/ps3/ps3toolchain/bin/ppu/lib/gcc/powerpc64-ps3-elf/7.2.0/../../../../powerpc64-ps3-elf/lib/libc.a(lib_a-mprec.o)
 *fill*         0x000000000002b16c        0x4 60000000
 .text.__ulp    0x000000000002b170       0x88 /home/louis/Documents/ps3/ps3toolchain/bin/ppu/lib/gcc/powerpc64-ps3-elf/7.2.0/../../../../powerpc64-ps3-elf/lib/libc.a(lib_a-mprec.o)
 .text.__b2d    0x000000000002b1f8      0x1a4 /home/louis/Documents/ps3/ps3toolchain/bin/ppu/lib/gcc/powerpc64-ps3-elf/7.2.0/../../../../powerpc64-ps3-elf/lib/libc.a(lib_a-mprec.o)
 *fill*         0x000000000002b39c        0x4 60000000
 .text.__d2b    0x000000000002b3a0      0x1ac /home/louis/Documents/ps3/ps3toolchain/bin/ppu/lib/gcc/powerpc64-ps3-elf/7.2.0/../../../../powerpc64-ps3-elf/lib/libc.a(lib_a-mprec.o)
 *fill*         0x000000000002b54c        0x4 60000000
 .text.__ratio  0x000000000002b550       0xe8 /home/louis/Documents/ps3/ps3toolchain/bin/ppu/lib/gcc/powerpc64-ps3-elf/7.2.0/../../../../powerpc64-ps3-elf/lib/libc.a(lib_a-mprec.o)
 .text._mprec_log10
                0x000000000002b638       0x54 /home/louis/Documents/ps3/ps3toolchain/bin/ppu/lib/gcc/powerpc64-ps3-elf/7.2.0/../../../../powerpc64-ps3-elf/lib/libc.a(lib_a-mprec.o)
 *fill*         0x000000000002b68c        0x4 60000000
 .text.__copybits
                0x000000000002b690       0xa0 /home/louis/Documents/ps3/ps3toolchain/bin/ppu/lib/gcc/powerpc64-ps3-elf/7.2.0/../../../../powerpc64-ps3-elf/lib/libc.a(lib_a-mprec.o)
 .text.__any_on
                0x000000000002b730       0xac /home/louis/Documents/ps3/ps3toolchain/bin/ppu/lib/gcc/powerpc64-ps3-elf/7.2.0/../../../../powerpc64-ps3-elf/lib/libc.a(lib_a-mprec.o)
 .text          0x000000000002b7dc        0x0 /home/louis/Documents/ps3/ps3toolchain/bin/ppu/lib/gcc/powerpc64-ps3-elf/7.2.0/../../../../powerpc64-ps3-elf/lib/libc.a(lib_a-putc.o)
 *fill*         0x000000000002b7dc        0x4 60000000
 .text._putc_r  0x000000000002b7e0      0x168 /home/louis/Documents/ps3/ps3toolchain/bin/ppu/lib/gcc/powerpc64-ps3-elf/7.2.0/../../../../powerpc64-ps3-elf/lib/libc.a(lib_a-putc.o)
 .text.putc     0x000000000002b948      0x164 /home/louis/Documents/ps3/ps3toolchain/bin/ppu/lib/gcc/powerpc64-ps3-elf/7.2.0/../../../../powerpc64-ps3-elf/lib/libc.a(lib_a-putc.o)
 .text          0x000000000002baac        0x0 /home/louis/Documents/ps3/ps3toolchain/bin/ppu/lib/gcc/powerpc64-ps3-elf/7.2.0/../../../../powerpc64-ps3-elf/lib/libc.a(lib_a-sccl.o)
 *fill*         0x000000000002baac        0x4 60000000
 .text.__sccl   0x000000000002bab0      0x120 /home/louis/Documents/ps3/ps3toolchain/bin/ppu/lib/gcc/powerpc64-ps3-elf/7.2.0/../../../../powerpc64-ps3-elf/lib/libc.a(lib_a-sccl.o)
 .text          0x000000000002bbd0        0x0 /home/louis/Documents/ps3/ps3toolchain/bin/ppu/lib/gcc/powerpc64-ps3-elf/7.2.0/../../../../powerpc64-ps3-elf/lib/libc.a(lib_a-sf_nan.o)
 .text.nanf     0x000000000002bbd0       0x18 /home/louis/Documents/ps3/ps3toolchain/bin/ppu/lib/gcc/powerpc64-ps3-elf/7.2.0/../../../../powerpc64-ps3-elf/lib/libc.a(lib_a-sf_nan.o)
 .text          0x000000000002bbe8        0x0 /home/louis/Documents/ps3/ps3toolchain/bin/ppu/lib/gcc/powerpc64-ps3-elf/7.2.0/../../../../powerpc64-ps3-elf/lib/libc.a(lib_a-s_fpclassify.o)
 .text.__fpclassifyd
                0x000000000002bbe8       0xb8 /home/louis/Documents/ps3/ps3toolchain/bin/ppu/lib/gcc/powerpc64-ps3-elf/7.2.0/../../../../powerpc64-ps3-elf/lib/libc.a(lib_a-s_fpclassify.o)
 .text          0x000000000002bca0        0x0 /home/louis/Documents/ps3/ps3toolchain/bin/ppu/lib/gcc/powerpc64-ps3-elf/7.2.0/../../../../powerpc64-ps3-elf/lib/libc.a(lib_a-sprintf.o)
 .text._sprintf_r
                0x000000000002bca0       0x84 /home/louis/Documents/ps3/ps3toolchain/bin/ppu/lib/gcc/powerpc64-ps3-elf/7.2.0/../../../../powerpc64-ps3-elf/lib/libc.a(lib_a-sprintf.o)
 *fill*         0x000000000002bd24        0x4 60000000
 .text.sprintf  0x000000000002bd28       0xa0 /home/louis/Documents/ps3/ps3toolchain/bin/ppu/lib/gcc/powerpc64-ps3-elf/7.2.0/../../../../powerpc64-ps3-elf/lib/libc.a(lib_a-sprintf.o)
 .text          0x000000000002bdc8        0x0 /home/louis/Documents/ps3/ps3toolchain/bin/ppu/lib/gcc/powerpc64-ps3-elf/7.2.0/../../../../powerpc64-ps3-elf/lib/libc.a(lib_a-strcmp.o)
 .text.strcmp   0x000000000002bdc8       0xf4 /home/louis/Documents/ps3/ps3toolchain/bin/ppu/lib/gcc/powerpc64-ps3-elf/7.2.0/../../../../powerpc64-ps3-elf/lib/libc.a(lib_a-strcmp.o)
 .text          0x000000000002bebc        0x0 /home/louis/Documents/ps3/ps3toolchain/bin/ppu/lib/gcc/powerpc64-ps3-elf/7.2.0/../../../../powerpc64-ps3-elf/lib/libc.a(lib_a-strtod.o)
 *fill*         0x000000000002bebc        0x4 60000000
 .text._strtod_r
                0x000000000002bec0     0x1630 /home/louis/Documents/ps3/ps3toolchain/bin/ppu/lib/gcc/powerpc64-ps3-elf/7.2.0/../../../../powerpc64-ps3-elf/lib/libc.a(lib_a-strtod.o)
 .text.strtod   0x000000000002d4f0       0x50 /home/louis/Documents/ps3/ps3toolchain/bin/ppu/lib/gcc/powerpc64-ps3-elf/7.2.0/../../../../powerpc64-ps3-elf/lib/libc.a(lib_a-strtod.o)
 .text.strtof   0x000000000002d540       0x98 /home/louis/Documents/ps3/ps3toolchain/bin/ppu/lib/gcc/powerpc64-ps3-elf/7.2.0/../../../../powerpc64-ps3-elf/lib/libc.a(lib_a-strtod.o)
 .text          0x000000000002d5d8        0x0 /home/louis/Documents/ps3/ps3toolchain/bin/ppu/lib/gcc/powerpc64-ps3-elf/7.2.0/../../../../powerpc64-ps3-elf/lib/libc.a(lib_a-strtoll_r.o)
 .text._strtoll_r
                0x000000000002d5d8      0x264 /home/louis/Documents/ps3/ps3toolchain/bin/ppu/lib/gcc/powerpc64-ps3-elf/7.2.0/../../../../powerpc64-ps3-elf/lib/libc.a(lib_a-strtoll_r.o)
 .text          0x000000000002d83c        0x0 /home/louis/Documents/ps3/ps3toolchain/bin/ppu/lib/gcc/powerpc64-ps3-elf/7.2.0/../../../../powerpc64-ps3-elf/lib/libc.a(lib_a-strtol.o)
 *fill*         0x000000000002d83c        0x4 60000000
 .text._strtol_r
                0x000000000002d840      0x264 /home/louis/Documents/ps3/ps3toolchain/bin/ppu/lib/gcc/powerpc64-ps3-elf/7.2.0/../../../../powerpc64-ps3-elf/lib/libc.a(lib_a-strtol.o)
 *fill*         0x000000000002daa4        0x4 60000000
 .text.strtol   0x000000000002daa8       0x60 /home/louis/Documents/ps3/ps3toolchain/bin/ppu/lib/gcc/powerpc64-ps3-elf/7.2.0/../../../../powerpc64-ps3-elf/lib/libc.a(lib_a-strtol.o)
 .text          0x000000000002db08        0x0 /home/louis/Documents/ps3/ps3toolchain/bin/ppu/lib/gcc/powerpc64-ps3-elf/7.2.0/../../../../powerpc64-ps3-elf/lib/libc.a(lib_a-strtoull_r.o)
 .text._strtoull_r
                0x000000000002db08      0x268 /home/louis/Documents/ps3/ps3toolchain/bin/ppu/lib/gcc/powerpc64-ps3-elf/7.2.0/../../../../powerpc64-ps3-elf/lib/libc.a(lib_a-strtoull_r.o)
 .text          0x000000000002dd70        0x0 /home/louis/Documents/ps3/ps3toolchain/bin/ppu/lib/gcc/powerpc64-ps3-elf/7.2.0/../../../../powerpc64-ps3-elf/lib/libc.a(lib_a-strtoul.o)
 .text._strtoul_r
                0x000000000002dd70      0x268 /home/louis/Documents/ps3/ps3toolchain/bin/ppu/lib/gcc/powerpc64-ps3-elf/7.2.0/../../../../powerpc64-ps3-elf/lib/libc.a(lib_a-strtoul.o)
 .text.strtoul  0x000000000002dfd8       0x60 /home/louis/Documents/ps3/ps3toolchain/bin/ppu/lib/gcc/powerpc64-ps3-elf/7.2.0/../../../../powerpc64-ps3-elf/lib/libc.a(lib_a-strtoul.o)
 .text          0x000000000002e038        0x0 /home/louis/Documents/ps3/ps3toolchain/bin/ppu/lib/gcc/powerpc64-ps3-elf/7.2.0/../../../../powerpc64-ps3-elf/lib/libc.a(lib_a-svfiscanf.o)
 .text._sungetc_r
                0x000000000002e038      0x154 /home/louis/Documents/ps3/ps3toolchain/bin/ppu/lib/gcc/powerpc64-ps3-elf/7.2.0/../../../../powerpc64-ps3-elf/lib/libc.a(lib_a-svfiscanf.o)
 *fill*         0x000000000002e18c        0x4 60000000
 .text.__ssrefill_r
                0x000000000002e190       0xa0 /home/louis/Documents/ps3/ps3toolchain/bin/ppu/lib/gcc/powerpc64-ps3-elf/7.2.0/../../../../powerpc64-ps3-elf/lib/libc.a(lib_a-svfiscanf.o)
 .text._sfread_r
                0x000000000002e230      0x130 /home/louis/Documents/ps3/ps3toolchain/bin/ppu/lib/gcc/powerpc64-ps3-elf/7.2.0/../../../../powerpc64-ps3-elf/lib/libc.a(lib_a-svfiscanf.o)
 .text.__ssvfiscanf_r
                0x000000000002e360     0x118c /home/louis/Documents/ps3/ps3toolchain/bin/ppu/lib/gcc/powerpc64-ps3-elf/7.2.0/../../../../powerpc64-ps3-elf/lib/libc.a(lib_a-svfiscanf.o)
 .text          0x000000000002f4ec        0x0 /home/louis/Documents/ps3/ps3toolchain/bin/ppu/lib/gcc/powerpc64-ps3-elf/7.2.0/../../../../powerpc64-ps3-elf/lib/libc.a(lib_a-svfprintf.o)
 *fill*         0x000000000002f4ec        0x4 60000000
 .text._svfprintf_r
                0x000000000002f4f0     0x21c4 /home/louis/Documents/ps3/ps3toolchain/bin/ppu/lib/gcc/powerpc64-ps3-elf/7.2.0/../../../../powerpc64-ps3-elf/lib/libc.a(lib_a-svfprintf.o)
 .text          0x00000000000316b4        0x0 /home/louis/Documents/ps3/ps3toolchain/bin/ppu/lib/gcc/powerpc64-ps3-elf/7.2.0/../../../../powerpc64-ps3-elf/lib/libc.a(lib_a-ungetc.o)
 *fill*         0x00000000000316b4        0x4 60000000
 .text.__submore
                0x00000000000316b8      0x128 /home/louis/Documents/ps3/ps3toolchain/bin/ppu/lib/gcc/powerpc64-ps3-elf/7.2.0/../../../../powerpc64-ps3-elf/lib/libc.a(lib_a-ungetc.o)
 .text._ungetc_r
                0x00000000000317e0      0x2a8 /home/louis/Documents/ps3/ps3toolchain/bin/ppu/lib/gcc/powerpc64-ps3-elf/7.2.0/../../../../powerpc64-ps3-elf/lib/libc.a(lib_a-ungetc.o)
 .text.ungetc   0x0000000000031a88       0x50 /home/louis/Documents/ps3/ps3toolchain/bin/ppu/lib/gcc/powerpc64-ps3-elf/7.2.0/../../../../powerpc64-ps3-elf/lib/libc.a(lib_a-ungetc.o)
 .text          0x0000000000031ad8        0x0 /home/louis/Documents/ps3/ps3toolchain/bin/ppu/lib/gcc/powerpc64-ps3-elf/7.2.0/../../../../powerpc64-ps3-elf/lib/libc.a(lib_a-vfiprintf.o)
 .text.__sprint_r.part.0
                0x0000000000031ad8      0x160 /home/louis/Documents/ps3/ps3toolchain/bin/ppu/lib/gcc/powerpc64-ps3-elf/7.2.0/../../../../powerpc64-ps3-elf/lib/libc.a(lib_a-vfiprintf.o)
 .text.__sprint_r
                0x0000000000031c38       0x28 /home/louis/Documents/ps3/ps3toolchain/bin/ppu/lib/gcc/powerpc64-ps3-elf/7.2.0/../../../../powerpc64-ps3-elf/lib/libc.a(lib_a-vfiprintf.o)
 .text._vfiprintf_r
                0x0000000000031c60     0x1500 /home/louis/Documents/ps3/ps3toolchain/bin/ppu/lib/gcc/powerpc64-ps3-elf/7.2.0/../../../../powerpc64-ps3-elf/lib/libc.a(lib_a-vfiprintf.o)
 .text.vfiprintf
                0x0000000000033160       0x60 /home/louis/Documents/ps3/ps3toolchain/bin/ppu/lib/gcc/powerpc64-ps3-elf/7.2.0/../../../../powerpc64-ps3-elf/lib/libc.a(lib_a-vfiprintf.o)
 .text          0x00000000000331c0        0x0 /home/louis/Documents/ps3/ps3toolchain/bin/ppu/lib/gcc/powerpc64-ps3-elf/7.2.0/../../../../powerpc64-ps3-elf/lib/libc.a(lib_a-wbuf.o)
 .text.__swbuf_r
                0x00000000000331c0      0x200 /home/louis/Documents/ps3/ps3toolchain/bin/ppu/lib/gcc/powerpc64-ps3-elf/7.2.0/../../../../powerpc64-ps3-elf/lib/libc.a(lib_a-wbuf.o)
 .text.__swbuf  0x00000000000333c0       0x50 /home/louis/Documents/ps3/ps3toolchain/bin/ppu/lib/gcc/powerpc64-ps3-elf/7.2.0/../../../../powerpc64-ps3-elf/lib/libc.a(lib_a-wbuf.o)
 .text          0x0000000000033410        0x0 /home/louis/Documents/ps3/ps3toolchain/bin/ppu/lib/gcc/powerpc64-ps3-elf/7.2.0/../../../../powerpc64-ps3-elf/lib/libc.a(lib_a-fclose.o)
 .text._fclose_r
                0x0000000000033410      0x1e8 /home/louis/Documents/ps3/ps3toolchain/bin/ppu/lib/gcc/powerpc64-ps3-elf/7.2.0/../../../../powerpc64-ps3-elf/lib/libc.a(lib_a-fclose.o)
 .text.fclose   0x00000000000335f8       0x40 /home/louis/Documents/ps3/ps3toolchain/bin/ppu/lib/gcc/powerpc64-ps3-elf/7.2.0/../../../../powerpc64-ps3-elf/lib/libc.a(lib_a-fclose.o)
 .text          0x0000000000033638        0x0 /home/louis/Documents/ps3/ps3toolchain/bin/ppu/lib/gcc/powerpc64-ps3-elf/7.2.0/../../../../powerpc64-ps3-elf/lib/libc.a(lib_a-fputwc.o)
 .text._fputwc_r
                0x0000000000033638      0x238 /home/louis/Documents/ps3/ps3toolchain/bin/ppu/lib/gcc/powerpc64-ps3-elf/7.2.0/../../../../powerpc64-ps3-elf/lib/libc.a(lib_a-fputwc.o)
 .text.fputwc   0x0000000000033870       0xac /home/louis/Documents/ps3/ps3toolchain/bin/ppu/lib/gcc/powerpc64-ps3-elf/7.2.0/../../../../powerpc64-ps3-elf/lib/libc.a(lib_a-fputwc.o)
 .text          0x000000000003391c        0x0 /home/louis/Documents/ps3/ps3toolchain/bin/ppu/lib/gcc/powerpc64-ps3-elf/7.2.0/../../../../powerpc64-ps3-elf/lib/libc.a(lib_a-gdtoa-gethex.o)
 *fill*         0x000000000003391c        0x4 60000000
 .text.rshift   0x0000000000033920      0x184 /home/louis/Documents/ps3/ps3toolchain/bin/ppu/lib/gcc/powerpc64-ps3-elf/7.2.0/../../../../powerpc64-ps3-elf/lib/libc.a(lib_a-gdtoa-gethex.o)
 *fill*         0x0000000000033aa4        0x4 60000000
 .text.__hexdig_init
                0x0000000000033aa8       0xa0 /home/louis/Documents/ps3/ps3toolchain/bin/ppu/lib/gcc/powerpc64-ps3-elf/7.2.0/../../../../powerpc64-ps3-elf/lib/libc.a(lib_a-gdtoa-gethex.o)
 .text.__gethex
                0x0000000000033b48      0x950 /home/louis/Documents/ps3/ps3toolchain/bin/ppu/lib/gcc/powerpc64-ps3-elf/7.2.0/../../../../powerpc64-ps3-elf/lib/libc.a(lib_a-gdtoa-gethex.o)
 .text          0x0000000000034498        0x0 /home/louis/Documents/ps3/ps3toolchain/bin/ppu/lib/gcc/powerpc64-ps3-elf/7.2.0/../../../../powerpc64-ps3-elf/lib/libc.a(lib_a-gdtoa-hexnan.o)
 .text.__hexnan
                0x0000000000034498      0x384 /home/louis/Documents/ps3/ps3toolchain/bin/ppu/lib/gcc/powerpc64-ps3-elf/7.2.0/../../../../powerpc64-ps3-elf/lib/libc.a(lib_a-gdtoa-hexnan.o)
 .text          0x000000000003481c        0x0 /home/louis/Documents/ps3/ps3toolchain/bin/ppu/lib/gcc/powerpc64-ps3-elf/7.2.0/../../../../powerpc64-ps3-elf/lib/libc.a(lib_a-lock_internal.o)
 *fill*         0x000000000003481c        0x4 60000000
 .text.startup.init_metalock
                0x0000000000034820       0x48 /home/louis/Documents/ps3/ps3toolchain/bin/ppu/lib/gcc/powerpc64-ps3-elf/7.2.0/../../../../powerpc64-ps3-elf/lib/libc.a(lib_a-lock_internal.o)
 .text.__libc_auto_lock_allocate
                0x0000000000034868       0x9c /home/louis/Documents/ps3/ps3toolchain/bin/ppu/lib/gcc/powerpc64-ps3-elf/7.2.0/../../../../powerpc64-ps3-elf/lib/libc.a(lib_a-lock_internal.o)
 .text          0x0000000000034904        0x0 /home/louis/Documents/ps3/ps3toolchain/bin/ppu/lib/gcc/powerpc64-ps3-elf/7.2.0/../../../../powerpc64-ps3-elf/lib/libc.a(lib_a-strncmp.o)
 *fill*         0x0000000000034904        0x4 60000000
 .text.strncmp  0x0000000000034908      0x12c /home/louis/Documents/ps3/ps3toolchain/bin/ppu/lib/gcc/powerpc64-ps3-elf/7.2.0/../../../../powerpc64-ps3-elf/lib/libc.a(lib_a-strncmp.o)
 .text          0x0000000000034a34        0x0 /home/louis/Documents/ps3/ps3toolchain/bin/ppu/lib/gcc/powerpc64-ps3-elf/7.2.0/../../../../powerpc64-ps3-elf/lib/libc.a(lib_a-svfiprintf.o)
 *fill*         0x0000000000034a34        0x4 60000000
 .text.__ssprint_r
                0x0000000000034a38      0x2b4 /home/louis/Documents/ps3/ps3toolchain/bin/ppu/lib/gcc/powerpc64-ps3-elf/7.2.0/../../../../powerpc64-ps3-elf/lib/libc.a(lib_a-svfiprintf.o)
 *fill*         0x0000000000034cec        0x4 60000000
 .text._svfiprintf_r
                0x0000000000034cf0     0x1148 /home/louis/Documents/ps3/ps3toolchain/bin/ppu/lib/gcc/powerpc64-ps3-elf/7.2.0/../../../../powerpc64-ps3-elf/lib/libc.a(lib_a-svfiprintf.o)
 .text          0x0000000000035e38        0x0 /home/louis/Documents/ps3/ps3toolchain/bin/ppu/lib/gcc/powerpc64-ps3-elf/7.2.0/../../../../powerpc64-ps3-elf/lib/libc.a(lib_a-wcrtomb.o)
 .text._wcrtomb_r
                0x0000000000035e38      0x11c /home/louis/Documents/ps3/ps3toolchain/bin/ppu/lib/gcc/powerpc64-ps3-elf/7.2.0/../../../../powerpc64-ps3-elf/lib/libc.a(lib_a-wcrtomb.o)
 *fill*         0x0000000000035f54        0x4 60000000
 .text.wcrtomb  0x0000000000035f58      0x150 /home/louis/Documents/ps3/ps3toolchain/bin/ppu/lib/gcc/powerpc64-ps3-elf/7.2.0/../../../../powerpc64-ps3-elf/lib/libc.a(lib_a-wcrtomb.o)
 .text          0x00000000000360a8        0x0 /home/louis/Documents/ps3/ps3toolchain/bin/ppu/lib/gcc/powerpc64-ps3-elf/7.2.0/../../../../powerpc64-ps3-elf/lib/libc.a(lib_a-wctomb_r.o)
 .text.__ascii_wctomb
                0x00000000000360a8       0x44 /home/louis/Documents/ps3/ps3toolchain/bin/ppu/lib/gcc/powerpc64-ps3-elf/7.2.0/../../../../powerpc64-ps3-elf/lib/libc.a(lib_a-wctomb_r.o)
 *fill*         0x00000000000360ec        0x4 60000000
 .text._wctomb_r
                0x00000000000360f0       0x90 /home/louis/Documents/ps3/ps3toolchain/bin/ppu/lib/gcc/powerpc64-ps3-elf/7.2.0/../../../../powerpc64-ps3-elf/lib/libc.a(lib_a-wctomb_r.o)
 .text          0x0000000000036180        0x0 /home/louis/Documents/ps3/ps3toolchain/bin/ppu/lib/gcc/powerpc64-ps3-elf/7.2.0/../../../../powerpc64-ps3-elf/lib/libc.a(lib_a-abort.o)
 .text.abort    0x0000000000036180       0x30 /home/louis/Documents/ps3/ps3toolchain/bin/ppu/lib/gcc/powerpc64-ps3-elf/7.2.0/../../../../powerpc64-ps3-elf/lib/libc.a(lib_a-abort.o)
 .text          0x00000000000361b0        0x0 /home/louis/Documents/ps3/ps3toolchain/bin/ppu/lib/gcc/powerpc64-ps3-elf/7.2.0/../../../../powerpc64-ps3-elf/lib/libc.a(lib_a-signal.o)
 .text._init_signal_r.part.0
                0x00000000000361b0       0x74 /home/louis/Documents/ps3/ps3toolchain/bin/ppu/lib/gcc/powerpc64-ps3-elf/7.2.0/../../../../powerpc64-ps3-elf/lib/libc.a(lib_a-signal.o)
 *fill*         0x0000000000036224        0x4 60000000
 .text._init_signal_r
                0x0000000000036228       0x28 /home/louis/Documents/ps3/ps3toolchain/bin/ppu/lib/gcc/powerpc64-ps3-elf/7.2.0/../../../../powerpc64-ps3-elf/lib/libc.a(lib_a-signal.o)
 .text._signal_r
                0x0000000000036250       0x98 /home/louis/Documents/ps3/ps3toolchain/bin/ppu/lib/gcc/powerpc64-ps3-elf/7.2.0/../../../../powerpc64-ps3-elf/lib/libc.a(lib_a-signal.o)
 .text._raise_r
                0x00000000000362e8      0x13c /home/louis/Documents/ps3/ps3toolchain/bin/ppu/lib/gcc/powerpc64-ps3-elf/7.2.0/../../../../powerpc64-ps3-elf/lib/libc.a(lib_a-signal.o)
 *fill*         0x0000000000036424        0x4 60000000
 .text.__sigtramp_r
                0x0000000000036428       0xfc /home/louis/Documents/ps3/ps3toolchain/bin/ppu/lib/gcc/powerpc64-ps3-elf/7.2.0/../../../../powerpc64-ps3-elf/lib/libc.a(lib_a-signal.o)
 *fill*         0x0000000000036524        0x4 60000000
 .text.raise    0x0000000000036528       0x40 /home/louis/Documents/ps3/ps3toolchain/bin/ppu/lib/gcc/powerpc64-ps3-elf/7.2.0/../../../../powerpc64-ps3-elf/lib/libc.a(lib_a-signal.o)
 .text.signal   0x0000000000036568       0xbc /home/louis/Documents/ps3/ps3toolchain/bin/ppu/lib/gcc/powerpc64-ps3-elf/7.2.0/../../../../powerpc64-ps3-elf/lib/libc.a(lib_a-signal.o)
 *fill*         0x0000000000036624        0x4 60000000
 .text._init_signal
                0x0000000000036628       0x54 /home/louis/Documents/ps3/ps3toolchain/bin/ppu/lib/gcc/powerpc64-ps3-elf/7.2.0/../../../../powerpc64-ps3-elf/lib/libc.a(lib_a-signal.o)
 *fill*         0x000000000003667c        0x4 60000000
 .text.__sigtramp
                0x0000000000036680       0x40 /home/louis/Documents/ps3/ps3toolchain/bin/ppu/lib/gcc/powerpc64-ps3-elf/7.2.0/../../../../powerpc64-ps3-elf/lib/libc.a(lib_a-signal.o)
 .text          0x00000000000366c0        0x0 /home/louis/Documents/ps3/ps3toolchain/bin/ppu/lib/gcc/powerpc64-ps3-elf/7.2.0/../../../../powerpc64-ps3-elf/lib/libsysbase.a(close.o)
 .text._close_r
                0x00000000000366c0       0x68 /home/louis/Documents/ps3/ps3toolchain/bin/ppu/lib/gcc/powerpc64-ps3-elf/7.2.0/../../../../powerpc64-ps3-elf/lib/libsysbase.a(close.o)
 .text          0x0000000000036728        0x0 /home/louis/Documents/ps3/ps3toolchain/bin/ppu/lib/gcc/powerpc64-ps3-elf/7.2.0/../../../../powerpc64-ps3-elf/lib/libsysbase.a(sbrk.o)
 .text._sbrk_r  0x0000000000036728       0x68 /home/louis/Documents/ps3/ps3toolchain/bin/ppu/lib/gcc/powerpc64-ps3-elf/7.2.0/../../../../powerpc64-ps3-elf/lib/libsysbase.a(sbrk.o)
 .text          0x0000000000036790        0x0 /home/louis/Documents/ps3/ps3toolchain/bin/ppu/lib/gcc/powerpc64-ps3-elf/7.2.0/../../../../powerpc64-ps3-elf/lib/libsysbase.a(_exit.o)
 .text._exit    0x0000000000036790       0x4c /home/louis/Documents/ps3/ps3toolchain/bin/ppu/lib/gcc/powerpc64-ps3-elf/7.2.0/../../../../powerpc64-ps3-elf/lib/libsysbase.a(_exit.o)
 .text          0x00000000000367dc        0x0 /home/louis/Documents/ps3/ps3toolchain/bin/ppu/lib/gcc/powerpc64-ps3-elf/7.2.0/../../../../powerpc64-ps3-elf/lib/libsysbase.a(fstat.o)
 *fill*         0x00000000000367dc        0x4 60000000
 .text._fstat_r
                0x00000000000367e0       0x68 /home/louis/Documents/ps3/ps3toolchain/bin/ppu/lib/gcc/powerpc64-ps3-elf/7.2.0/../../../../powerpc64-ps3-elf/lib/libsysbase.a(fstat.o)
 .text          0x0000000000036848        0x0 /home/louis/Documents/ps3/ps3toolchain/bin/ppu/lib/gcc/powerpc64-ps3-elf/7.2.0/../../../../powerpc64-ps3-elf/lib/libsysbase.a(isatty.o)
 .text._isatty_r
                0x0000000000036848       0x68 /home/louis/Documents/ps3/ps3toolchain/bin/ppu/lib/gcc/powerpc64-ps3-elf/7.2.0/../../../../powerpc64-ps3-elf/lib/libsysbase.a(isatty.o)
 .text          0x00000000000368b0        0x0 /home/louis/Documents/ps3/ps3toolchain/bin/ppu/lib/gcc/powerpc64-ps3-elf/7.2.0/../../../../powerpc64-ps3-elf/lib/libsysbase.a(lseek.o)
 .text._lseek_r
                0x00000000000368b0       0x68 /home/louis/Documents/ps3/ps3toolchain/bin/ppu/lib/gcc/powerpc64-ps3-elf/7.2.0/../../../../powerpc64-ps3-elf/lib/libsysbase.a(lseek.o)
 .text          0x0000000000036918        0x0 /home/louis/Documents/ps3/ps3toolchain/bin/ppu/lib/gcc/powerpc64-ps3-elf/7.2.0/../../../../powerpc64-ps3-elf/lib/libsysbase.a(read.o)
 .text._read_r  0x0000000000036918       0x68 /home/louis/Documents/ps3/ps3toolchain/bin/ppu/lib/gcc/powerpc64-ps3-elf/7.2.0/../../../../powerpc64-ps3-elf/lib/libsysbase.a(read.o)
 .text          0x0000000000036980        0x0 /home/louis/Documents/ps3/ps3toolchain/bin/ppu/lib/gcc/powerpc64-ps3-elf/7.2.0/../../../../powerpc64-ps3-elf/lib/libsysbase.a(write.o)
 .text._write_r
                0x0000000000036980       0x68 /home/louis/Documents/ps3/ps3toolchain/bin/ppu/lib/gcc/powerpc64-ps3-elf/7.2.0/../../../../powerpc64-ps3-elf/lib/libsysbase.a(write.o)
 .text          0x00000000000369e8        0x0 /home/louis/Documents/ps3/ps3toolchain/bin/ppu/lib/gcc/powerpc64-ps3-elf/7.2.0/../../../../powerpc64-ps3-elf/lib/libsysbase.a(lock.o)
 .text.sys_lwmutex_create
                0x00000000000369e8       0x90 /home/louis/Documents/ps3/ps3toolchain/bin/ppu/lib/gcc/powerpc64-ps3-elf/7.2.0/../../../../powerpc64-ps3-elf/lib/libsysbase.a(lock.o)
 .text.sys_lwmutex_destroy
                0x0000000000036a78       0x80 /home/louis/Documents/ps3/ps3toolchain/bin/ppu/lib/gcc/powerpc64-ps3-elf/7.2.0/../../../../powerpc64-ps3-elf/lib/libsysbase.a(lock.o)
 .text.sys_lwmutex_lock
                0x0000000000036af8       0x90 /home/louis/Documents/ps3/ps3toolchain/bin/ppu/lib/gcc/powerpc64-ps3-elf/7.2.0/../../../../powerpc64-ps3-elf/lib/libsysbase.a(lock.o)
 .text.sys_lwmutex_trylock
                0x0000000000036b88       0x80 /home/louis/Documents/ps3/ps3toolchain/bin/ppu/lib/gcc/powerpc64-ps3-elf/7.2.0/../../../../powerpc64-ps3-elf/lib/libsysbase.a(lock.o)
 .text.sys_lwmutex_unlock
                0x0000000000036c08       0x80 /home/louis/Documents/ps3/ps3toolchain/bin/ppu/lib/gcc/powerpc64-ps3-elf/7.2.0/../../../../powerpc64-ps3-elf/lib/libsysbase.a(lock.o)
 .text          0x0000000000036c88        0x0 /home/louis/Documents/ps3/ps3toolchain/bin/ppu/lib/gcc/powerpc64-ps3-elf/7.2.0/../../../../powerpc64-ps3-elf/lib/libsysbase.a(getpid.o)
 .text._getpid_r
                0x0000000000036c88       0x68 /home/louis/Documents/ps3/ps3toolchain/bin/ppu/lib/gcc/powerpc64-ps3-elf/7.2.0/../../../../powerpc64-ps3-elf/lib/libsysbase.a(getpid.o)
 .text          0x0000000000036cf0        0x0 /home/louis/Documents/ps3/ps3toolchain/bin/ppu/lib/gcc/powerpc64-ps3-elf/7.2.0/../../../../powerpc64-ps3-elf/lib/libsysbase.a(kill.o)
 .text._kill_r  0x0000000000036cf0       0x1c /home/louis/Documents/ps3/ps3toolchain/bin/ppu/lib/gcc/powerpc64-ps3-elf/7.2.0/../../../../powerpc64-ps3-elf/lib/libsysbase.a(kill.o)
 .text          0x0000000000036d0c        0x0 /home/louis/Documents/ps3/ps3toolchain/bin/ppu/lib/gcc/powerpc64-ps3-elf/7.2.0/../../../../powerpc64-ps3-elf/lib/libsysbase.a(gettod.o)
 *fill*         0x0000000000036d0c        0x4 60000000
 .text._gettimeofday_r
                0x0000000000036d10       0x68 /home/louis/Documents/ps3/ps3toolchain/bin/ppu/lib/gcc/powerpc64-ps3-elf/7.2.0/../../../../powerpc64-ps3-elf/lib/libsysbase.a(gettod.o)
 .text          0x0000000000036d78        0x0 /home/louis/Documents/ps3/ps3toolchain/bin/ppu/lib/gcc/powerpc64-ps3-elf/7.2.0/crtend.o
 .text.__do_global_ctors_aux
                0x0000000000036d78       0x64 /home/louis/Documents/ps3/ps3toolchain/bin/ppu/lib/gcc/powerpc64-ps3-elf/7.2.0/crtend.o
 .text          0x0000000000036ddc        0x0 /home/louis/Documents/ps3/ps3toolchain/bin/ppu/lib/gcc/powerpc64-ps3-elf/7.2.0/../../../../powerpc64-ps3-elf/lib/lv2-crtn.o
 *(.text.*personality*)
 *(.gnu.warning)
 *(.sfpr .glink)
 .sfpr          0x0000000000000000        0x0 linker stubs
 *fill*         0x0000000000036ddc        0x0 60000000
 .glink         0x0000000000000000        0x0 linker stubs

.fini           0x0000000000036ddc       0x2c
 *(.fini)
 .fini          0x0000000000036ddc        0xc /home/louis/Documents/ps3/ps3toolchain/bin/ppu/lib/gcc/powerpc64-ps3-elf/7.2.0/../../../../powerpc64-ps3-elf/lib/lv2-crti.o
                0x0000000000036ddc                ._fini
 .fini          0x0000000000036de8        0x8 /home/louis/Documents/ps3/ps3toolchain/bin/ppu/lib/gcc/powerpc64-ps3-elf/7.2.0/crtbegin.o
 .fini          0x0000000000036df0        0x8 /home/louis/Documents/ps3/ps3toolchain/bin/ppu/lib/librt.a(sbrk.o)
 .fini          0x0000000000036df8       0x10 /home/louis/Documents/ps3/ps3toolchain/bin/ppu/lib/gcc/powerpc64-ps3-elf/7.2.0/../../../../powerpc64-ps3-elf/lib/lv2-crtn.o

.sceStub.text   0x0000000000036e08     0x5440
 *(.sceStub.text)
 .sceStub.text  0x0000000000036e08     0x1640 /home/louis/Documents/ps3/ps3toolchain/bin/ppu/lib/libgcm_sys.a(sprx.o)
                0x0000000000036e08                __gcmInitBodyEx
                0x0000000000036e48                __gcmSetDisplayBuffer
                0x0000000000036e88                __gcmGetControlRegister
                0x0000000000036ec8                __gcmAddressToOffset
                0x0000000000036f08                __gcmGetConfiguration
                0x0000000000036f48                __gcmGetCurrentField
                0x0000000000036f88                __gcmSetFlipMode
                0x0000000000036fc8                __gcmGetFlipStatus
                0x0000000000037008                __gcmGetLastFlipTime
                0x0000000000037048                __gcmGetVBlankCount
                0x0000000000037088                __gcmSetWaitFlip
                0x00000000000370c8                __gcmSetFlipStatus
                0x0000000000037108                __gcmResetFlipStatus
                0x0000000000037148                __gcmSetFlip
                0x0000000000037188                __gcmSetFlipImmediate
                0x00000000000371c8                __gcmFunc15
                0x0000000000037208                __gcmFunc3
                0x0000000000037248                __gcmFunc1
                0x0000000000037288                __gcmFunc2
                0x00000000000372c8                __gcmFunc4
                0x0000000000037308                __gcmFunc12
                0x0000000000037348                __gcmFunc13
                0x0000000000037388                __gcmGetReport
                0x00000000000373c8                __gcmSetTile
                0x0000000000037408                __gcmBindTile
                0x0000000000037448                __gcmUnbindTile
                0x0000000000037488                __gcmSetZcull
                0x0000000000037508                __gcmBindZcull
                0x0000000000037588                __gcmUnbindZcull
                0x00000000000375c8                __gcmGetTimeStamp
                0x0000000000037608                __gcmSetVBlankFrequency
                0x0000000000037648                __gcmSetSecondVFrequency
                0x0000000000037688                __gcmSetDebugOutputLevel
                0x00000000000376c8                __gcmGetLabelAddress
                0x0000000000037708                __gcmSetVBlankHandlerEx
                0x0000000000037748                __gcmSetFlipHandlerEx
                0x0000000000037788                __gcmSetSecondVHandlerEx
                0x00000000000377c8                __gcmSetGraphicsHandlerEx
                0x0000000000037808                __gcmTerminate
                0x0000000000037848                __gcmMapMainMemory
                0x0000000000037888                __gcmMapEaIoAddress
                0x00000000000378c8                __gcmUnmapEaIoAddress
                0x0000000000037908                __gcmUnmapIoAddress
                0x0000000000037948                __gcmIoOffsetToAddressEx
                0x0000000000037988                __gcmSetDefaultCommandBuffer
                0x00000000000379c8                __gcmSetTileInfo
                0x0000000000037a08                __gcmGetTiledPitchSize
                0x0000000000037a48                __gcmSetInvalidateTile
                0x0000000000037a88                __gcmSetUserCommandEx
                0x0000000000037ac8                __gcmSetUserHandlerEx
                0x0000000000037b08                __gcmSetQueueHandlerEx
                0x0000000000037b48                __gcmSetPrepareFlip
                0x0000000000037b88                __gcmGetOffsetTable
                0x0000000000037bc8                __gcmGetLastSecondVTime
                0x0000000000037c08                __gcmSortRemapEaIoAddress
                0x0000000000037c48                __gcmGetDisplayBufferByFlipIndex
                0x0000000000037c88                __gcmGetDefaultCommandWordSize
                0x0000000000037cc8                __gcmGetDefaultSegmentWordSize
                0x0000000000037d08                __gcmSetDefaultCommandBufferAndSegmentWordSize
                0x0000000000037d48                __gcmGetDisplayInfo
                0x0000000000037d88                __gcmDumpGraphicsError
                0x0000000000037dc8                __gcmFunc38
                0x0000000000037e08                __gcmGetCurrentDisplayBufferId
                0x0000000000037e48                __gcmGetMaxIoMapSize
                0x0000000000037e88                __gcmGetNotifyDataAddress
                0x0000000000037ec8                __gcmGetReportDataAddress
                0x0000000000037f08                __gcmGetReportDataAddressLocation
                0x0000000000037f48                __gcmGetReportDataLocation
                0x0000000000037f88                __gcmGetTileInfo
                0x0000000000037fc8                __gcmGetTimeStampLocation
                0x0000000000038008                __gcmGetZcullInfo
                0x0000000000038048                __gcmInitCursor
                0x0000000000038088                __gcmInitDefaultFifoMode
                0x00000000000380c8                __gcmInitSystemMode
                0x0000000000038108                __gcmMapEaIoAddressWithFlags
                0x0000000000038148                __gcmMapLocalMemory
                0x0000000000038188                __gcmReserveIoMapSize
                0x00000000000381c8                __gcmSetCursorDisable
                0x0000000000038208                __gcmSetCursorEnable
                0x0000000000038248                __gcmSetCursorImageOffset
                0x0000000000038288                __gcmSetCursorPosition
                0x00000000000382c8                __gcmSetDefaultFifoSize
                0x0000000000038308                __gcmSetFlipCommand
                0x0000000000038348                __gcmSetFlipCommandWithWaitLabel
                0x0000000000038388                __gcmSysGetLastVBlankTime
                0x00000000000383c8                __gcmUnreserveIoMapSize
                0x0000000000038408                __gcmUpdateCursor
 .sceStub.text  0x0000000000038448      0xbc0 /home/louis/Documents/ps3/ps3toolchain/bin/ppu/lib/libio.a(sprx.o)
                0x0000000000038448                __sys_config_start
                0x0000000000038488                __sys_config_stop
                0x00000000000384c8                __sys_config_add_service_listener
                0x0000000000038508                __sys_config_remove_service_listener
                0x0000000000038548                __sys_config_register_service
                0x0000000000038588                __sys_config_unregister_service
                0x00000000000385c8                __ioPadInit
                0x0000000000038608                __ioPadEnd
                0x0000000000038648                __ioPadClearBuf
                0x0000000000038688                __ioPadInfoPressMode
                0x00000000000386c8                __ioPadLddRegisterController
                0x0000000000038708                __ioPadGetInfo
                0x0000000000038748                __ioPadGetRawData
                0x0000000000038788                __ioPadGetDataExtra
                0x00000000000387c8                __ioPadInfoSensorMode
                0x0000000000038808                __ioPadGetData
                0x0000000000038848                __ioPadLddGetPortNo
                0x0000000000038888                __ioPadLddDataInsert
                0x00000000000388c8                __ioPadSetSensorMode
                0x0000000000038908                __ioPadGetCapabilityInfo
                0x0000000000038948                __ioPadLddUnregisterController
                0x0000000000038988                __ioPadSetActDirect
                0x00000000000389c8                __ioPadSetPressMode
                0x0000000000038a08                __ioPadPeriphGetInfo
                0x0000000000038a48                __ioPadSetPortSetting
                0x0000000000038a88                __ioPadPeriphGetData
                0x0000000000038ac8                __ioPadGetInfo2
                0x0000000000038b08                __ioMouseInit
                0x0000000000038b48                __ioMouseEnd
                0x0000000000038b88                __ioMouseClearBuf
                0x0000000000038bc8                __ioMouseGetInfo
                0x0000000000038c08                __ioMouseGetTabletDataList
                0x0000000000038c48                __ioMouseSetTabletMode
                0x0000000000038c88                __ioMouseGetData
                0x0000000000038cc8                __ioMouseInfoTabletMode
                0x0000000000038d08                __ioMouseGetRawData
                0x0000000000038d48                __ioMouseGetDataList
                0x0000000000038d88                __ioKbInit
                0x0000000000038dc8                __ioKbEnd
                0x0000000000038e08                __ioKbRead
                0x0000000000038e48                __ioKbSetReadMode
                0x0000000000038e88                __ioKbSetCodeType
                0x0000000000038ec8                __ioKbCnvRawCode
                0x0000000000038f08                __ioKbSetLEDStatus
                0x0000000000038f48                __ioKbGetInfo
                0x0000000000038f88                __ioKbGetConfiguration
                0x0000000000038fc8                __ioKbClearBuf
 .sceStub.text  0x0000000000039008     0x1480 /home/louis/Documents/ps3/ps3toolchain/bin/ppu/lib/libsysutil.a(sprx.o)
                0x0000000000039008                __videoGetResolution
                0x0000000000039048                __videoConfigure
                0x0000000000039088                __videoGetState
                0x00000000000390c8                __videoGetDeviceInfo
                0x0000000000039108                __videoGetConfiguration
                0x0000000000039148                __videoGetResolutionAvailability
                0x0000000000039188                __videoDebugSetMonitorType
                0x00000000000391c8                __videoRegisterCallbackEx
                0x0000000000039208                __videoUnregisterCallback
                0x0000000000039248                __videoGetNumberOfDevice
                0x0000000000039288                __videoGetConvertCursorColorInfo
                0x00000000000392c8                __msgDialogClose
                0x0000000000039308                __msgDialogOpenErrorCodeEx
                0x0000000000039348                __msgDialogOpenEx
                0x0000000000039388                __msgDialogProgressBarInc
                0x00000000000393c8                __msgDialogAbort
                0x0000000000039408                __msgDialogOpen2Ex
                0x0000000000039448                __msgDialogProgressBarReset
                0x0000000000039488                __msgDialogProgressBarSetMsg
                0x00000000000394c8                __oskGetInputText
                0x0000000000039508                __oskSetInitialInputDevice
                0x0000000000039548                __oskGetSize
                0x0000000000039588                __oskUnloadAsync
                0x00000000000395c8                __oskDisableDimmer
                0x0000000000039608                __oskSetKeyLayoutOption
                0x0000000000039648                __oskAbort
                0x0000000000039688                __oskSetDeviceMask
                0x00000000000396c8                __oskSetSeparateWindowOption
                0x0000000000039708                __oskAddSupportLanguage
                0x0000000000039748                __oskLoadAsync
                0x0000000000039788                __oskSetInitialKeyLayout
                0x00000000000397c8                __oskSetLayoutMode
                0x0000000000039808                __sysUtilRegisterCallbackEx
                0x0000000000039848                __sysUtilCheckCallback
                0x0000000000039888                __sysUtilUnregisterCallback
                0x00000000000398c8                __sysUtilGetSystemParamInt
                0x0000000000039908                __sysUtilGetSystemParamString
                0x0000000000039948                __sysSaveListLoad2Ex
                0x0000000000039988                __sysSaveListSave2Ex
                0x00000000000399c8                __sysSaveListAutoLoadEx
                0x0000000000039a08                __sysSaveListAutoSaveEx
                0x0000000000039a48                __sysSaveFixedLoad2Ex
                0x0000000000039a88                __sysSaveFixedSave2Ex
                0x0000000000039ac8                __sysSaveAutoLoad2Ex
                0x0000000000039b08                __sysSaveAutoSave2Ex
                0x0000000000039b48                __sysSaveDelete2
                0x0000000000039b88                __sysGameDataCheck
                0x0000000000039bc8                __sysGameBootCheck
                0x0000000000039c08                __sysGamePatchCheck
                0x0000000000039c48                __sysGameCreateGameData
                0x0000000000039c88                __sysGameGetParamInt
                0x0000000000039cc8                __sysGameGetParamString
                0x0000000000039d08                __sysGameGetSizeKB
                0x0000000000039d48                __sysGameSetParamString
                0x0000000000039d88                __sysGameGetDiscContentInfoUpdatePath
                0x0000000000039dc8                __sysGameContentPermit
                0x0000000000039e08                __sysGameContentErrorDialog
                0x0000000000039e48                __sysGameThemeInstall
                0x0000000000039e88                __sysGameThemeInstallFromBufferEx
                0x0000000000039ec8                __sysGameGetLocalWebContentPath
                0x0000000000039f08                __sysGameDeleteGameData
                0x0000000000039f48                __sysGameRegisterDiscChangeCallbackEx
                0x0000000000039f88                __sysGameUnregisterDiscChangeCallback
                0x0000000000039fc8                __sysDiscRegisterDiscChangeCallbackEx
                0x000000000003a008                __sysDiscUnregisterDiscChangeCallback
                0x000000000003a048                __sysTrophyInit
                0x000000000003a088                __sysTrophyAbortHandle
                0x000000000003a0c8                __sysTrophyCreateContext
                0x000000000003a108                __sysTrophyCreateHandle
                0x000000000003a148                __sysTrophyDestroyContext
                0x000000000003a188                __sysTrophyDestroyHandle
                0x000000000003a1c8                __sysTrophyGetGameIcon
                0x000000000003a208                __sysTrophyGetGameInfo
                0x000000000003a248                __sysTrophyGetGameProgress
                0x000000000003a288                __sysTrophyGetRequiredDiskSpace
                0x000000000003a2c8                __sysTrophyGetTrophyIcon
                0x000000000003a308                __sysTrophyGetTrophyInfo
                0x000000000003a348                __sysTrophyGetTrophyUnlockState
                0x000000000003a388                __sysTrophyRegisterContextEx
                0x000000000003a3c8                __sysTrophySetSoundLevel
                0x000000000003a408                __sysTrophyTerm
                0x000000000003a448                __sysTrophyUnlockTrophy
 .sceStub.text  0x000000000003a488     0x1dc0 /home/louis/Documents/ps3/ps3toolchain/bin/ppu/lib/liblv2.a(sprx.o)
                0x000000000003a488                __sysGetSystemTime
                0x000000000003a4c8                __sysGetSystemSwVersion
                0x000000000003a508                __sysGetTemperature
                0x000000000003a548                __sysGetRandomNumber
                0x000000000003a588                __sysGetRtcStatus
                0x000000000003a5c8                __sysBoardStorageRead
                0x000000000003a608                __sysBoardStorageWrite
                0x000000000003a648                __sysProcessIsStack
                0x000000000003a688                __sysProcessExit
                0x000000000003a6c8                __sysProcessExitspawn
                0x000000000003a708                __sysProcessExitSpawn2Ex
                0x000000000003a748                __sysProcessExitSpawnWithLevel
                0x000000000003a788                __sysProcessAtExitSpawn
                0x000000000003a7c8                __sysProcess_At_ExitSpawn
                0x000000000003a808                __sysPrxRegisterLibrary
                0x000000000003a848                __sysPrxUnregisterLibrary
                0x000000000003a888                __sysPrxStartModule
                0x000000000003a8c8                __sysPrxStopModule
                0x000000000003a908                __sysPrxLoadModule
                0x000000000003a948                __sysPrxLoadModuleByFd
                0x000000000003a988                __sysPrxLoadModuleList
                0x000000000003a9c8                __sysPrxLoadModuleListOnMemcontainer
                0x000000000003aa08                __sysPrxLoadModuleOnMemcontainer
                0x000000000003aa48                __sysPrxLoadModuleOnMemcontainerByFd
                0x000000000003aa88                __sysPrxGetModuleInfo
                0x000000000003aac8                __sysPrxGetModuleList
                0x000000000003ab08                __sysPrxGetModuleId
                0x000000000003ab48                __sysPrxGetModuleIdByAddress
                0x000000000003ab88                __sysPrxGetModuleIdByName
                0x000000000003abc8                __sysPrxUnloadModule
                0x000000000003ac08                __sysPrxExitSpawnWithLevel
                0x000000000003ac48                __sysThreadCreateEx
                0x000000000003ac88                __sysThreadExit
                0x000000000003acc8                __sysThreadGetId
                0x000000000003ad08                __sysThreadOnce
                0x000000000003ad48                __sysThreadInitialzeTLS
                0x000000000003ad88                __sysThreadRegisterAtexit
                0x000000000003adc8                __sysThreadUnregisterAtexit
                0x000000000003ae08                __sysInterruptThreadDisestablish
                0x000000000003ae48                __sysLwMutexCreate
                0x000000000003ae88                __sysLwMutexDestroy
                0x000000000003aec8                __sysLwMutexLock
                0x000000000003af08                __sysLwMutexTryLock
                0x000000000003af48                __sysLwMutexUnlock
                0x000000000003af88                __sysLwCondCreate
                0x000000000003afc8                __sysLwCondWait
                0x000000000003b008                __sysLwCondSignal
                0x000000000003b048                __sysLwCondSignalTo
                0x000000000003b088                __sysLwCondSignalAll
                0x000000000003b0c8                __sysLwCondDestroy
                0x000000000003b108                __sysSpinlockInitialize
                0x000000000003b148                __sysSpinlockLock
                0x000000000003b188                __sysSpinlockTryLock
                0x000000000003b1c8                __sysSpinlockUnlock
                0x000000000003b208                __sysWatchdogClear
                0x000000000003b248                __sysWatchdogStart
                0x000000000003b288                __sysWatchdogStop
                0x000000000003b2c8                __sysMalloc
                0x000000000003b308                __sysMemalign
                0x000000000003b348                __sysMemchr
                0x000000000003b388                __sysMemcmp
                0x000000000003b3c8                __sysMemcpy
                0x000000000003b408                __sysMemmove
                0x000000000003b448                __sysMemset
                0x000000000003b488                __sysFree
                0x000000000003b4c8                __sysHeapAllocHeapMemory
                0x000000000003b508                __sysHeapCreateHeap
                0x000000000003b548                __sysHeapDeleteHeap
                0x000000000003b588                __sysHeapFree
                0x000000000003b5c8                __sysHeapGetMallInfo
                0x000000000003b608                __sysHeapGetTotalFreeSize
                0x000000000003b648                __sysHeapMalloc
                0x000000000003b688                __sysHeapMemalign
                0x000000000003b6c8                __sysHeapStats
                0x000000000003b708                __sysQsort
                0x000000000003b748                __sysMempoolCreate
                0x000000000003b788                __sysMempoolDestroy
                0x000000000003b7c8                __sysMempoolGetCount
                0x000000000003b808                __sysMempoolAllocateBlock
                0x000000000003b848                __sysMempoolTryAllocateBlock
                0x000000000003b888                __sysMempoolFreeBlock
                0x000000000003b8c8                __sysMMapperFreeMemory
                0x000000000003b908                __sysMMapperMapMemory
                0x000000000003b948                __sysMMapperUnmapMemory
                0x000000000003b988                __sysMMapperAllocateMemory
                0x000000000003b9c8                __sysMMapperAllocateMemoryFromContainer
                0x000000000003ba08                __sysStrlen
                0x000000000003ba48                __sysStrcpy
                0x000000000003ba88                __sysStrncpy
                0x000000000003bac8                __sysStrcat
                0x000000000003bb08                __sysStrncat
                0x000000000003bb48                __sysStrchr
                0x000000000003bb88                __sysStrrchr
                0x000000000003bbc8                __sysStrcmp
                0x000000000003bc08                __sysStrncmp
                0x000000000003bc48                __sysStrncasecmp
                0x000000000003bc88                __sysToLower
                0x000000000003bcc8                __sysToUpper
                0x000000000003bd08                __sysSpuElfGetSegments
                0x000000000003bd48                __sysSpuElfGetInformation
                0x000000000003bd88                __sysSpuRawLoad
                0x000000000003bdc8                __sysSpuRawImageLoad
                0x000000000003be08                __sysSpuImageClose
                0x000000000003be48                __sysSpuImageImport
                0x000000000003be88                __sysSpuPrintfAttachGroupEx
                0x000000000003bec8                __sysSpuPrintfAttachThreadEx
                0x000000000003bf08                __sysSpuPrintfDetachGroupEx
                0x000000000003bf48                __sysSpuPrintfDetachThreadEx
                0x000000000003bf88                __sysSpuPrintfFinalizeEx
                0x000000000003bfc8                __sysSpuPrintfInitializeEx
                0x000000000003c008                __sysConsoleGetc
                0x000000000003c048                __sysConsolePutc
                0x000000000003c088                __sysConsoleWrite
                0x000000000003c0c8                __sysPrintf
                0x000000000003c108                __sysSprintf
                0x000000000003c148                __sysSnprintf
                0x000000000003c188                __sysVprintf
                0x000000000003c1c8                __sysVsprintf
                0x000000000003c208                __sysVsnprintf
 *(SORT(.sceStub.text.*))
                0x000000000003c248                PROVIDE (__etext, .)
                0x000000000003c248                PROVIDE (_etext, .)
                0x000000000003c248                PROVIDE (etext, .)

.eh_frame_hdr   0x000000000003c248        0x0
 *(.eh_frame_hdr)
 .eh_frame_hdr  0x0000000000000000        0x0 /home/louis/Documents/ps3/ps3toolchain/bin/ppu/lib/gcc/powerpc64-ps3-elf/7.2.0/../../../../powerpc64-ps3-elf/lib/lv2-crtn.o

.eh_frame       0x000000000003c248        0x4
 *(.eh_frame)
 .eh_frame      0x000000000003c248        0x0 linker stubs
 .eh_frame      0x000000000003c248        0x0 /home/louis/Documents/ps3/ps3toolchain/bin/ppu/lib/gcc/powerpc64-ps3-elf/7.2.0/crtbegin.o
 .eh_frame      0x000000000003c248        0x4 /home/louis/Documents/ps3/ps3toolchain/bin/ppu/lib/gcc/powerpc64-ps3-elf/7.2.0/crtend.o

.gcc_except_table
 *(.gcc_except_table .gcc_except_table.*)

.rodata.sceResident
                0x000000000003c24c       0x3e
 *(.rodata.sceResident)
 .rodata.sceResident
                0x000000000003c24c        0xf /home/louis/Documents/ps3/ps3toolchain/bin/ppu/lib/libgcm_sys.a(sprx.o)
 *fill*         0x000000000003c25b        0x1 00
 .rodata.sceResident
                0x000000000003c25c        0xb /home/louis/Documents/ps3/ps3toolchain/bin/ppu/lib/libio.a(sprx.o)
 *fill*         0x000000000003c267        0x1 00
 .rodata.sceResident
                0x000000000003c268       0x10 /home/louis/Documents/ps3/ps3toolchain/bin/ppu/lib/libsysutil.a(sprx.o)
 .rodata.sceResident
                0x000000000003c278       0x12 /home/louis/Documents/ps3/ps3toolchain/bin/ppu/lib/liblv2.a(sprx.o)

.rodata.sceFNID
                0x000000000003c28c      0x53c
 *(.rodata.sceFNID .rodata.sceFNID.*)
 .rodata.sceFNID
                0x000000000003c28c      0x15c /home/louis/Documents/ps3/ps3toolchain/bin/ppu/lib/libgcm_sys.a(sprx.o)
                0x000000000003c28c                cellGcmSys
                0x000000000003c28c                gcmInitBodyEx_fnid
                0x000000000003c290                gcmSetDisplayBuffer_fnid
                0x000000000003c294                gcmGetControlRegister_fnid
                0x000000000003c298                gcmAddressToOffset_fnid
                0x000000000003c29c                gcmGetConfiguration_fnid
                0x000000000003c2a0                gcmGetCurrentField_fnid
                0x000000000003c2a4                gcmSetFlipMode_fnid
                0x000000000003c2a8                gcmGetFlipStatus_fnid
                0x000000000003c2ac                gcmGetLastFlipTime_fnid
                0x000000000003c2b0                gcmGetVBlankCount_fnid
                0x000000000003c2b4                gcmSetWaitFlip_fnid
                0x000000000003c2b8                gcmSetFlipStatus_fnid
                0x000000000003c2bc                gcmResetFlipStatus_fnid
                0x000000000003c2c0                gcmSetFlip_fnid
                0x000000000003c2c4                gcmSetFlipImmediate_fnid
                0x000000000003c2c8                gcmFunc15_fnid
                0x000000000003c2cc                gcmFunc3_fnid
                0x000000000003c2d0                gcmFunc1_fnid
                0x000000000003c2d4                gcmFunc2_fnid
                0x000000000003c2d8                gcmFunc4_fnid
                0x000000000003c2dc                gcmFunc12_fnid
                0x000000000003c2e0                gcmFunc13_fnid
                0x000000000003c2e4                gcmGetReport_fnid
                0x000000000003c2e8                gcmSetTile_fnid
                0x000000000003c2ec                gcmBindTile_fnid
                0x000000000003c2f0                gcmUnbindTile_fnid
                0x000000000003c2f4                gcmSetZcull_fnid
                0x000000000003c2f8                gcmBindZcull_fnid
                0x000000000003c2fc                gcmUnbindZcull_fnid
                0x000000000003c300                gcmGetTimeStamp_fnid
                0x000000000003c304                gcmSetVBlankFrequency_fnid
                0x000000000003c308                gcmSetSecondVFrequency_fnid
                0x000000000003c30c                gcmSetDebugOutputLevel_fnid
                0x000000000003c310                gcmGetLabelAddress_fnid
                0x000000000003c314                gcmSetVBlankHandlerEx_fnid
                0x000000000003c318                gcmSetFlipHandlerEx_fnid
                0x000000000003c31c                gcmSetSecondVHandlerEx_fnid
                0x000000000003c320                gcmSetGraphicsHandlerEx_fnid
                0x000000000003c324                gcmTerminate_fnid
                0x000000000003c328                gcmMapMainMemory_fnid
                0x000000000003c32c                gcmMapEaIoAddress_fnid
                0x000000000003c330                gcmUnmapEaIoAddress_fnid
                0x000000000003c334                gcmUnmapIoAddress_fnid
                0x000000000003c338                gcmIoOffsetToAddressEx_fnid
                0x000000000003c33c                gcmSetDefaultCommandBuffer_fnid
                0x000000000003c340                gcmSetTileInfo_fnid
                0x000000000003c344                gcmGetTiledPitchSize_fnid
                0x000000000003c348                gcmSetInvalidateTile_fnid
                0x000000000003c34c                gcmSetUserCommandEx_fnid
                0x000000000003c350                gcmSetUserHandlerEx_fnid
                0x000000000003c354                gcmSetQueueHandlerEx_fnid
                0x000000000003c358                gcmSetPrepareFlip_fnid
                0x000000000003c35c                gcmGetOffsetTable_fnid
                0x000000000003c360                gcmGetLastSecondVTime_fnid
                0x000000000003c364                gcmSortRemapEaIoAddress_fnid
                0x000000000003c368                gcmGetDisplayBufferByFlipIndex_fnid
                0x000000000003c36c                gcmGetDefaultCommandWordSize_fnid
                0x000000000003c370                gcmGetDefaultSegmentWordSize_fnid
                0x000000000003c374                gcmSetDefaultCommandBufferAndSegmentWordSize_fnid
                0x000000000003c378                gcmGetDisplayInfo_fnid
                0x000000000003c37c                gcmDumpGraphicsError_fnid
                0x000000000003c380                gcmFunc38_fnid
                0x000000000003c384                gcmGetCurrentDisplayBufferId_fnid
                0x000000000003c388                gcmGetMaxIoMapSize_fnid
                0x000000000003c38c                gcmGetNotifyDataAddress_fnid
                0x000000000003c390                gcmGetReportDataAddress_fnid
                0x000000000003c394                gcmGetReportDataAddressLocation_fnid
                0x000000000003c398                gcmGetReportDataLocation_fnid
                0x000000000003c39c                gcmGetTileInfo_fnid
                0x000000000003c3a0                gcmGetTimeStampLocation_fnid
                0x000000000003c3a4                gcmGetZcullInfo_fnid
                0x000000000003c3a8                gcmInitCursor_fnid
                0x000000000003c3ac                gcmInitDefaultFifoMode_fnid
                0x000000000003c3b0                gcmInitSystemMode_fnid
                0x000000000003c3b4                gcmMapEaIoAddressWithFlags_fnid
                0x000000000003c3b8                gcmMapLocalMemory_fnid
                0x000000000003c3bc                gcmReserveIoMapSize_fnid
                0x000000000003c3c0                gcmSetCursorDisable_fnid
                0x000000000003c3c4                gcmSetCursorEnable_fnid
                0x000000000003c3c8                gcmSetCursorImageOffset_fnid
                0x000000000003c3cc                gcmSetCursorPosition_fnid
                0x000000000003c3d0                gcmSetDefaultFifoSize_fnid
                0x000000000003c3d4                gcmSetFlipCommand_fnid
                0x000000000003c3d8                gcmSetFlipCommandWithWaitLabel_fnid
                0x000000000003c3dc                gcmSysGetLastVBlankTime_fnid
                0x000000000003c3e0                gcmUnreserveIoMapSize_fnid
                0x000000000003c3e4                gcmUpdateCursor_fnid
 .rodata.sceFNID
                0x000000000003c3e8       0xbc /home/louis/Documents/ps3/ps3toolchain/bin/ppu/lib/libio.a(sprx.o)
                0x000000000003c3e8                sys_io
                0x000000000003c3e8                sys_config_start_fnid
                0x000000000003c3ec                sys_config_stop_fnid
                0x000000000003c3f0                sys_config_add_service_listener_fnid
                0x000000000003c3f4                sys_config_remove_service_listener_fnid
                0x000000000003c3f8                sys_config_register_service_fnid
                0x000000000003c3fc                sys_config_unregister_service_fnid
                0x000000000003c400                ioPadInit_fnid
                0x000000000003c404                ioPadEnd_fnid
                0x000000000003c408                ioPadClearBuf_fnid
                0x000000000003c40c                ioPadInfoPressMode_fnid
                0x000000000003c410                ioPadLddRegisterController_fnid
                0x000000000003c414                ioPadGetInfo_fnid
                0x000000000003c418                ioPadGetRawData_fnid
                0x000000000003c41c                ioPadGetDataExtra_fnid
                0x000000000003c420                ioPadInfoSensorMode_fnid
                0x000000000003c424                ioPadGetData_fnid
                0x000000000003c428                ioPadLddGetPortNo_fnid
                0x000000000003c42c                ioPadLddDataInsert_fnid
                0x000000000003c430                ioPadSetSensorMode_fnid
                0x000000000003c434                ioPadGetCapabilityInfo_fnid
                0x000000000003c438                ioPadLddUnregisterController_fnid
                0x000000000003c43c                ioPadSetActDirect_fnid
                0x000000000003c440                ioPadSetPressMode_fnid
                0x000000000003c444                ioPadPeriphGetInfo_fnid
                0x000000000003c448                ioPadSetPortSetting_fnid
                0x000000000003c44c                ioPadPeriphGetData_fnid
                0x000000000003c450                ioPadGetInfo2_fnid
                0x000000000003c454                ioMouseInit_fnid
                0x000000000003c458                ioMouseEnd_fnid
                0x000000000003c45c                ioMouseClearBuf_fnid
                0x000000000003c460                ioMouseGetInfo_fnid
                0x000000000003c464                ioMouseGetTabletDataList_fnid
                0x000000000003c468                ioMouseSetTabletMode_fnid
                0x000000000003c46c                ioMouseGetData_fnid
                0x000000000003c470                ioMouseInfoTabletMode_fnid
                0x000000000003c474                ioMouseGetRawData_fnid
                0x000000000003c478                ioMouseGetDataList_fnid
                0x000000000003c47c                ioKbInit_fnid
                0x000000000003c480                ioKbEnd_fnid
                0x000000000003c484                ioKbRead_fnid
                0x000000000003c488                ioKbSetReadMode_fnid
                0x000000000003c48c                ioKbSetCodeType_fnid
                0x000000000003c490                ioKbCnvRawCode_fnid
                0x000000000003c494                ioKbSetLEDStatus_fnid
                0x000000000003c498                ioKbGetInfo_fnid
                0x000000000003c49c                ioKbGetConfiguration_fnid
                0x000000000003c4a0                ioKbClearBuf_fnid
 .rodata.sceFNID
                0x000000000003c4a4      0x148 /home/louis/Documents/ps3/ps3toolchain/bin/ppu/lib/libsysutil.a(sprx.o)
                0x000000000003c4a4                videoGetResolution_fnid
                0x000000000003c4a4                cellSysutil
                0x000000000003c4a8                videoConfigure_fnid
                0x000000000003c4ac                videoGetState_fnid
                0x000000000003c4b0                videoGetDeviceInfo_fnid
                0x000000000003c4b4                videoGetConfiguration_fnid
                0x000000000003c4b8                videoGetResolutionAvailability_fnid
                0x000000000003c4bc                videoDebugSetMonitorType_fnid
                0x000000000003c4c0                videoRegisterCallbackEx_fnid
                0x000000000003c4c4                videoUnregisterCallback_fnid
                0x000000000003c4c8                videoGetNumberOfDevice_fnid
                0x000000000003c4cc                videoGetConvertCursorColorInfo_fnid
                0x000000000003c4d0                msgDialogClose_fnid
                0x000000000003c4d4                msgDialogOpenErrorCodeEx_fnid
                0x000000000003c4d8                msgDialogOpenEx_fnid
                0x000000000003c4dc                msgDialogProgressBarInc_fnid
                0x000000000003c4e0                msgDialogAbort_fnid
                0x000000000003c4e4                msgDialogOpen2Ex_fnid
                0x000000000003c4e8                msgDialogProgressBarReset_fnid
                0x000000000003c4ec                msgDialogProgressBarSetMsg_fnid
                0x000000000003c4f0                oskGetInputText_fnid
                0x000000000003c4f4                oskSetInitialInputDevice_fnid
                0x000000000003c4f8                oskGetSize_fnid
                0x000000000003c4fc                oskUnloadAsync_fnid
                0x000000000003c500                oskDisableDimmer_fnid
                0x000000000003c504                oskSetKeyLayoutOption_fnid
                0x000000000003c508                oskAbort_fnid
                0x000000000003c50c                oskSetDeviceMask_fnid
                0x000000000003c510                oskSetSeparateWindowOption_fnid
                0x000000000003c514                oskAddSupportLanguage_fnid
                0x000000000003c518                oskLoadAsync_fnid
                0x000000000003c51c                oskSetInitialKeyLayout_fnid
                0x000000000003c520                oskSetLayoutMode_fnid
                0x000000000003c524                sysUtilRegisterCallbackEx_fnid
                0x000000000003c528                sysUtilCheckCallback_fnid
                0x000000000003c52c                sysUtilUnregisterCallback_fnid
                0x000000000003c530                sysUtilGetSystemParamInt_fnid
                0x000000000003c534                sysUtilGetSystemParamString_fnid
                0x000000000003c538                sysSaveListLoad2Ex_fnid
                0x000000000003c53c                sysSaveListSave2Ex_fnid
                0x000000000003c540                sysSaveListAutoLoadEx_fnid
                0x000000000003c544                sysSaveListAutoSaveEx_fnid
                0x000000000003c548                sysSaveFixedLoad2Ex_fnid
                0x000000000003c54c                sysSaveFixedSave2Ex_fnid
                0x000000000003c550                sysSaveAutoLoad2Ex_fnid
                0x000000000003c554                sysSaveAutoSave2Ex_fnid
                0x000000000003c558                sysSaveDelete2_fnid
                0x000000000003c55c                sysGameDataCheck_fnid
                0x000000000003c560                sysGameBootCheck_fnid
                0x000000000003c564                sysGamePatchCheck_fnid
                0x000000000003c568                sysGameCreateGameData_fnid
                0x000000000003c56c                sysGameGetParamInt_fnid
                0x000000000003c570                sysGameGetParamString_fnid
                0x000000000003c574                sysGameGetSizeKB_fnid
                0x000000000003c578                sysGameSetParamString_fnid
                0x000000000003c57c                sysGameGetDiscContentInfoUpdatePath_fnid
                0x000000000003c580                sysGameContentPermit_fnid
                0x000000000003c584                sysGameContentErrorDialog_fnid
                0x000000000003c588                sysGameThemeInstall_fnid
                0x000000000003c58c                sysGameThemeInstallFromBufferEx_fnid
                0x000000000003c590                sysGameGetLocalWebContentPath_fnid
                0x000000000003c594                sysGameDeleteGameData_fnid
                0x000000000003c598                sysGameRegisterDiscChangeCallbackEx_fnid
                0x000000000003c59c                sysGameUnregisterDiscChangeCallback_fnid
                0x000000000003c5a0                sysDiscRegisterDiscChangeCallbackEx_fnid
                0x000000000003c5a4                sysDiscUnregisterDiscChangeCallback_fnid
                0x000000000003c5a8                sysTrophyInit_fnid
                0x000000000003c5ac                sysTrophyAbortHandle_fnid
                0x000000000003c5b0                sysTrophyCreateContext_fnid
                0x000000000003c5b4                sysTrophyCreateHandle_fnid
                0x000000000003c5b8                sysTrophyDestroyContext_fnid
                0x000000000003c5bc                sysTrophyDestroyHandle_fnid
                0x000000000003c5c0                sysTrophyGetGameIcon_fnid
                0x000000000003c5c4                sysTrophyGetGameInfo_fnid
                0x000000000003c5c8                sysTrophyGetGameProgress_fnid
                0x000000000003c5cc                sysTrophyGetRequiredDiskSpace_fnid
                0x000000000003c5d0                sysTrophyGetTrophyIcon_fnid
                0x000000000003c5d4                sysTrophyGetTrophyInfo_fnid
                0x000000000003c5d8                sysTrophyGetTrophyUnlockState_fnid
                0x000000000003c5dc                sysTrophyRegisterContextEx_fnid
                0x000000000003c5e0                sysTrophySetSoundLevel_fnid
                0x000000000003c5e4                sysTrophyTerm_fnid
                0x000000000003c5e8                sysTrophyUnlockTrophy_fnid
 .rodata.sceFNID
                0x000000000003c5ec      0x1dc /home/louis/Documents/ps3/ps3toolchain/bin/ppu/lib/liblv2.a(sprx.o)
                0x000000000003c5ec                sysGetSystemTime_fnid
                0x000000000003c5ec                sysPrxForUser
                0x000000000003c5f0                sysGetSystemSwVersion_fnid
                0x000000000003c5f4                sysGetTemperature_fnid
                0x000000000003c5f8                sysGetRandomNumber_fnid
                0x000000000003c5fc                sysGetRtcStatus_fnid
                0x000000000003c600                sysBoardStorageRead_fnid
                0x000000000003c604                sysBoardStorageWrite_fnid
                0x000000000003c608                sysProcessIsStack_fnid
                0x000000000003c60c                sysProcessExit_fnid
                0x000000000003c610                sysProcessExitspawn_fnid
                0x000000000003c614                sysProcessExitSpawn2Ex_fnid
                0x000000000003c618                sysProcessExitSpawnWithLevel_fnid
                0x000000000003c61c                sysProcessAtExitSpawn_fnid
                0x000000000003c620                sysProcess_At_ExitSpawn_fnid
                0x000000000003c624                sysPrxRegisterLibrary_fnid
                0x000000000003c628                sysPrxUnregisterLibrary_fnid
                0x000000000003c62c                sysPrxStartModule_fnid
                0x000000000003c630                sysPrxStopModule_fnid
                0x000000000003c634                sysPrxLoadModule_fnid
                0x000000000003c638                sysPrxLoadModuleByFd_fnid
                0x000000000003c63c                sysPrxLoadModuleList_fnid
                0x000000000003c640                sysPrxLoadModuleListOnMemcontainer_fnid
                0x000000000003c644                sysPrxLoadModuleOnMemcontainer_fnid
                0x000000000003c648                sysPrxLoadModuleOnMemcontainerByFd_fnid
                0x000000000003c64c                sysPrxGetModuleInfo_fnid
                0x000000000003c650                sysPrxGetModuleList_fnid
                0x000000000003c654                sysPrxGetModuleId_fnid
                0x000000000003c658                sysPrxGetModuleIdByAddress_fnid
                0x000000000003c65c                sysPrxGetModuleIdByName_fnid
                0x000000000003c660                sysPrxUnloadModule_fnid
                0x000000000003c664                sysPrxExitSpawnWithLevel_fnid
                0x000000000003c668                sysThreadCreateEx_fnid
                0x000000000003c66c                sysThreadExit_fnid
                0x000000000003c670                sysThreadGetId_fnid
                0x000000000003c674                sysThreadOnce_fnid
                0x000000000003c678                sysThreadInitialzeTLS_fnid
                0x000000000003c67c                sysThreadRegisterAtexit_fnid
                0x000000000003c680                sysThreadUnregisterAtexit_fnid
                0x000000000003c684                sysInterruptThreadDisestablish_fnid
                0x000000000003c688                sysLwMutexCreate_fnid
                0x000000000003c68c                sysLwMutexDestroy_fnid
                0x000000000003c690                sysLwMutexLock_fnid
                0x000000000003c694                sysLwMutexTryLock_fnid
                0x000000000003c698                sysLwMutexUnlock_fnid
                0x000000000003c69c                sysLwCondCreate_fnid
                0x000000000003c6a0                sysLwCondWait_fnid
                0x000000000003c6a4                sysLwCondSignal_fnid
                0x000000000003c6a8                sysLwCondSignalTo_fnid
                0x000000000003c6ac                sysLwCondSignalAll_fnid
                0x000000000003c6b0                sysLwCondDestroy_fnid
                0x000000000003c6b4                sysSpinlockInitialize_fnid
                0x000000000003c6b8                sysSpinlockLock_fnid
                0x000000000003c6bc                sysSpinlockTryLock_fnid
                0x000000000003c6c0                sysSpinlockUnlock_fnid
                0x000000000003c6c4                sysWatchdogClear_fnid
                0x000000000003c6c8                sysWatchdogStart_fnid
                0x000000000003c6cc                sysWatchdogStop_fnid
                0x000000000003c6d0                sysMalloc_fnid
                0x000000000003c6d4                sysMemalign_fnid
                0x000000000003c6d8                sysMemchr_fnid
                0x000000000003c6dc                sysMemcmp_fnid
                0x000000000003c6e0                sysMemcpy_fnid
                0x000000000003c6e4                sysMemmove_fnid
                0x000000000003c6e8                sysMemset_fnid
                0x000000000003c6ec                sysFree_fnid
                0x000000000003c6f0                sysHeapAllocHeapMemory_fnid
                0x000000000003c6f4                sysHeapCreateHeap_fnid
                0x000000000003c6f8                sysHeapDeleteHeap_fnid
                0x000000000003c6fc                sysHeapFree_fnid
                0x000000000003c700                sysHeapGetMallInfo_fnid
                0x000000000003c704                sysHeapGetTotalFreeSize_fnid
                0x000000000003c708                sysHeapMalloc_fnid
                0x000000000003c70c                sysHeapMemalign_fnid
                0x000000000003c710                sysHeapStats_fnid
                0x000000000003c714                sysQsort_fnid
                0x000000000003c718                sysMempoolCreate_fnid
                0x000000000003c71c                sysMempoolDestroy_fnid
                0x000000000003c720                sysMempoolGetCount_fnid
                0x000000000003c724                sysMempoolAllocateBlock_fnid
                0x000000000003c728                sysMempoolTryAllocateBlock_fnid
                0x000000000003c72c                sysMempoolFreeBlock_fnid
                0x000000000003c730                sysMMapperFreeMemory_fnid
                0x000000000003c734                sysMMapperMapMemory_fnid
                0x000000000003c738                sysMMapperUnmapMemory_fnid
                0x000000000003c73c                sysMMapperAllocateMemory_fnid
                0x000000000003c740                sysMMapperAllocateMemoryFromContainer_fnid
                0x000000000003c744                sysStrlen_fnid
                0x000000000003c748                sysStrcpy_fnid
                0x000000000003c74c                sysStrncpy_fnid
                0x000000000003c750                sysStrcat_fnid
                0x000000000003c754                sysStrncat_fnid
                0x000000000003c758                sysStrchr_fnid
                0x000000000003c75c                sysStrrchr_fnid
                0x000000000003c760                sysStrcmp_fnid
                0x000000000003c764                sysStrncmp_fnid
                0x000000000003c768                sysStrncasecmp_fnid
                0x000000000003c76c                sysToLower_fnid
                0x000000000003c770                sysToUpper_fnid
                0x000000000003c774                sysSpuElfGetSegments_fnid
                0x000000000003c778                sysSpuElfGetInformation_fnid
                0x000000000003c77c                sysSpuRawLoad_fnid
                0x000000000003c780                sysSpuRawImageLoad_fnid
                0x000000000003c784                sysSpuImageClose_fnid
                0x000000000003c788                sysSpuImageImport_fnid
                0x000000000003c78c                sysSpuPrintfAttachGroupEx_fnid
                0x000000000003c790                sysSpuPrintfAttachThreadEx_fnid
                0x000000000003c794                sysSpuPrintfDetachGroupEx_fnid
                0x000000000003c798                sysSpuPrintfDetachThreadEx_fnid
                0x000000000003c79c                sysSpuPrintfFinalizeEx_fnid
                0x000000000003c7a0                sysSpuPrintfInitializeEx_fnid
                0x000000000003c7a4                sysConsoleGetc_fnid
                0x000000000003c7a8                sysConsolePutc_fnid
                0x000000000003c7ac                sysConsoleWrite_fnid
                0x000000000003c7b0                sysPrintf_fnid
                0x000000000003c7b4                sysSprintf_fnid
                0x000000000003c7b8                sysSnprintf_fnid
                0x000000000003c7bc                sysVprintf_fnid
                0x000000000003c7c0                sysVsprintf_fnid
                0x000000000003c7c4                sysVsnprintf_fnid

.rodata.sceVNID
 *(.rodata.sceVNID .rodata.sceVNID.*)

.rodata.sceTNID
 *(.rodata.sceTNID .rodata.sceTNID.*)

.rodata.sceVStub
 *(.rodata.sceVStub)
 *(SORT(.rodata.sceVStub.*))
                0x000000000003c7c8                PROVIDE (__libentstart, .)

.lib.ent.top
 *(.lib.ent.top)

.lib.ent        0x000000000003c7c8        0x0
 *(.lib.ent)
 .lib.ent       0x000000000003c7c8        0x0 /home/louis/Documents/ps3/ps3toolchain/bin/ppu/lib/gcc/powerpc64-ps3-elf/7.2.0/../../../../powerpc64-ps3-elf/lib/lv2-sprx.o

.lib.ent.btm
 *(.lib.ent.btm)
                0x000000000003c7c8                PROVIDE (__libentend, .)
                0x000000000003c7c8                PROVIDE (__libstubstart, .)

.lib.stub.top
 *(.lib.stub.top)

.lib.stub       0x000000000003c7c8       0xb0
 *(.lib.stub)
 .lib.stub      0x000000000003c7c8        0x0 /home/louis/Documents/ps3/ps3toolchain/bin/ppu/lib/gcc/powerpc64-ps3-elf/7.2.0/../../../../powerpc64-ps3-elf/lib/lv2-sprx.o
 .lib.stub      0x000000000003c7c8       0x2c /home/louis/Documents/ps3/ps3toolchain/bin/ppu/lib/libgcm_sys.a(sprx.o)
 .lib.stub      0x000000000003c7f4       0x2c /home/louis/Documents/ps3/ps3toolchain/bin/ppu/lib/libio.a(sprx.o)
 .lib.stub      0x000000000003c820       0x2c /home/louis/Documents/ps3/ps3toolchain/bin/ppu/lib/libsysutil.a(sprx.o)
 .lib.stub      0x000000000003c84c       0x2c /home/louis/Documents/ps3/ps3toolchain/bin/ppu/lib/liblv2.a(sprx.o)

.lib.stub.btm
 *(.lib.stub.btm)
                0x000000000003c878                PROVIDE (__libstubend, .)

.ppu_rodata
 *(.ppu_rodata .ppu_rodata.*)

.sys_proc_param
 *(.sys_proc_param)

.sys_proc_prx_param
                0x000000000003c878       0x28
 *(.sys_proc_prx_param)
 .sys_proc_prx_param
                0x000000000003c878       0x28 /home/louis/Documents/ps3/ps3toolchain/bin/ppu/lib/gcc/powerpc64-ps3-elf/7.2.0/../../../../powerpc64-ps3-elf/lib/lv2-sprx.o
                0x0000000000040000                . = ALIGN (0x10000)

.ppu_data
 *(.ppu_data .ppu_data.*)

.sdata2
 *(.sdata2 .sdata2.* .gnu.linkonce.s2.*)

.sbss2
 *(.sbss2 .sbss2.* .gnu.linkonce.sb2.*)

.eh_frame
 *(.eh_frame)

.gcc_except_table
 *(.gcc_except_table .gcc_except_table.*)
                0x0000000000040000                . = ALIGN (0x8)

.preinit_array  0x0000000000040000        0x0
                0x0000000000040000                PROVIDE (__preinit_array_start, .)
 *(.preinit_array)
                0x0000000000040000                PROVIDE (__preinit_array_end, .)

.init_array     0x0000000000040000        0x0
                0x0000000000040000                PROVIDE (__init_array_start, .)
 *(SORT(.init_array.*))
 *(.init_array)
                0x0000000000040000                PROVIDE (__init_array_end, .)

.fini_array     0x0000000000040000        0x0
                0x0000000000040000                PROVIDE (__fini_array_start, .)
 *(.fini_array)
 *(SORT(.fini_array.*))
                0x0000000000040000                PROVIDE (__fini_array_end, .)

.ctors          0x0000000000040000       0x30
 *crtbegin.o(.ctors)
 .ctors         0x0000000000040000        0x8 /home/louis/Documents/ps3/ps3toolchain/bin/ppu/lib/gcc/powerpc64-ps3-elf/7.2.0/crtbegin.o
 *crtbegin?.o(.ctors)
 *(EXCLUDE_FILE(*crtend?.o *crtend.o) .ctors)
 *(SORT(.ctors.*))
 .ctors.65430   0x0000000000040008        0x8 /home/louis/Documents/ps3/ps3toolchain/bin/ppu/lib/librt.a(globfile.o)
 .ctors.65430   0x0000000000040010        0x8 /home/louis/Documents/ps3/ps3toolchain/bin/ppu/lib/gcc/powerpc64-ps3-elf/7.2.0/../../../../powerpc64-ps3-elf/lib/libc.a(lib_a-lock_internal.o)
 .ctors.65431   0x0000000000040018        0x8 /home/louis/Documents/ps3/ps3toolchain/bin/ppu/lib/gcc/powerpc64-ps3-elf/7.2.0/../../../../powerpc64-ps3-elf/lib/lv2-crt0.o
 .ctors.65432   0x0000000000040020        0x8 /home/louis/Documents/ps3/ps3toolchain/bin/ppu/lib/librt.a(sbrk.o)
 *(.ctors)
 .ctors         0x0000000000040028        0x8 /home/louis/Documents/ps3/ps3toolchain/bin/ppu/lib/gcc/powerpc64-ps3-elf/7.2.0/crtend.o

.dtors          0x0000000000040030       0x10
 *crtbegin.o(.dtors)
 .dtors         0x0000000000040030        0x8 /home/louis/Documents/ps3/ps3toolchain/bin/ppu/lib/gcc/powerpc64-ps3-elf/7.2.0/crtbegin.o
 *crtbegin?.o(.dtors)
 *(EXCLUDE_FILE(*crtend?.o *crtend.o) .dtors)
 *(SORT(.dtors.*))
 *(.dtors)
 .dtors         0x0000000000040038        0x8 /home/louis/Documents/ps3/ps3toolchain/bin/ppu/lib/gcc/powerpc64-ps3-elf/7.2.0/crtend.o
                0x0000000000040038                __DTOR_END__

.jcr
 *(.jcr)

.data.rel.ro
 *(.data.rel.ro.local*)
 *(.data.rel.ro*)

.dynamic
 *(.dynamic)

.data.sceFStub  0x0000000000040040      0x53c
 *(.data.sceFStub)
 *(SORT(.data.sceFStub.*))
 .data.sceFStub.cellGcmSys
                0x0000000000040040      0x15c /home/louis/Documents/ps3/ps3toolchain/bin/ppu/lib/libgcm_sys.a(sprx.o)
                0x0000000000040040                gcmInitBodyEx_stub
                0x0000000000040044                gcmSetDisplayBuffer_stub
                0x0000000000040048                gcmGetControlRegister_stub
                0x000000000004004c                gcmAddressToOffset_stub
                0x0000000000040050                gcmGetConfiguration_stub
                0x0000000000040054                gcmGetCurrentField_stub
                0x0000000000040058                gcmSetFlipMode_stub
                0x000000000004005c                gcmGetFlipStatus_stub
                0x0000000000040060                gcmGetLastFlipTime_stub
                0x0000000000040064                gcmGetVBlankCount_stub
                0x0000000000040068                gcmSetWaitFlip_stub
                0x000000000004006c                gcmSetFlipStatus_stub
                0x0000000000040070                gcmResetFlipStatus_stub
                0x0000000000040074                gcmSetFlip_stub
                0x0000000000040078                gcmSetFlipImmediate_stub
                0x000000000004007c                gcmFunc15_stub
                0x0000000000040080                gcmFunc3_stub
                0x0000000000040084                gcmFunc1_stub
                0x0000000000040088                gcmFunc2_stub
                0x000000000004008c                gcmFunc4_stub
                0x0000000000040090                gcmFunc12_stub
                0x0000000000040094                gcmFunc13_stub
                0x0000000000040098                gcmGetReport_stub
                0x000000000004009c                gcmSetTile_stub
                0x00000000000400a0                gcmBindTile_stub
                0x00000000000400a4                gcmUnbindTile_stub
                0x00000000000400a8                gcmSetZcull_stub
                0x00000000000400ac                gcmBindZcull_stub
                0x00000000000400b0                gcmUnbindZcull_stub
                0x00000000000400b4                gcmGetTimeStamp_stub
                0x00000000000400b8                gcmSetVBlankFrequency_stub
                0x00000000000400bc                gcmSetSecondVFrequency_stub
                0x00000000000400c0                gcmSetDebugOutputLevel_stub
                0x00000000000400c4                gcmGetLabelAddress_stub
                0x00000000000400c8                gcmSetVBlankHandlerEx_stub
                0x00000000000400cc                gcmSetFlipHandlerEx_stub
                0x00000000000400d0                gcmSetSecondVHandlerEx_stub
                0x00000000000400d4                gcmSetGraphicsHandlerEx_stub
                0x00000000000400d8                gcmTerminate_stub
                0x00000000000400dc                gcmMapMainMemory_stub
                0x00000000000400e0                gcmMapEaIoAddress_stub
                0x00000000000400e4                gcmUnmapEaIoAddress_stub
                0x00000000000400e8                gcmUnmapIoAddress_stub
                0x00000000000400ec                gcmIoOffsetToAddressEx_stub
                0x00000000000400f0                gcmSetDefaultCommandBuffer_stub
                0x00000000000400f4                gcmSetTileInfo_stub
                0x00000000000400f8                gcmGetTiledPitchSize_stub
                0x00000000000400fc                gcmSetInvalidateTile_stub
                0x0000000000040100                gcmSetUserCommandEx_stub
                0x0000000000040104                gcmSetUserHandlerEx_stub
                0x0000000000040108                gcmSetQueueHandlerEx_stub
                0x000000000004010c                gcmSetPrepareFlip_stub
                0x0000000000040110                gcmGetOffsetTable_stub
                0x0000000000040114                gcmGetLastSecondVTime_stub
                0x0000000000040118                gcmSortRemapEaIoAddress_stub
                0x000000000004011c                gcmGetDisplayBufferByFlipIndex_stub
                0x0000000000040120                gcmGetDefaultCommandWordSize_stub
                0x0000000000040124                gcmGetDefaultSegmentWordSize_stub
                0x0000000000040128                gcmSetDefaultCommandBufferAndSegmentWordSize_stub
                0x000000000004012c                gcmGetDisplayInfo_stub
                0x0000000000040130                gcmDumpGraphicsError_stub
                0x0000000000040134                gcmFunc38_stub
                0x0000000000040138                gcmGetCurrentDisplayBufferId_stub
                0x000000000004013c                gcmGetMaxIoMapSize_stub
                0x0000000000040140                gcmGetNotifyDataAddress_stub
                0x0000000000040144                gcmGetReportDataAddress_stub
                0x0000000000040148                gcmGetReportDataAddressLocation_stub
                0x000000000004014c                gcmGetReportDataLocation_stub
                0x0000000000040150                gcmGetTileInfo_stub
                0x0000000000040154                gcmGetTimeStampLocation_stub
                0x0000000000040158                gcmGetZcullInfo_stub
                0x000000000004015c                gcmInitCursor_stub
                0x0000000000040160                gcmInitDefaultFifoMode_stub
                0x0000000000040164                gcmInitSystemMode_stub
                0x0000000000040168                gcmMapEaIoAddressWithFlags_stub
                0x000000000004016c                gcmMapLocalMemory_stub
                0x0000000000040170                gcmReserveIoMapSize_stub
                0x0000000000040174                gcmSetCursorDisable_stub
                0x0000000000040178                gcmSetCursorEnable_stub
                0x000000000004017c                gcmSetCursorImageOffset_stub
                0x0000000000040180                gcmSetCursorPosition_stub
                0x0000000000040184                gcmSetDefaultFifoSize_stub
                0x0000000000040188                gcmSetFlipCommand_stub
                0x000000000004018c                gcmSetFlipCommandWithWaitLabel_stub
                0x0000000000040190                gcmSysGetLastVBlankTime_stub
                0x0000000000040194                gcmUnreserveIoMapSize_stub
                0x0000000000040198                gcmUpdateCursor_stub
 .data.sceFStub.cellSysutil
                0x000000000004019c      0x148 /home/louis/Documents/ps3/ps3toolchain/bin/ppu/lib/libsysutil.a(sprx.o)
                0x000000000004019c                videoGetResolution_stub
                0x00000000000401a0                videoConfigure_stub
                0x00000000000401a4                videoGetState_stub
                0x00000000000401a8                videoGetDeviceInfo_stub
                0x00000000000401ac                videoGetConfiguration_stub
                0x00000000000401b0                videoGetResolutionAvailability_stub
                0x00000000000401b4                videoDebugSetMonitorType_stub
                0x00000000000401b8                videoRegisterCallbackEx_stub
                0x00000000000401bc                videoUnregisterCallback_stub
                0x00000000000401c0                videoGetNumberOfDevice_stub
                0x00000000000401c4                videoGetConvertCursorColorInfo_stub
                0x00000000000401c8                msgDialogClose_stub
                0x00000000000401cc                msgDialogOpenErrorCodeEx_stub
                0x00000000000401d0                msgDialogOpenEx_stub
                0x00000000000401d4                msgDialogProgressBarInc_stub
                0x00000000000401d8                msgDialogAbort_stub
                0x00000000000401dc                msgDialogOpen2Ex_stub
                0x00000000000401e0                msgDialogProgressBarReset_stub
                0x00000000000401e4                msgDialogProgressBarSetMsg_stub
                0x00000000000401e8                oskGetInputText_stub
                0x00000000000401ec                oskSetInitialInputDevice_stub
                0x00000000000401f0                oskGetSize_stub
                0x00000000000401f4                oskUnloadAsync_stub
                0x00000000000401f8                oskDisableDimmer_stub
                0x00000000000401fc                oskSetKeyLayoutOption_stub
                0x0000000000040200                oskAbort_stub
                0x0000000000040204                oskSetDeviceMask_stub
                0x0000000000040208                oskSetSeparateWindowOption_stub
                0x000000000004020c                oskAddSupportLanguage_stub
                0x0000000000040210                oskLoadAsync_stub
                0x0000000000040214                oskSetInitialKeyLayout_stub
                0x0000000000040218                oskSetLayoutMode_stub
                0x000000000004021c                sysUtilRegisterCallbackEx_stub
                0x0000000000040220                sysUtilCheckCallback_stub
                0x0000000000040224                sysUtilUnregisterCallback_stub
                0x0000000000040228                sysUtilGetSystemParamInt_stub
                0x000000000004022c                sysUtilGetSystemParamString_stub
                0x0000000000040230                sysSaveListLoad2Ex_stub
                0x0000000000040234                sysSaveListSave2Ex_stub
                0x0000000000040238                sysSaveListAutoLoadEx_stub
                0x000000000004023c                sysSaveListAutoSaveEx_stub
                0x0000000000040240                sysSaveFixedLoad2Ex_stub
                0x0000000000040244                sysSaveFixedSave2Ex_stub
                0x0000000000040248                sysSaveAutoLoad2Ex_stub
                0x000000000004024c                sysSaveAutoSave2Ex_stub
                0x0000000000040250                sysSaveDelete2_stub
                0x0000000000040254                sysGameDataCheck_stub
                0x0000000000040258                sysGameBootCheck_stub
                0x000000000004025c                sysGamePatchCheck_stub
                0x0000000000040260                sysGameCreateGameData_stub
                0x0000000000040264                sysGameGetParamInt_stub
                0x0000000000040268                sysGameGetParamString_stub
                0x000000000004026c                sysGameGetSizeKB_stub
                0x0000000000040270                sysGameSetParamString_stub
                0x0000000000040274                sysGameGetDiscContentInfoUpdatePath_stub
                0x0000000000040278                sysGameContentPermit_stub
                0x000000000004027c                sysGameContentErrorDialog_stub
                0x0000000000040280                sysGameThemeInstall_stub
                0x0000000000040284                sysGameThemeInstallFromBufferEx_stub
                0x0000000000040288                sysGameGetLocalWebContentPath_stub
                0x000000000004028c                sysGameDeleteGameData_stub
                0x0000000000040290                sysGameRegisterDiscChangeCallbackEx_stub
                0x0000000000040294                sysGameUnregisterDiscChangeCallback_stub
                0x0000000000040298                sysDiscRegisterDiscChangeCallbackEx_stub
                0x000000000004029c                sysDiscUnregisterDiscChangeCallback_stub
                0x00000000000402a0                sysTrophyInit_stub
                0x00000000000402a4                sysTrophyAbortHandle_stub
                0x00000000000402a8                sysTrophyCreateContext_stub
                0x00000000000402ac                sysTrophyCreateHandle_stub
                0x00000000000402b0                sysTrophyDestroyContext_stub
                0x00000000000402b4                sysTrophyDestroyHandle_stub
                0x00000000000402b8                sysTrophyGetGameIcon_stub
                0x00000000000402bc                sysTrophyGetGameInfo_stub
                0x00000000000402c0                sysTrophyGetGameProgress_stub
                0x00000000000402c4                sysTrophyGetRequiredDiskSpace_stub
                0x00000000000402c8                sysTrophyGetTrophyIcon_stub
                0x00000000000402cc                sysTrophyGetTrophyInfo_stub
                0x00000000000402d0                sysTrophyGetTrophyUnlockState_stub
                0x00000000000402d4                sysTrophyRegisterContextEx_stub
                0x00000000000402d8                sysTrophySetSoundLevel_stub
                0x00000000000402dc                sysTrophyTerm_stub
                0x00000000000402e0                sysTrophyUnlockTrophy_stub
 .data.sceFStub.sysPrxForUser
                0x00000000000402e4      0x1dc /home/louis/Documents/ps3/ps3toolchain/bin/ppu/lib/liblv2.a(sprx.o)
                0x00000000000402e4                sysGetSystemTime_stub
                0x00000000000402e8                sysGetSystemSwVersion_stub
                0x00000000000402ec                sysGetTemperature_stub
                0x00000000000402f0                sysGetRandomNumber_stub
                0x00000000000402f4                sysGetRtcStatus_stub
                0x00000000000402f8                sysBoardStorageRead_stub
                0x00000000000402fc                sysBoardStorageWrite_stub
                0x0000000000040300                sysProcessIsStack_stub
                0x0000000000040304                sysProcessExit_stub
                0x0000000000040308                sysProcessExitspawn_stub
                0x000000000004030c                sysProcessExitSpawn2Ex_stub
                0x0000000000040310                sysProcessExitSpawnWithLevel_stub
                0x0000000000040314                sysProcessAtExitSpawn_stub
                0x0000000000040318                sysProcess_At_ExitSpawn_stub
                0x000000000004031c                sysPrxRegisterLibrary_stub
                0x0000000000040320                sysPrxUnregisterLibrary_stub
                0x0000000000040324                sysPrxStartModule_stub
                0x0000000000040328                sysPrxStopModule_stub
                0x000000000004032c                sysPrxLoadModule_stub
                0x0000000000040330                sysPrxLoadModuleByFd_stub
                0x0000000000040334                sysPrxLoadModuleList_stub
                0x0000000000040338                sysPrxLoadModuleListOnMemcontainer_stub
                0x000000000004033c                sysPrxLoadModuleOnMemcontainer_stub
                0x0000000000040340                sysPrxLoadModuleOnMemcontainerByFd_stub
                0x0000000000040344                sysPrxGetModuleInfo_stub
                0x0000000000040348                sysPrxGetModuleList_stub
                0x000000000004034c                sysPrxGetModuleId_stub
                0x0000000000040350                sysPrxGetModuleIdByAddress_stub
                0x0000000000040354                sysPrxGetModuleIdByName_stub
                0x0000000000040358                sysPrxUnloadModule_stub
                0x000000000004035c                sysPrxExitSpawnWithLevel_stub
                0x0000000000040360                sysThreadCreateEx_stub
                0x0000000000040364                sysThreadExit_stub
                0x0000000000040368                sysThreadGetId_stub
                0x000000000004036c                sysThreadOnce_stub
                0x0000000000040370                sysThreadInitialzeTLS_stub
                0x0000000000040374                sysThreadRegisterAtexit_stub
                0x0000000000040378                sysThreadUnregisterAtexit_stub
                0x000000000004037c                sysInterruptThreadDisestablish_stub
                0x0000000000040380                sysLwMutexCreate_stub
                0x0000000000040384                sysLwMutexDestroy_stub
                0x0000000000040388                sysLwMutexLock_stub
                0x000000000004038c                sysLwMutexTryLock_stub
                0x0000000000040390                sysLwMutexUnlock_stub
                0x0000000000040394                sysLwCondCreate_stub
                0x0000000000040398                sysLwCondWait_stub
                0x000000000004039c                sysLwCondSignal_stub
                0x00000000000403a0                sysLwCondSignalTo_stub
                0x00000000000403a4                sysLwCondSignalAll_stub
                0x00000000000403a8                sysLwCondDestroy_stub
                0x00000000000403ac                sysSpinlockInitialize_stub
                0x00000000000403b0                sysSpinlockLock_stub
                0x00000000000403b4                sysSpinlockTryLock_stub
                0x00000000000403b8                sysSpinlockUnlock_stub
                0x00000000000403bc                sysWatchdogClear_stub
                0x00000000000403c0                sysWatchdogStart_stub
                0x00000000000403c4                sysWatchdogStop_stub
                0x00000000000403c8                sysMalloc_stub
                0x00000000000403cc                sysMemalign_stub
                0x00000000000403d0                sysMemchr_stub
                0x00000000000403d4                sysMemcmp_stub
                0x00000000000403d8                sysMemcpy_stub
                0x00000000000403dc                sysMemmove_stub
                0x00000000000403e0                sysMemset_stub
                0x00000000000403e4                sysFree_stub
                0x00000000000403e8                sysHeapAllocHeapMemory_stub
                0x00000000000403ec                sysHeapCreateHeap_stub
                0x00000000000403f0                sysHeapDeleteHeap_stub
                0x00000000000403f4                sysHeapFree_stub
                0x00000000000403f8                sysHeapGetMallInfo_stub
                0x00000000000403fc                sysHeapGetTotalFreeSize_stub
                0x0000000000040400                sysHeapMalloc_stub
                0x0000000000040404                sysHeapMemalign_stub
                0x0000000000040408                sysHeapStats_stub
                0x000000000004040c                sysQsort_stub
                0x0000000000040410                sysMempoolCreate_stub
                0x0000000000040414                sysMempoolDestroy_stub
                0x0000000000040418                sysMempoolGetCount_stub
                0x000000000004041c                sysMempoolAllocateBlock_stub
                0x0000000000040420                sysMempoolTryAllocateBlock_stub
                0x0000000000040424                sysMempoolFreeBlock_stub
                0x0000000000040428                sysMMapperFreeMemory_stub
                0x000000000004042c                sysMMapperMapMemory_stub
                0x0000000000040430                sysMMapperUnmapMemory_stub
                0x0000000000040434                sysMMapperAllocateMemory_stub
                0x0000000000040438                sysMMapperAllocateMemoryFromContainer_stub
                0x000000000004043c                sysStrlen_stub
                0x0000000000040440                sysStrcpy_stub
                0x0000000000040444                sysStrncpy_stub
                0x0000000000040448                sysStrcat_stub
                0x000000000004044c                sysStrncat_stub
                0x0000000000040450                sysStrchr_stub
                0x0000000000040454                sysStrrchr_stub
                0x0000000000040458                sysStrcmp_stub
                0x000000000004045c                sysStrncmp_stub
                0x0000000000040460                sysStrncasecmp_stub
                0x0000000000040464                sysToLower_stub
                0x0000000000040468                sysToUpper_stub
                0x000000000004046c                sysSpuElfGetSegments_stub
                0x0000000000040470                sysSpuElfGetInformation_stub
                0x0000000000040474                sysSpuRawLoad_stub
                0x0000000000040478                sysSpuRawImageLoad_stub
                0x000000000004047c                sysSpuImageClose_stub
                0x0000000000040480                sysSpuImageImport_stub
                0x0000000000040484                sysSpuPrintfAttachGroupEx_stub
                0x0000000000040488                sysSpuPrintfAttachThreadEx_stub
                0x000000000004048c                sysSpuPrintfDetachGroupEx_stub
                0x0000000000040490                sysSpuPrintfDetachThreadEx_stub
                0x0000000000040494                sysSpuPrintfFinalizeEx_stub
                0x0000000000040498                sysSpuPrintfInitializeEx_stub
                0x000000000004049c                sysConsoleGetc_stub
                0x00000000000404a0                sysConsolePutc_stub
                0x00000000000404a4                sysConsoleWrite_stub
                0x00000000000404a8                sysPrintf_stub
                0x00000000000404ac                sysSprintf_stub
                0x00000000000404b0                sysSnprintf_stub
                0x00000000000404b4                sysVprintf_stub
                0x00000000000404b8                sysVsprintf_stub
                0x00000000000404bc                sysVsnprintf_stub
 .data.sceFStub.sys_io
                0x00000000000404c0       0xbc /home/louis/Documents/ps3/ps3toolchain/bin/ppu/lib/libio.a(sprx.o)
                0x00000000000404c0                sys_config_start_stub
                0x00000000000404c4                sys_config_stop_stub
                0x00000000000404c8                sys_config_add_service_listener_stub
                0x00000000000404cc                sys_config_remove_service_listener_stub
                0x00000000000404d0                sys_config_register_service_stub
                0x00000000000404d4                sys_config_unregister_service_stub
                0x00000000000404d8                ioPadInit_stub
                0x00000000000404dc                ioPadEnd_stub
                0x00000000000404e0                ioPadClearBuf_stub
                0x00000000000404e4                ioPadInfoPressMode_stub
                0x00000000000404e8                ioPadLddRegisterController_stub
                0x00000000000404ec                ioPadGetInfo_stub
                0x00000000000404f0                ioPadGetRawData_stub
                0x00000000000404f4                ioPadGetDataExtra_stub
                0x00000000000404f8                ioPadInfoSensorMode_stub
                0x00000000000404fc                ioPadGetData_stub
                0x0000000000040500                ioPadLddGetPortNo_stub
                0x0000000000040504                ioPadLddDataInsert_stub
                0x0000000000040508                ioPadSetSensorMode_stub
                0x000000000004050c                ioPadGetCapabilityInfo_stub
                0x0000000000040510                ioPadLddUnregisterController_stub
                0x0000000000040514                ioPadSetActDirect_stub
                0x0000000000040518                ioPadSetPressMode_stub
                0x000000000004051c                ioPadPeriphGetInfo_stub
                0x0000000000040520                ioPadSetPortSetting_stub
                0x0000000000040524                ioPadPeriphGetData_stub
                0x0000000000040528                ioPadGetInfo2_stub
                0x000000000004052c                ioMouseInit_stub
                0x0000000000040530                ioMouseEnd_stub
                0x0000000000040534                ioMouseClearBuf_stub
                0x0000000000040538                ioMouseGetInfo_stub
                0x000000000004053c                ioMouseGetTabletDataList_stub
                0x0000000000040540                ioMouseSetTabletMode_stub
                0x0000000000040544                ioMouseGetData_stub
                0x0000000000040548                ioMouseInfoTabletMode_stub
                0x000000000004054c                ioMouseGetRawData_stub
                0x0000000000040550                ioMouseGetDataList_stub
                0x0000000000040554                ioKbInit_stub
                0x0000000000040558                ioKbEnd_stub
                0x000000000004055c                ioKbRead_stub
                0x0000000000040560                ioKbSetReadMode_stub
                0x0000000000040564                ioKbSetCodeType_stub
                0x0000000000040568                ioKbCnvRawCode_stub
                0x000000000004056c                ioKbSetLEDStatus_stub
                0x0000000000040570                ioKbGetInfo_stub
                0x0000000000040574                ioKbGetConfiguration_stub
                0x0000000000040578                ioKbClearBuf_stub

.toc1
 *(.toc1)

.opd            0x0000000000040580     0x4a10
 *(.opd)
 .opd           0x0000000000040580       0x30 /home/louis/Documents/ps3/ps3toolchain/bin/ppu/lib/gcc/powerpc64-ps3-elf/7.2.0/../../../../powerpc64-ps3-elf/lib/lv2-crti.o
                0x0000000000040580                _init
                0x0000000000040598                _fini
 .opd           0x00000000000405b0       0x60 /home/louis/Documents/ps3/ps3toolchain/bin/ppu/lib/gcc/powerpc64-ps3-elf/7.2.0/crtbegin.o
 .opd           0x0000000000040610       0x48 /home/louis/Documents/ps3/ps3toolchain/bin/ppu/lib/gcc/powerpc64-ps3-elf/7.2.0/../../../../powerpc64-ps3-elf/lib/lv2-crt0.o
                0x0000000000040640                _initialize
 .opd           0x0000000000040658       0x18 main.o
                0x0000000000040658                main
 .opd           0x0000000000040670       0x30 pad.o
                0x0000000000040670                normalizeAnalogSticks
                0x0000000000040688                getControl
 .opd           0x00000000000406a0       0x48 rendering.o
                0x00000000000406b8                rendering_loop
                0x00000000000406d0                render_pipeline
 .opd           0x00000000000406e8      0x168 /home/louis/Documents/ps3/ps3toolchain/bin/portlibs/ppu/lib/libtiny3d.a(matrix.o)
                0x00000000000406e8                MatrixProjPerspective
                0x0000000000040700                MatrixVectorMultiply
                0x0000000000040718                MatrixVectorMultiply3x3
                0x0000000000040730                MatrixMultiply
                0x0000000000040748                MatrixIdentity
                0x0000000000040760                MatrixTranslation
                0x0000000000040778                MatrixTranspose
                0x0000000000040790                MatrixScale
                0x00000000000407a8                MatrixRotationX
                0x00000000000407c0                MatrixRotationY
                0x00000000000407d8                MatrixRotationZ
                0x00000000000407f0                MatrixRotationAxis
                0x0000000000040808                VectorToUnit
                0x0000000000040820                VectorNormalPlane
                0x0000000000040838                MakeLookAtMatrix
 .opd           0x0000000000040850      0x570 /home/louis/Documents/ps3/ps3toolchain/bin/portlibs/ppu/lib/libtiny3d.a(tiny3d.o)
                0x0000000000040880                tiny3d_Exit
                0x0000000000040910                tiny3d_alarm
                0x0000000000040928                tiny3d_RecordList
                0x0000000000040940                tiny3d_StopList
                0x0000000000040958                tiny3d_FreeList
                0x0000000000040970                tiny3d_DynamicMatrixList
                0x0000000000040988                tiny3d_ApplyMatrixList
                0x00000000000409a0                tiny3d_Init
                0x00000000000409b8                tiny3d_SetPolygon
                0x00000000000409d0                tiny3d_VertexPos
                0x00000000000409e8                tiny3d_VertexPos4
                0x0000000000040a00                tiny3d_VertexPosVector
                0x0000000000040a18                tiny3d_VertexColor
                0x0000000000040a30                tiny3d_VertexFcolor
                0x0000000000040a48                tiny3d_VertexTexture
                0x0000000000040a60                tiny3d_VertexTexture2
                0x0000000000040a78                tiny3d_Normal
                0x0000000000040a90                tiny3d_NormalVector
                0x0000000000040aa8                tiny3d_End
                0x0000000000040ac0                tiny3d_SetMatrixModelView
                0x0000000000040ad8                tiny3d_SetProjectionMatrix
                0x0000000000040af0                tiny3d_Flip
                0x0000000000040b08                tiny3d_UserViewport
                0x0000000000040b20                tiny3d_UserViewport2
                0x0000000000040b38                tiny3d_UserViewportSurface
                0x0000000000040b50                tiny3d_Project2D
                0x0000000000040b68                tiny3d_Project3D
                0x0000000000040b80                tiny3d_Clear
                0x0000000000040b98                tiny3d_ClearSurface
                0x0000000000040bb0                tiny3d_AlphaTest
                0x0000000000040bc8                tiny3d_BlendFunc
                0x0000000000040be0                tiny3d_SetTextureWrap
                0x0000000000040bf8                tiny3d_SetTexture
                0x0000000000040c10                tiny3d_AllocTexture
                0x0000000000040c28                tiny3d_TextureOffset
                0x0000000000040c40                tiny3d_EmissiveMaterial
                0x0000000000040c58                tiny3d_AmbientMaterial
                0x0000000000040c70                tiny3d_DiffuseMaterial
                0x0000000000040c88                tiny3d_SpecularMaterial
                0x0000000000040ca0                tiny3d_SetLightCameraPosition
                0x0000000000040cb8                tiny3d_SetLight
                0x0000000000040cd0                tiny3d_SetLightsOff
                0x0000000000040ce8                tiny3d_SetAmbientLight
                0x0000000000040d00                tiny3d_SelMultiTexturesMethod
                0x0000000000040d18                tiny3d_DrawList
                0x0000000000040d30                tiny3d_MenuActive
                0x0000000000040d48                tiny3d_Enable_YUV
                0x0000000000040d60                tiny3d_Disable_YUV
                0x0000000000040d78                tiny3d_Dirty_Status
                0x0000000000040d90                tiny3d_Get_GCM_Context
                0x0000000000040da8                tiny3d_DoCmd_Space
 .opd           0x0000000000040dc0      0x408 /home/louis/Documents/ps3/ps3toolchain/bin/portlibs/ppu/lib/libtiny3d.a(commands.o)
                0x0000000000040dc0                rsxtiny_MakeCmdSpace
                0x0000000000040dd8                rsxtiny_SetReferenceCommand
                0x0000000000040df0                rsxtiny_SetWriteBackendLabel
                0x0000000000040e08                rsxtiny_SetWaitLabel
                0x0000000000040e20                rsxtiny_SetScissor
                0x0000000000040e38                rsxtiny_SetClearColor
                0x0000000000040e50                rsxtiny_SetClearDepthValue
                0x0000000000040e68                rsxtiny_Nop
                0x0000000000040e80                rsxtiny_ClearBuffers
                0x0000000000040e98                rsxtiny_SetRenderSurface
                0x0000000000040eb0                rsxtiny_SelectRenderTarget
                0x0000000000040ec8                rsxtiny_Viewport
                0x0000000000040ee0                rsxtiny_ViewportClip
                0x0000000000040ef8                rsxtiny_VertexBegin
                0x0000000000040f10                rsxtiny_VertexEnd
                0x0000000000040f28                rsxtiny_Vertex4f
                0x0000000000040f40                rsxtiny_TexCoord2f
                0x0000000000040f58                rsxtiny_SetVertexProgramConstant4f
                0x0000000000040f70                rsxtiny_LoadVertexProgram
                0x0000000000040f88                rsxtiny_SetVertexProgramConstant4fBlock
                0x0000000000040fa0                rsxtiny_InstallFragmentProgram
                0x0000000000040fb8                rsxtiny_LoadFragmentProgram
                0x0000000000040fd0                rsxtiny_InvalidateTextureCache
                0x0000000000040fe8                rsxtiny_SetTexture
                0x0000000000041000                rsxtiny_ViewportTranslate
                0x0000000000041018                rsxtiny_ViewportScale
                0x0000000000041030                rsxtiny_CullFace
                0x0000000000041048                rsxtiny_FrontFace
                0x0000000000041060                rsxtiny_CullEnable
                0x0000000000041078                rsxtiny_AlphaEnable
                0x0000000000041090                rsxtiny_AlphaRef
                0x00000000000410a8                rsxtiny_AlphaFunc
                0x00000000000410c0                rsxtiny_BlendEnable
                0x00000000000410d8                rsxtiny_BlendEquation
                0x00000000000410f0                rsxtiny_BlendFunc
                0x0000000000041108                rsxtiny_ZControl
                0x0000000000041120                rsxtiny_BindVertexBufferAttribute
                0x0000000000041138                rsxtiny_VertexInvalidate
                0x0000000000041150                rsxtiny_DrawVertexBuffer
                0x0000000000041168                rsxtiny_DrawVertexBufferIndex
                0x0000000000041180                rsxtiny_DepthTestEnable
                0x0000000000041198                rsxtiny_DepthTestFunc
                0x00000000000411b0                rsxtiny_DepthWriteEnable
 .opd           0x00000000000411c8       0x48 /home/louis/Documents/ps3/ps3toolchain/bin/portlibs/ppu/lib/libtiny3d.a(glue.o)
                0x00000000000411c8                rsxtiny_FlushBuffer
                0x00000000000411e0                rsxtiny_Init
                0x00000000000411f8                rsxtiny_AddressToOffset
 .opd           0x0000000000041210       0x30 /home/louis/Documents/ps3/ps3toolchain/bin/portlibs/ppu/lib/libtiny3d.a(mm.o)
                0x0000000000041210                rsxtiny_MemAlign
                0x0000000000041228                rsxtiny_Mem
 .opd           0x0000000000041240       0xa8 /home/louis/Documents/ps3/ps3toolchain/bin/portlibs/ppu/lib/libtiny3d.a(realityVP.o)
                0x0000000000041240                rsxtiny_VertexProgramGetUCode
                0x0000000000041258                rsxtiny_VertexProgramGetInputMask
                0x0000000000041270                rsxtiny_VertexProgramGetOutputMask
                0x0000000000041288                rsxtiny_VertexProgramGetAttributes
                0x00000000000412a0                rsxtiny_VertexProgramGetInputAttribute
                0x00000000000412b8                rsxtiny_VertexProgramGetConstants
                0x00000000000412d0                rsxtiny_VertexProgramGetConstant
 .opd           0x00000000000412e8       0x78 /home/louis/Documents/ps3/ps3toolchain/bin/portlibs/ppu/lib/libtiny3d.a(rsxutil.o)
                0x00000000000412e8                waitFlip
                0x0000000000041300                flip
                0x0000000000041318                init_screen
                0x0000000000041330                setupRenderTarget
                0x0000000000041348                setupRenderTarget2
 .opd           0x0000000000041360       0x30 /home/louis/Documents/ps3/ps3toolchain/bin/portlibs/ppu/lib/libtiny3d.a(buffer.o)
                0x0000000000041360                tiny_rsxContextCallback
                0x0000000000041378                commandBufferPut
 .opd           0x0000000000041390      0x828 /home/louis/Documents/ps3/ps3toolchain/bin/ppu/lib/libgcm_sys.a(sprx.o)
                0x0000000000041390                gcmInitBodyEx
                0x00000000000413a8                gcmSetDisplayBuffer
                0x00000000000413c0                gcmGetControlRegister
                0x00000000000413d8                gcmAddressToOffset
                0x00000000000413f0                gcmGetConfiguration
                0x0000000000041408                gcmGetCurrentField
                0x0000000000041420                gcmSetFlipMode
                0x0000000000041438                gcmGetFlipStatus
                0x0000000000041450                gcmGetLastFlipTime
                0x0000000000041468                gcmGetVBlankCount
                0x0000000000041480                gcmSetWaitFlip
                0x0000000000041498                gcmSetFlipStatus
                0x00000000000414b0                gcmResetFlipStatus
                0x00000000000414c8                gcmSetFlip
                0x00000000000414e0                gcmSetFlipImmediate
                0x00000000000414f8                gcmFunc15
                0x0000000000041510                gcmFunc3
                0x0000000000041528                gcmFunc1
                0x0000000000041540                gcmFunc2
                0x0000000000041558                gcmFunc4
                0x0000000000041570                gcmFunc12
                0x0000000000041588                gcmFunc13
                0x00000000000415a0                gcmGetReport
                0x00000000000415b8                gcmSetTile
                0x00000000000415d0                gcmBindTile
                0x00000000000415e8                gcmUnbindTile
                0x0000000000041600                gcmSetZcull
                0x0000000000041618                gcmBindZcull
                0x0000000000041630                gcmUnbindZcull
                0x0000000000041648                gcmGetTimeStamp
                0x0000000000041660                gcmSetVBlankFrequency
                0x0000000000041678                gcmSetSecondVFrequency
                0x0000000000041690                gcmSetDebugOutputLevel
                0x00000000000416a8                gcmGetLabelAddress
                0x00000000000416c0                gcmSetVBlankHandlerEx
                0x00000000000416d8                gcmSetFlipHandlerEx
                0x00000000000416f0                gcmSetSecondVHandlerEx
                0x0000000000041708                gcmSetGraphicsHandlerEx
                0x0000000000041720                gcmTerminate
                0x0000000000041738                gcmMapMainMemory
                0x0000000000041750                gcmMapEaIoAddress
                0x0000000000041768                gcmUnmapEaIoAddress
                0x0000000000041780                gcmUnmapIoAddress
                0x0000000000041798                gcmIoOffsetToAddressEx
                0x00000000000417b0                gcmSetDefaultCommandBuffer
                0x00000000000417c8                gcmSetTileInfo
                0x00000000000417e0                gcmGetTiledPitchSize
                0x00000000000417f8                gcmSetInvalidateTile
                0x0000000000041810                gcmSetUserCommandEx
                0x0000000000041828                gcmSetUserHandlerEx
                0x0000000000041840                gcmSetQueueHandlerEx
                0x0000000000041858                gcmSetPrepareFlip
                0x0000000000041870                gcmGetOffsetTable
                0x0000000000041888                gcmGetLastSecondVTime
                0x00000000000418a0                gcmSortRemapEaIoAddress
                0x00000000000418b8                gcmGetDisplayBufferByFlipIndex
                0x00000000000418d0                gcmGetDefaultCommandWordSize
                0x00000000000418e8                gcmGetDefaultSegmentWordSize
                0x0000000000041900                gcmSetDefaultCommandBufferAndSegmentWordSize
                0x0000000000041918                gcmGetDisplayInfo
                0x0000000000041930                gcmDumpGraphicsError
                0x0000000000041948                gcmFunc38
                0x0000000000041960                gcmGetCurrentDisplayBufferId
                0x0000000000041978                gcmGetMaxIoMapSize
                0x0000000000041990                gcmGetNotifyDataAddress
                0x00000000000419a8                gcmGetReportDataAddress
                0x00000000000419c0                gcmGetReportDataAddressLocation
                0x00000000000419d8                gcmGetReportDataLocation
                0x00000000000419f0                gcmGetTileInfo
                0x0000000000041a08                gcmGetTimeStampLocation
                0x0000000000041a20                gcmGetZcullInfo
                0x0000000000041a38                gcmInitCursor
                0x0000000000041a50                gcmInitDefaultFifoMode
                0x0000000000041a68                gcmInitSystemMode
                0x0000000000041a80                gcmMapEaIoAddressWithFlags
                0x0000000000041a98                gcmMapLocalMemory
                0x0000000000041ab0                gcmReserveIoMapSize
                0x0000000000041ac8                gcmSetCursorDisable
                0x0000000000041ae0                gcmSetCursorEnable
                0x0000000000041af8                gcmSetCursorImageOffset
                0x0000000000041b10                gcmSetCursorPosition
                0x0000000000041b28                gcmSetDefaultFifoSize
                0x0000000000041b40                gcmSetFlipCommand
                0x0000000000041b58                gcmSetFlipCommandWithWaitLabel
                0x0000000000041b70                gcmSysGetLastVBlankTime
                0x0000000000041b88                gcmUnreserveIoMapSize
                0x0000000000041ba0                gcmUpdateCursor
 .opd           0x0000000000041bb8       0xd8 /home/louis/Documents/ps3/ps3toolchain/bin/ppu/lib/libgcm_sys.a(gcm_wrapper.o)
                0x0000000000041bb8                gcmInitBody
                0x0000000000041bd0                gcmIoOffsetToAddress
                0x0000000000041be8                gcmSetVBlankHandler
                0x0000000000041c00                gcmSetFlipHandler
                0x0000000000041c18                gcmSetGraphicsHandler
                0x0000000000041c30                gcmSetSecondVHandler
                0x0000000000041c48                gcmSetUserHandler
                0x0000000000041c60                gcmSetQueueHandler
                0x0000000000041c78                gcmSetUserCommand
 .opd           0x0000000000041c90      0x468 /home/louis/Documents/ps3/ps3toolchain/bin/ppu/lib/libio.a(sprx.o)
                0x0000000000041c90                sys_config_start
                0x0000000000041ca8                sys_config_stop
                0x0000000000041cc0                sys_config_add_service_listener
                0x0000000000041cd8                sys_config_remove_service_listener
                0x0000000000041cf0                sys_config_register_service
                0x0000000000041d08                sys_config_unregister_service
                0x0000000000041d20                ioPadInit
                0x0000000000041d38                ioPadEnd
                0x0000000000041d50                ioPadClearBuf
                0x0000000000041d68                ioPadInfoPressMode
                0x0000000000041d80                ioPadLddRegisterController
                0x0000000000041d98                ioPadGetInfo
                0x0000000000041db0                ioPadGetRawData
                0x0000000000041dc8                ioPadGetDataExtra
                0x0000000000041de0                ioPadInfoSensorMode
                0x0000000000041df8                ioPadGetData
                0x0000000000041e10                ioPadLddGetPortNo
                0x0000000000041e28                ioPadLddDataInsert
                0x0000000000041e40                ioPadSetSensorMode
                0x0000000000041e58                ioPadGetCapabilityInfo
                0x0000000000041e70                ioPadLddUnregisterController
                0x0000000000041e88                ioPadSetActDirect
                0x0000000000041ea0                ioPadSetPressMode
                0x0000000000041eb8                ioPadPeriphGetInfo
                0x0000000000041ed0                ioPadSetPortSetting
                0x0000000000041ee8                ioPadPeriphGetData
                0x0000000000041f00                ioPadGetInfo2
                0x0000000000041f18                ioMouseInit
                0x0000000000041f30                ioMouseEnd
                0x0000000000041f48                ioMouseClearBuf
                0x0000000000041f60                ioMouseGetInfo
                0x0000000000041f78                ioMouseGetTabletDataList
                0x0000000000041f90                ioMouseSetTabletMode
                0x0000000000041fa8                ioMouseGetData
                0x0000000000041fc0                ioMouseInfoTabletMode
                0x0000000000041fd8                ioMouseGetRawData
                0x0000000000041ff0                ioMouseGetDataList
                0x0000000000042008                ioKbInit
                0x0000000000042020                ioKbEnd
                0x0000000000042038                ioKbRead
                0x0000000000042050                ioKbSetReadMode
                0x0000000000042068                ioKbSetCodeType
                0x0000000000042080                ioKbCnvRawCode
                0x0000000000042098                ioKbSetLEDStatus
                0x00000000000420b0                ioKbGetInfo
                0x00000000000420c8                ioKbGetConfiguration
                0x00000000000420e0                ioKbClearBuf
 .opd           0x00000000000420f8      0x7b0 /home/louis/Documents/ps3/ps3toolchain/bin/ppu/lib/libsysutil.a(sprx.o)
                0x00000000000420f8                videoGetResolution
                0x0000000000042110                videoConfigure
                0x0000000000042128                videoGetState
                0x0000000000042140                videoGetDeviceInfo
                0x0000000000042158                videoGetConfiguration
                0x0000000000042170                videoGetResolutionAvailability
                0x0000000000042188                videoDebugSetMonitorType
                0x00000000000421a0                videoRegisterCallbackEx
                0x00000000000421b8                videoUnregisterCallback
                0x00000000000421d0                videoGetNumberOfDevice
                0x00000000000421e8                videoGetConvertCursorColorInfo
                0x0000000000042200                msgDialogClose
                0x0000000000042218                msgDialogOpenErrorCodeEx
                0x0000000000042230                msgDialogOpenEx
                0x0000000000042248                msgDialogProgressBarInc
                0x0000000000042260                msgDialogAbort
                0x0000000000042278                msgDialogOpen2Ex
                0x0000000000042290                msgDialogProgressBarReset
                0x00000000000422a8                msgDialogProgressBarSetMsg
                0x00000000000422c0                oskGetInputText
                0x00000000000422d8                oskSetInitialInputDevice
                0x00000000000422f0                oskGetSize
                0x0000000000042308                oskUnloadAsync
                0x0000000000042320                oskDisableDimmer
                0x0000000000042338                oskSetKeyLayoutOption
                0x0000000000042350                oskAbort
                0x0000000000042368                oskSetDeviceMask
                0x0000000000042380                oskSetSeparateWindowOption
                0x0000000000042398                oskAddSupportLanguage
                0x00000000000423b0                oskLoadAsync
                0x00000000000423c8                oskSetInitialKeyLayout
                0x00000000000423e0                oskSetLayoutMode
                0x00000000000423f8                sysUtilRegisterCallbackEx
                0x0000000000042410                sysUtilCheckCallback
                0x0000000000042428                sysUtilUnregisterCallback
                0x0000000000042440                sysUtilGetSystemParamInt
                0x0000000000042458                sysUtilGetSystemParamString
                0x0000000000042470                sysSaveListLoad2Ex
                0x0000000000042488                sysSaveListSave2Ex
                0x00000000000424a0                sysSaveListAutoLoadEx
                0x00000000000424b8                sysSaveListAutoSaveEx
                0x00000000000424d0                sysSaveFixedLoad2Ex
                0x00000000000424e8                sysSaveFixedSave2Ex
                0x0000000000042500                sysSaveAutoLoad2Ex
                0x0000000000042518                sysSaveAutoSave2Ex
                0x0000000000042530                sysSaveDelete2
                0x0000000000042548                sysGameDataCheck
                0x0000000000042560                sysGameBootCheck
                0x0000000000042578                sysGamePatchCheck
                0x0000000000042590                sysGameCreateGameData
                0x00000000000425a8                sysGameGetParamInt
                0x00000000000425c0                sysGameGetParamString
                0x00000000000425d8                sysGameGetSizeKB
                0x00000000000425f0                sysGameSetParamString
                0x0000000000042608                sysGameGetDiscContentInfoUpdatePath
                0x0000000000042620                sysGameContentPermit
                0x0000000000042638                sysGameContentErrorDialog
                0x0000000000042650                sysGameThemeInstall
                0x0000000000042668                sysGameThemeInstallFromBufferEx
                0x0000000000042680                sysGameGetLocalWebContentPath
                0x0000000000042698                sysGameDeleteGameData
                0x00000000000426b0                sysGameRegisterDiscChangeCallbackEx
                0x00000000000426c8                sysGameUnregisterDiscChangeCallback
                0x00000000000426e0                sysDiscRegisterDiscChangeCallbackEx
                0x00000000000426f8                sysDiscUnregisterDiscChangeCallback
                0x0000000000042710                sysTrophyInit
                0x0000000000042728                sysTrophyAbortHandle
                0x0000000000042740                sysTrophyCreateContext
                0x0000000000042758                sysTrophyCreateHandle
                0x0000000000042770                sysTrophyDestroyContext
                0x0000000000042788                sysTrophyDestroyHandle
                0x00000000000427a0                sysTrophyGetGameIcon
                0x00000000000427b8                sysTrophyGetGameInfo
                0x00000000000427d0                sysTrophyGetGameProgress
                0x00000000000427e8                sysTrophyGetRequiredDiskSpace
                0x0000000000042800                sysTrophyGetTrophyIcon
                0x0000000000042818                sysTrophyGetTrophyInfo
                0x0000000000042830                sysTrophyGetTrophyUnlockState
                0x0000000000042848                sysTrophyRegisterContextEx
                0x0000000000042860                sysTrophySetSoundLevel
                0x0000000000042878                sysTrophyTerm
                0x0000000000042890                sysTrophyUnlockTrophy
 .opd           0x00000000000428a8      0x180 /home/louis/Documents/ps3/ps3toolchain/bin/ppu/lib/libsysutil.a(sysutil_wrapper.o)
                0x00000000000428a8                sysUtilRegisterCallback
                0x00000000000428c0                msgDialogOpen
                0x00000000000428d8                msgDialogOpen2
                0x00000000000428f0                msgDialogOpenErrorCode
                0x0000000000042908                sysSaveListLoad2
                0x0000000000042920                sysSaveListSave2
                0x0000000000042938                sysSaveListAutoLoad
                0x0000000000042950                sysSaveListAutoSave
                0x0000000000042968                sysSaveFixedLoad2
                0x0000000000042980                sysSaveFixedSave2
                0x0000000000042998                sysSaveAutoLoad2
                0x00000000000429b0                sysSaveAutoSave2
                0x00000000000429c8                sysGameThemeInstallFromBuffer
                0x00000000000429e0                sysDiscRegisterDiscChangeCallback
                0x00000000000429f8                sysGameDiscRegisterDiscChangeCallback
                0x0000000000042a10                videoRegisterCallback
 .opd           0x0000000000042a28       0x48 /home/louis/Documents/ps3/ps3toolchain/bin/ppu/lib/librt.a(sbrk.o)
                0x0000000000042a58                __librt_sbrk_r
 .opd           0x0000000000042a70       0x18 /home/louis/Documents/ps3/ps3toolchain/bin/ppu/lib/librt.a(exit.o)
                0x0000000000042a70                __librt_exit
 .opd           0x0000000000042a88       0x18 /home/louis/Documents/ps3/ps3toolchain/bin/ppu/lib/librt.a(close.o)
                0x0000000000042a88                __librt_close_r
 .opd           0x0000000000042aa0       0x30 /home/louis/Documents/ps3/ps3toolchain/bin/ppu/lib/librt.a(lseek.o)
                0x0000000000042aa0                __librt_lseek_r
                0x0000000000042ab8                __librt_lseek64_r
 .opd           0x0000000000042ad0       0x18 /home/louis/Documents/ps3/ps3toolchain/bin/ppu/lib/librt.a(read.o)
                0x0000000000042ad0                __librt_read_r
 .opd           0x0000000000042ae8       0x18 /home/louis/Documents/ps3/ps3toolchain/bin/ppu/lib/librt.a(open.o)
                0x0000000000042ae8                __librt_open_r
 .opd           0x0000000000042b00       0x30 /home/louis/Documents/ps3/ps3toolchain/bin/ppu/lib/librt.a(sleep.o)
                0x0000000000042b00                __librt_usleep_r
                0x0000000000042b18                __librt_sleep_r
 .opd           0x0000000000042b30       0x18 /home/louis/Documents/ps3/ps3toolchain/bin/ppu/lib/librt.a(write.o)
                0x0000000000042b30                __librt_write_r
 .opd           0x0000000000042b48       0x60 /home/louis/Documents/ps3/ps3toolchain/bin/ppu/lib/librt.a(fstat.o)
                0x0000000000042b48                __librt_fstat_r
                0x0000000000042b60                __librt_fstat64_r
                0x0000000000042b78                __librt_stat_r
                0x0000000000042b90                __librt_stat64_r
 .opd           0x0000000000042ba8      0x150 /home/louis/Documents/ps3/ps3toolchain/bin/ppu/lib/librt.a(socket.o)
                0x0000000000042ba8                accept
                0x0000000000042bc0                bind
                0x0000000000042bd8                connect
                0x0000000000042bf0                listen
                0x0000000000042c08                socket
                0x0000000000042c20                send
                0x0000000000042c38                sendto
                0x0000000000042c50                recv
                0x0000000000042c68                recvfrom
                0x0000000000042c80                shutdown
                0x0000000000042c98                inet_aton
                0x0000000000042cb0                inet_pton
                0x0000000000042cc8                select
                0x0000000000042ce0                closesocket
 .opd           0x0000000000042cf8       0x78 /home/louis/Documents/ps3/ps3toolchain/bin/ppu/lib/librt.a(lock.o)
                0x0000000000042cf8                __librt_sys_lwmutex_create_r
                0x0000000000042d10                __librt_sys_lwmutex_destroy_r
                0x0000000000042d28                __librt_sys_lwmutex_lock_r
                0x0000000000042d40                __librt_sys_lwmutex_trylock_r
                0x0000000000042d58                __librt_sys_lwmutex_unlock_r
 .opd           0x0000000000042d70       0xc0 /home/louis/Documents/ps3/ps3toolchain/bin/ppu/lib/librt.a(dirent.o)
                0x0000000000042d88                __librt_opendir_r
                0x0000000000042da0                __librt_readdir_r
                0x0000000000042db8                __librt_readdir_r_r
                0x0000000000042dd0                __librt_closedir_r
                0x0000000000042de8                __librt_telldir_r
                0x0000000000042e00                __librt_rewinddir_r
                0x0000000000042e18                __librt_seekdir_r
 .opd           0x0000000000042e30       0x18 /home/louis/Documents/ps3/ps3toolchain/bin/ppu/lib/librt.a(mkdir.o)
                0x0000000000042e30                __librt_mkdir_r
 .opd           0x0000000000042e48       0x18 /home/louis/Documents/ps3/ps3toolchain/bin/ppu/lib/librt.a(times.o)
                0x0000000000042e48                __librt_times_r
 .opd           0x0000000000042e60       0x18 /home/louis/Documents/ps3/ps3toolchain/bin/ppu/lib/librt.a(umask.o)
                0x0000000000042e60                __librt_umask_r
 .opd           0x0000000000042e78       0x48 /home/louis/Documents/ps3/ps3toolchain/bin/ppu/lib/librt.a(lv2errno.o)
                0x0000000000042e78                lv2error
                0x0000000000042e90                lv2errno
                0x0000000000042ea8                lv2errno_r
 .opd           0x0000000000042ec0       0x78 /home/louis/Documents/ps3/ps3toolchain/bin/ppu/lib/librt.a(heap.o)
                0x0000000000042ed8                heapInit
                0x0000000000042ef0                heapAllocateAligned
                0x0000000000042f08                heapAllocate
                0x0000000000042f20                heapFree
 .opd           0x0000000000042f38       0x18 /home/louis/Documents/ps3/ps3toolchain/bin/ppu/lib/librt.a(chmod.o)
                0x0000000000042f38                __librt_chmod_r
 .opd           0x0000000000042f50       0x18 /home/louis/Documents/ps3/ps3toolchain/bin/ppu/lib/librt.a(rename.o)
                0x0000000000042f50                __librt_rename_r
 .opd           0x0000000000042f68       0x18 /home/louis/Documents/ps3/ps3toolchain/bin/ppu/lib/librt.a(rmdir.o)
                0x0000000000042f68                __librt_rmdir_r
 .opd           0x0000000000042f80       0x18 /home/louis/Documents/ps3/ps3toolchain/bin/ppu/lib/librt.a(isatty.o)
                0x0000000000042f80                __librt_isatty_r
 .opd           0x0000000000042f98       0x18 /home/louis/Documents/ps3/ps3toolchain/bin/ppu/lib/librt.a(gettod.o)
                0x0000000000042f98                __librt_gettod_r
 .opd           0x0000000000042fb0       0x18 /home/louis/Documents/ps3/ps3toolchain/bin/ppu/lib/librt.a(settod.o)
                0x0000000000042fb0                __librt_settod_r
 .opd           0x0000000000042fc8       0x18 /home/louis/Documents/ps3/ps3toolchain/bin/ppu/lib/librt.a(unlink.o)
                0x0000000000042fc8                __librt_unlink_r
 .opd           0x0000000000042fe0       0x18 /home/louis/Documents/ps3/ps3toolchain/bin/ppu/lib/librt.a(link.o)
                0x0000000000042fe0                __librt_link_r
 .opd           0x0000000000042ff8       0x30 /home/louis/Documents/ps3/ps3toolchain/bin/ppu/lib/librt.a(truncate.o)
                0x0000000000042ff8                __librt_truncate_r
                0x0000000000043010                __librt_ftruncate_r
 .opd           0x0000000000043028       0x18 /home/louis/Documents/ps3/ps3toolchain/bin/ppu/lib/librt.a(fsync.o)
                0x0000000000043028                __librt_fsync_r
 .opd           0x0000000000043040       0x18 /home/louis/Documents/ps3/ps3toolchain/bin/ppu/lib/librt.a(utime.o)
                0x0000000000043040                __librt_utime_r
 .opd           0x0000000000043058       0x90 /home/louis/Documents/ps3/ps3toolchain/bin/ppu/lib/librt.a(globfile.o)
                0x00000000000430a0                __full_path
                0x00000000000430b8                __librt_chdir_r
                0x00000000000430d0                __librt_getcwd_r
 .opd           0x00000000000430e8      0xb28 /home/louis/Documents/ps3/ps3toolchain/bin/ppu/lib/liblv2.a(sprx.o)
                0x00000000000430e8                sysGetSystemTime
                0x0000000000043100                sysGetSystemSwVersion
                0x0000000000043118                sysGetTemperature
                0x0000000000043130                sysGetRandomNumber
                0x0000000000043148                sysGetRtcStatus
                0x0000000000043160                sysBoardStorageRead
                0x0000000000043178                sysBoardStorageWrite
                0x0000000000043190                sysProcessIsStack
                0x00000000000431a8                sysProcessExit
                0x00000000000431c0                sysProcessExitspawn
                0x00000000000431d8                sysProcessExitSpawn2Ex
                0x00000000000431f0                sysProcessExitSpawnWithLevel
                0x0000000000043208                sysProcessAtExitSpawn
                0x0000000000043220                sysProcess_At_ExitSpawn
                0x0000000000043238                sysPrxRegisterLibrary
                0x0000000000043250                sysPrxUnregisterLibrary
                0x0000000000043268                sysPrxStartModule
                0x0000000000043280                sysPrxStopModule
                0x0000000000043298                sysPrxLoadModule
                0x00000000000432b0                sysPrxLoadModuleByFd
                0x00000000000432c8                sysPrxLoadModuleList
                0x00000000000432e0                sysPrxLoadModuleListOnMemcontainer
                0x00000000000432f8                sysPrxLoadModuleOnMemcontainer
                0x0000000000043310                sysPrxLoadModuleOnMemcontainerByFd
                0x0000000000043328                sysPrxGetModuleInfo
                0x0000000000043340                sysPrxGetModuleList
                0x0000000000043358                sysPrxGetModuleId
                0x0000000000043370                sysPrxGetModuleIdByAddress
                0x0000000000043388                sysPrxGetModuleIdByName
                0x00000000000433a0                sysPrxUnloadModule
                0x00000000000433b8                sysPrxExitSpawnWithLevel
                0x00000000000433d0                sysThreadCreateEx
                0x00000000000433e8                sysThreadExit
                0x0000000000043400                sysThreadGetId
                0x0000000000043418                sysThreadOnce
                0x0000000000043430                sysThreadInitialzeTLS
                0x0000000000043448                sysThreadRegisterAtexit
                0x0000000000043460                sysThreadUnregisterAtexit
                0x0000000000043478                sysInterruptThreadDisestablish
                0x0000000000043490                sysLwMutexCreate
                0x00000000000434a8                sysLwMutexDestroy
                0x00000000000434c0                sysLwMutexLock
                0x00000000000434d8                sysLwMutexTryLock
                0x00000000000434f0                sysLwMutexUnlock
                0x0000000000043508                sysLwCondCreate
                0x0000000000043520                sysLwCondWait
                0x0000000000043538                sysLwCondSignal
                0x0000000000043550                sysLwCondSignalTo
                0x0000000000043568                sysLwCondSignalAll
                0x0000000000043580                sysLwCondDestroy
                0x0000000000043598                sysSpinlockInitialize
                0x00000000000435b0                sysSpinlockLock
                0x00000000000435c8                sysSpinlockTryLock
                0x00000000000435e0                sysSpinlockUnlock
                0x00000000000435f8                sysWatchdogClear
                0x0000000000043610                sysWatchdogStart
                0x0000000000043628                sysWatchdogStop
                0x0000000000043640                sysMalloc
                0x0000000000043658                sysMemalign
                0x0000000000043670                sysMemchr
                0x0000000000043688                sysMemcmp
                0x00000000000436a0                sysMemcpy
                0x00000000000436b8                sysMemmove
                0x00000000000436d0                sysMemset
                0x00000000000436e8                sysFree
                0x0000000000043700                sysHeapAllocHeapMemory
                0x0000000000043718                sysHeapCreateHeap
                0x0000000000043730                sysHeapDeleteHeap
                0x0000000000043748                sysHeapFree
                0x0000000000043760                sysHeapGetMallInfo
                0x0000000000043778                sysHeapGetTotalFreeSize
                0x0000000000043790                sysHeapMalloc
                0x00000000000437a8                sysHeapMemalign
                0x00000000000437c0                sysHeapStats
                0x00000000000437d8                sysQsort
                0x00000000000437f0                sysMempoolCreate
                0x0000000000043808                sysMempoolDestroy
                0x0000000000043820                sysMempoolGetCount
                0x0000000000043838                sysMempoolAllocateBlock
                0x0000000000043850                sysMempoolTryAllocateBlock
                0x0000000000043868                sysMempoolFreeBlock
                0x0000000000043880                sysMMapperFreeMemory
                0x0000000000043898                sysMMapperMapMemory
                0x00000000000438b0                sysMMapperUnmapMemory
                0x00000000000438c8                sysMMapperAllocateMemory
                0x00000000000438e0                sysMMapperAllocateMemoryFromContainer
                0x00000000000438f8                sysStrlen
                0x0000000000043910                sysStrcpy
                0x0000000000043928                sysStrncpy
                0x0000000000043940                sysStrcat
                0x0000000000043958                sysStrncat
                0x0000000000043970                sysStrchr
                0x0000000000043988                sysStrrchr
                0x00000000000439a0                sysStrcmp
                0x00000000000439b8                sysStrncmp
                0x00000000000439d0                sysStrncasecmp
                0x00000000000439e8                sysToLower
                0x0000000000043a00                sysToUpper
                0x0000000000043a18                sysSpuElfGetSegments
                0x0000000000043a30                sysSpuElfGetInformation
                0x0000000000043a48                sysSpuRawLoad
                0x0000000000043a60                sysSpuRawImageLoad
                0x0000000000043a78                sysSpuImageClose
                0x0000000000043a90                sysSpuImageImport
                0x0000000000043aa8                sysSpuPrintfAttachGroupEx
                0x0000000000043ac0                sysSpuPrintfAttachThreadEx
                0x0000000000043ad8                sysSpuPrintfDetachGroupEx
                0x0000000000043af0                sysSpuPrintfDetachThreadEx
                0x0000000000043b08                sysSpuPrintfFinalizeEx
                0x0000000000043b20                sysSpuPrintfInitializeEx
                0x0000000000043b38                sysConsoleGetc
                0x0000000000043b50                sysConsolePutc
                0x0000000000043b68                sysConsoleWrite
                0x0000000000043b80                sysPrintf
                0x0000000000043b98                sysSprintf
                0x0000000000043bb0                sysSnprintf
                0x0000000000043bc8                sysVprintf
                0x0000000000043be0                sysVsprintf
                0x0000000000043bf8                sysVsnprintf
 .opd           0x0000000000043c10       0x18 /home/louis/Documents/ps3/ps3toolchain/bin/ppu/lib/gcc/powerpc64-ps3-elf/7.2.0/../../../../powerpc64-ps3-elf/lib/libm.a(lib_a-sf_cos.o)
                0x0000000000043c10                cosf
 .opd           0x0000000000043c28       0x18 /home/louis/Documents/ps3/ps3toolchain/bin/ppu/lib/gcc/powerpc64-ps3-elf/7.2.0/../../../../powerpc64-ps3-elf/lib/libm.a(lib_a-sf_sine.o)
                0x0000000000043c28                sinef
 .opd           0x0000000000043c40       0x18 /home/louis/Documents/ps3/ps3toolchain/bin/ppu/lib/gcc/powerpc64-ps3-elf/7.2.0/../../../../powerpc64-ps3-elf/lib/libm.a(lib_a-sf_sin.o)
                0x0000000000043c40                sinf
 .opd           0x0000000000043c58       0x18 /home/louis/Documents/ps3/ps3toolchain/bin/ppu/lib/gcc/powerpc64-ps3-elf/7.2.0/../../../../powerpc64-ps3-elf/lib/libm.a(lib_a-sf_sqrt.o)
                0x0000000000043c58                sqrtf
 .opd           0x0000000000043c70       0x18 /home/louis/Documents/ps3/ps3toolchain/bin/ppu/lib/gcc/powerpc64-ps3-elf/7.2.0/../../../../powerpc64-ps3-elf/lib/libm.a(lib_a-sf_tan.o)
                0x0000000000043c70                tanf
 .opd           0x0000000000043c88       0x18 /home/louis/Documents/ps3/ps3toolchain/bin/ppu/lib/gcc/powerpc64-ps3-elf/7.2.0/../../../../powerpc64-ps3-elf/lib/libm.a(lib_a-s_sqrt.o)
                0x0000000000043c88                sqrt
 .opd           0x0000000000043ca0       0x18 /home/louis/Documents/ps3/ps3toolchain/bin/ppu/lib/gcc/powerpc64-ps3-elf/7.2.0/../../../../powerpc64-ps3-elf/lib/libm.a(lib_a-sf_fabs.o)
                0x0000000000043ca0                fabsf
 .opd           0x0000000000043cb8       0x18 /home/louis/Documents/ps3/ps3toolchain/bin/ppu/lib/gcc/powerpc64-ps3-elf/7.2.0/../../../../powerpc64-ps3-elf/lib/libm.a(lib_a-sf_floor.o)
                0x0000000000043cb8                floorf
 .opd           0x0000000000043cd0       0x18 /home/louis/Documents/ps3/ps3toolchain/bin/ppu/lib/gcc/powerpc64-ps3-elf/7.2.0/../../../../powerpc64-ps3-elf/lib/libm.a(lib_a-sf_frexp.o)
                0x0000000000043cd0                frexpf
 .opd           0x0000000000043ce8       0x18 /home/louis/Documents/ps3/ps3toolchain/bin/ppu/lib/gcc/powerpc64-ps3-elf/7.2.0/../../../../powerpc64-ps3-elf/lib/libm.a(lib_a-sf_ispos.o)
                0x0000000000043ce8                isposf
 .opd           0x0000000000043d00       0x18 /home/louis/Documents/ps3/ps3toolchain/bin/ppu/lib/gcc/powerpc64-ps3-elf/7.2.0/../../../../powerpc64-ps3-elf/lib/libm.a(lib_a-sf_ldexp.o)
                0x0000000000043d00                ldexpf
 .opd           0x0000000000043d18       0x18 /home/louis/Documents/ps3/ps3toolchain/bin/ppu/lib/gcc/powerpc64-ps3-elf/7.2.0/../../../../powerpc64-ps3-elf/lib/libm.a(lib_a-sf_modf.o)
                0x0000000000043d18                modff
 .opd           0x0000000000043d30       0x18 /home/louis/Documents/ps3/ps3toolchain/bin/ppu/lib/gcc/powerpc64-ps3-elf/7.2.0/../../../../powerpc64-ps3-elf/lib/libm.a(lib_a-sf_numtest.o)
                0x0000000000043d30                numtestf
 .opd           0x0000000000043d48       0x18 /home/louis/Documents/ps3/ps3toolchain/bin/ppu/lib/gcc/powerpc64-ps3-elf/7.2.0/../../../../powerpc64-ps3-elf/lib/libm.a(lib_a-s_frexp.o)
                0x0000000000043d48                frexp
 .opd           0x0000000000043d60       0x18 /home/louis/Documents/ps3/ps3toolchain/bin/ppu/lib/gcc/powerpc64-ps3-elf/7.2.0/../../../../powerpc64-ps3-elf/lib/libm.a(lib_a-s_ispos.o)
                0x0000000000043d60                ispos
 .opd           0x0000000000043d78       0x18 /home/louis/Documents/ps3/ps3toolchain/bin/ppu/lib/gcc/powerpc64-ps3-elf/7.2.0/../../../../powerpc64-ps3-elf/lib/libm.a(lib_a-s_ldexp.o)
                0x0000000000043d78                ldexp
 .opd           0x0000000000043d90       0x18 /home/louis/Documents/ps3/ps3toolchain/bin/ppu/lib/gcc/powerpc64-ps3-elf/7.2.0/../../../../powerpc64-ps3-elf/lib/libm.a(lib_a-s_numtest.o)
                0x0000000000043d90                numtest
 .opd           0x0000000000043da8       0x30 /home/louis/Documents/ps3/ps3toolchain/bin/ppu/lib/gcc/powerpc64-ps3-elf/7.2.0/../../../../powerpc64-ps3-elf/lib/libsysbase.a(sleep.o)
                0x0000000000043da8                usleep
                0x0000000000043dc0                sleep
 .opd           0x0000000000043dd8       0x18 /home/louis/Documents/ps3/ps3toolchain/bin/ppu/lib/gcc/powerpc64-ps3-elf/7.2.0/../../../../powerpc64-ps3-elf/lib/libc.a(lib_a-atexit.o)
                0x0000000000043dd8                atexit
 .opd           0x0000000000043df0       0x18 /home/louis/Documents/ps3/ps3toolchain/bin/ppu/lib/gcc/powerpc64-ps3-elf/7.2.0/../../../../powerpc64-ps3-elf/lib/libc.a(lib_a-calloc.o)
                0x0000000000043df0                calloc
 .opd           0x0000000000043e08       0x18 /home/louis/Documents/ps3/ps3toolchain/bin/ppu/lib/gcc/powerpc64-ps3-elf/7.2.0/../../../../powerpc64-ps3-elf/lib/libc.a(lib_a-callocr.o)
                0x0000000000043e08                _calloc_r
 .opd           0x0000000000043e20       0x18 /home/louis/Documents/ps3/ps3toolchain/bin/ppu/lib/gcc/powerpc64-ps3-elf/7.2.0/../../../../powerpc64-ps3-elf/lib/libc.a(lib_a-errno.o)
                0x0000000000043e20                __errno
 .opd           0x0000000000043e38       0x18 /home/louis/Documents/ps3/ps3toolchain/bin/ppu/lib/gcc/powerpc64-ps3-elf/7.2.0/../../../../powerpc64-ps3-elf/lib/libc.a(lib_a-exit.o)
                0x0000000000043e38                exit
 .opd           0x0000000000043e50       0x30 /home/louis/Documents/ps3/ps3toolchain/bin/ppu/lib/gcc/powerpc64-ps3-elf/7.2.0/../../../../powerpc64-ps3-elf/lib/libc.a(lib_a-fprintf.o)
                0x0000000000043e50                _fprintf_r
                0x0000000000043e68                fprintf
 .opd           0x0000000000043e80       0x18 /home/louis/Documents/ps3/ps3toolchain/bin/ppu/lib/gcc/powerpc64-ps3-elf/7.2.0/../../../../powerpc64-ps3-elf/lib/libc.a(lib_a-getreent.o)
                0x0000000000043e80                __getreent
 .opd           0x0000000000043e98       0x18 /home/louis/Documents/ps3/ps3toolchain/bin/ppu/lib/gcc/powerpc64-ps3-elf/7.2.0/../../../../powerpc64-ps3-elf/lib/libc.a(lib_a-malign.o)
                0x0000000000043e98                memalign
 .opd           0x0000000000043eb0       0x18 /home/louis/Documents/ps3/ps3toolchain/bin/ppu/lib/gcc/powerpc64-ps3-elf/7.2.0/../../../../powerpc64-ps3-elf/lib/libc.a(lib_a-malignr.o)
                0x0000000000043eb0                _memalign_r
 .opd           0x0000000000043ec8       0x30 /home/louis/Documents/ps3/ps3toolchain/bin/ppu/lib/gcc/powerpc64-ps3-elf/7.2.0/../../../../powerpc64-ps3-elf/lib/libc.a(lib_a-malloc.o)
                0x0000000000043ec8                malloc
                0x0000000000043ee0                free
 .opd           0x0000000000043ef8       0x18 /home/louis/Documents/ps3/ps3toolchain/bin/ppu/lib/gcc/powerpc64-ps3-elf/7.2.0/../../../../powerpc64-ps3-elf/lib/libc.a(lib_a-mallocr.o)
                0x0000000000043ef8                _malloc_r
 .opd           0x0000000000043f10       0x18 /home/louis/Documents/ps3/ps3toolchain/bin/ppu/lib/gcc/powerpc64-ps3-elf/7.2.0/../../../../powerpc64-ps3-elf/lib/libc.a(lib_a-memcpy.o)
                0x0000000000043f10                memcpy
 .opd           0x0000000000043f28       0x18 /home/louis/Documents/ps3/ps3toolchain/bin/ppu/lib/gcc/powerpc64-ps3-elf/7.2.0/../../../../powerpc64-ps3-elf/lib/libc.a(lib_a-memset.o)
                0x0000000000043f28                memset
 .opd           0x0000000000043f40       0x30 /home/louis/Documents/ps3/ps3toolchain/bin/ppu/lib/gcc/powerpc64-ps3-elf/7.2.0/../../../../powerpc64-ps3-elf/lib/libc.a(lib_a-mlock.o)
                0x0000000000043f40                __malloc_lock
                0x0000000000043f58                __malloc_unlock
 .opd           0x0000000000043f70       0x30 /home/louis/Documents/ps3/ps3toolchain/bin/ppu/lib/gcc/powerpc64-ps3-elf/7.2.0/../../../../powerpc64-ps3-elf/lib/libc.a(lib_a-perror.o)
                0x0000000000043f70                _perror_r
                0x0000000000043f88                perror
 .opd           0x0000000000043fa0       0x18 /home/louis/Documents/ps3/ps3toolchain/bin/ppu/lib/gcc/powerpc64-ps3-elf/7.2.0/../../../../powerpc64-ps3-elf/lib/libc.a(lib_a-realloc.o)
                0x0000000000043fa0                realloc
 .opd           0x0000000000043fb8       0x18 /home/louis/Documents/ps3/ps3toolchain/bin/ppu/lib/gcc/powerpc64-ps3-elf/7.2.0/../../../../powerpc64-ps3-elf/lib/libc.a(lib_a-reallocr.o)
                0x0000000000043fb8                _realloc_r
 .opd           0x0000000000043fd0       0x30 /home/louis/Documents/ps3/ps3toolchain/bin/ppu/lib/gcc/powerpc64-ps3-elf/7.2.0/../../../../powerpc64-ps3-elf/lib/libc.a(lib_a-sscanf.o)
                0x0000000000043fd0                sscanf
                0x0000000000043fe8                _sscanf_r
 .opd           0x0000000000044000       0x78 /home/louis/Documents/ps3/ps3toolchain/bin/ppu/lib/gcc/powerpc64-ps3-elf/7.2.0/../../../../powerpc64-ps3-elf/lib/libc.a(lib_a-stdio.o)
                0x0000000000044000                __sread
                0x0000000000044018                __seofread
                0x0000000000044030                __swrite
                0x0000000000044048                __sseek
                0x0000000000044060                __sclose
 .opd           0x0000000000044078       0x18 /home/louis/Documents/ps3/ps3toolchain/bin/ppu/lib/gcc/powerpc64-ps3-elf/7.2.0/../../../../powerpc64-ps3-elf/lib/libc.a(lib_a-strcasecmp.o)
                0x0000000000044078                strcasecmp
 .opd           0x0000000000044090       0x18 /home/louis/Documents/ps3/ps3toolchain/bin/ppu/lib/gcc/powerpc64-ps3-elf/7.2.0/../../../../powerpc64-ps3-elf/lib/libc.a(lib_a-strchr.o)
                0x0000000000044090                strchr
 .opd           0x00000000000440a8       0x18 /home/louis/Documents/ps3/ps3toolchain/bin/ppu/lib/gcc/powerpc64-ps3-elf/7.2.0/../../../../powerpc64-ps3-elf/lib/libc.a(lib_a-strcpy.o)
                0x00000000000440a8                strcpy
 .opd           0x00000000000440c0       0x18 /home/louis/Documents/ps3/ps3toolchain/bin/ppu/lib/gcc/powerpc64-ps3-elf/7.2.0/../../../../powerpc64-ps3-elf/lib/libc.a(lib_a-strdup.o)
                0x00000000000440c0                strdup
 .opd           0x00000000000440d8       0x18 /home/louis/Documents/ps3/ps3toolchain/bin/ppu/lib/gcc/powerpc64-ps3-elf/7.2.0/../../../../powerpc64-ps3-elf/lib/libc.a(lib_a-strdup_r.o)
                0x00000000000440d8                _strdup_r
 .opd           0x00000000000440f0       0x30 /home/louis/Documents/ps3/ps3toolchain/bin/ppu/lib/gcc/powerpc64-ps3-elf/7.2.0/../../../../powerpc64-ps3-elf/lib/libc.a(lib_a-strerror.o)
                0x00000000000440f0                _strerror_r
                0x0000000000044108                strerror
 .opd           0x0000000000044120       0x18 /home/louis/Documents/ps3/ps3toolchain/bin/ppu/lib/gcc/powerpc64-ps3-elf/7.2.0/../../../../powerpc64-ps3-elf/lib/libc.a(lib_a-strlen.o)
                0x0000000000044120                strlen
 .opd           0x0000000000044138       0x18 /home/louis/Documents/ps3/ps3toolchain/bin/ppu/lib/gcc/powerpc64-ps3-elf/7.2.0/../../../../powerpc64-ps3-elf/lib/libc.a(lib_a-strncat.o)
                0x0000000000044138                strncat
 .opd           0x0000000000044150       0x18 /home/louis/Documents/ps3/ps3toolchain/bin/ppu/lib/gcc/powerpc64-ps3-elf/7.2.0/../../../../powerpc64-ps3-elf/lib/libc.a(lib_a-strncpy.o)
                0x0000000000044150                strncpy
 .opd           0x0000000000044168       0x18 /home/louis/Documents/ps3/ps3toolchain/bin/ppu/lib/gcc/powerpc64-ps3-elf/7.2.0/../../../../powerpc64-ps3-elf/lib/libc.a(lib_a-svfscanf.o)
                0x0000000000044168                __ssvfscanf_r
 .opd           0x0000000000044180       0x18 /home/louis/Documents/ps3/ps3toolchain/bin/ppu/lib/gcc/powerpc64-ps3-elf/7.2.0/../../../../powerpc64-ps3-elf/lib/libc.a(lib_a-time.o)
                0x0000000000044180                time
 .opd           0x0000000000044198       0x18 /home/louis/Documents/ps3/ps3toolchain/bin/ppu/lib/gcc/powerpc64-ps3-elf/7.2.0/../../../../powerpc64-ps3-elf/lib/libc.a(lib_a-u_strerr.o)
                0x0000000000044198                _user_strerror
 .opd           0x00000000000441b0       0x30 /home/louis/Documents/ps3/ps3toolchain/bin/ppu/lib/gcc/powerpc64-ps3-elf/7.2.0/../../../../powerpc64-ps3-elf/lib/libc.a(lib_a-vfprintf.o)
                0x00000000000441b0                _vfprintf_r
                0x00000000000441c8                vfprintf
 .opd           0x00000000000441e0       0x18 /home/louis/Documents/ps3/ps3toolchain/bin/ppu/lib/gcc/powerpc64-ps3-elf/7.2.0/../../../../powerpc64-ps3-elf/lib/libc.a(lib_a-wsetup.o)
                0x00000000000441e0                __swsetup_r
 .opd           0x00000000000441f8       0x18 /home/louis/Documents/ps3/ps3toolchain/bin/ppu/lib/gcc/powerpc64-ps3-elf/7.2.0/../../../../powerpc64-ps3-elf/lib/libc.a(lib_a-__atexit.o)
                0x00000000000441f8                __register_exitproc
 .opd           0x0000000000044210       0x18 /home/louis/Documents/ps3/ps3toolchain/bin/ppu/lib/gcc/powerpc64-ps3-elf/7.2.0/../../../../powerpc64-ps3-elf/lib/libc.a(lib_a-__call_atexit.o)
                0x0000000000044210                __call_exitprocs
 .opd           0x0000000000044228       0x30 /home/louis/Documents/ps3/ps3toolchain/bin/ppu/lib/gcc/powerpc64-ps3-elf/7.2.0/../../../../powerpc64-ps3-elf/lib/libc.a(lib_a-dtoa.o)
                0x0000000000044240                _dtoa_r
 .opd           0x0000000000044258       0x48 /home/louis/Documents/ps3/ps3toolchain/bin/ppu/lib/gcc/powerpc64-ps3-elf/7.2.0/../../../../powerpc64-ps3-elf/lib/libc.a(lib_a-fflush.o)
                0x0000000000044258                __sflush_r
                0x0000000000044270                _fflush_r
                0x0000000000044288                fflush
 .opd           0x00000000000442a0      0x150 /home/louis/Documents/ps3/ps3toolchain/bin/ppu/lib/gcc/powerpc64-ps3-elf/7.2.0/../../../../powerpc64-ps3-elf/lib/libc.a(lib_a-findfp.o)
                0x00000000000442a0                _cleanup_r
                0x0000000000044300                __sfmoreglue
                0x0000000000044318                _cleanup
                0x0000000000044330                __sinit
                0x0000000000044348                __sfp
                0x0000000000044360                __sfp_lock_acquire
                0x0000000000044378                __sfp_lock_release
                0x0000000000044390                __sinit_lock_acquire
                0x00000000000443a8                __sinit_lock_release
                0x00000000000443c0                __fp_lock_all
                0x00000000000443d8                __fp_unlock_all
 .opd           0x00000000000443f0       0x30 /home/louis/Documents/ps3/ps3toolchain/bin/ppu/lib/gcc/powerpc64-ps3-elf/7.2.0/../../../../powerpc64-ps3-elf/lib/libc.a(lib_a-fputc.o)
                0x00000000000443f0                _fputc_r
                0x0000000000044408                fputc
 .opd           0x0000000000044420       0x30 /home/louis/Documents/ps3/ps3toolchain/bin/ppu/lib/gcc/powerpc64-ps3-elf/7.2.0/../../../../powerpc64-ps3-elf/lib/libc.a(lib_a-fputs.o)
                0x0000000000044420                _fputs_r
                0x0000000000044438                fputs
 .opd           0x0000000000044450       0x30 /home/louis/Documents/ps3/ps3toolchain/bin/ppu/lib/gcc/powerpc64-ps3-elf/7.2.0/../../../../powerpc64-ps3-elf/lib/libc.a(lib_a-freer.o)
                0x0000000000044450                _malloc_trim_r
                0x0000000000044468                _free_r
 .opd           0x0000000000044480       0x18 /home/louis/Documents/ps3/ps3toolchain/bin/ppu/lib/gcc/powerpc64-ps3-elf/7.2.0/../../../../powerpc64-ps3-elf/lib/libc.a(lib_a-fvwrite.o)
                0x0000000000044480                __sfvwrite_r
 .opd           0x0000000000044498       0x30 /home/louis/Documents/ps3/ps3toolchain/bin/ppu/lib/gcc/powerpc64-ps3-elf/7.2.0/../../../../powerpc64-ps3-elf/lib/libc.a(lib_a-fwalk.o)
                0x0000000000044498                _fwalk
                0x00000000000444b0                _fwalk_reent
 .opd           0x00000000000444c8       0x18 /home/louis/Documents/ps3/ps3toolchain/bin/ppu/lib/gcc/powerpc64-ps3-elf/7.2.0/../../../../powerpc64-ps3-elf/lib/libc.a(lib_a-iswspace.o)
                0x00000000000444c8                iswspace
 .opd           0x00000000000444e0       0xc0 /home/louis/Documents/ps3/ps3toolchain/bin/ppu/lib/gcc/powerpc64-ps3-elf/7.2.0/../../../../powerpc64-ps3-elf/lib/libc.a(lib_a-locale.o)
                0x00000000000444e0                _setlocale_r
                0x00000000000444f8                __locale_charset
                0x0000000000044510                __locale_mb_cur_max
                0x0000000000044528                __locale_msgcharset
                0x0000000000044540                __locale_cjk_lang
                0x0000000000044558                _localeconv_r
                0x0000000000044570                setlocale
                0x0000000000044588                localeconv
 .opd           0x00000000000445a0       0x78 /home/louis/Documents/ps3/ps3toolchain/bin/ppu/lib/gcc/powerpc64-ps3-elf/7.2.0/../../../../powerpc64-ps3-elf/lib/libc.a(lib_a-lock_recursive.o)
                0x00000000000445a0                __libc_lock_init_recursive
                0x00000000000445b8                __libc_lock_close_recursive
                0x00000000000445d0                __libc_lock_acquire_recursive
                0x00000000000445e8                __libc_lock_try_acquire_recursive
                0x0000000000044600                __libc_lock_release_recursive
 .opd           0x0000000000044618       0x18 /home/louis/Documents/ps3/ps3toolchain/bin/ppu/lib/gcc/powerpc64-ps3-elf/7.2.0/../../../../powerpc64-ps3-elf/lib/libc.a(lib_a-makebuf.o)
                0x0000000000044618                __smakebuf_r
 .opd           0x0000000000044630       0x30 /home/louis/Documents/ps3/ps3toolchain/bin/ppu/lib/gcc/powerpc64-ps3-elf/7.2.0/../../../../powerpc64-ps3-elf/lib/libc.a(lib_a-mbrtowc.o)
                0x0000000000044630                _mbrtowc_r
                0x0000000000044648                mbrtowc
 .opd           0x0000000000044660       0x30 /home/louis/Documents/ps3/ps3toolchain/bin/ppu/lib/gcc/powerpc64-ps3-elf/7.2.0/../../../../powerpc64-ps3-elf/lib/libc.a(lib_a-mbtowc_r.o)
                0x0000000000044660                __ascii_mbtowc
                0x0000000000044678                _mbtowc_r
 .opd           0x0000000000044690       0x18 /home/louis/Documents/ps3/ps3toolchain/bin/ppu/lib/gcc/powerpc64-ps3-elf/7.2.0/../../../../powerpc64-ps3-elf/lib/libc.a(lib_a-memchr.o)
                0x0000000000044690                memchr
 .opd           0x00000000000446a8       0x18 /home/louis/Documents/ps3/ps3toolchain/bin/ppu/lib/gcc/powerpc64-ps3-elf/7.2.0/../../../../powerpc64-ps3-elf/lib/libc.a(lib_a-memmove.o)
                0x00000000000446a8                memmove
 .opd           0x00000000000446c0      0x1c8 /home/louis/Documents/ps3/ps3toolchain/bin/ppu/lib/gcc/powerpc64-ps3-elf/7.2.0/../../../../powerpc64-ps3-elf/lib/libc.a(lib_a-mprec.o)
                0x00000000000446c0                _Balloc
                0x00000000000446d8                _Bfree
                0x00000000000446f0                __multadd
                0x0000000000044708                __s2b
                0x0000000000044720                __hi0bits
                0x0000000000044738                __lo0bits
                0x0000000000044750                __i2b
                0x0000000000044768                __multiply
                0x0000000000044780                __pow5mult
                0x0000000000044798                __lshift
                0x00000000000447b0                __mcmp
                0x00000000000447c8                __mdiff
                0x00000000000447e0                __ulp
                0x00000000000447f8                __b2d
                0x0000000000044810                __d2b
                0x0000000000044828                __ratio
                0x0000000000044840                _mprec_log10
                0x0000000000044858                __copybits
                0x0000000000044870                __any_on
 .opd           0x0000000000044888       0x30 /home/louis/Documents/ps3/ps3toolchain/bin/ppu/lib/gcc/powerpc64-ps3-elf/7.2.0/../../../../powerpc64-ps3-elf/lib/libc.a(lib_a-putc.o)
                0x0000000000044888                _putc_r
                0x00000000000448a0                putc
 .opd           0x00000000000448b8       0x18 /home/louis/Documents/ps3/ps3toolchain/bin/ppu/lib/gcc/powerpc64-ps3-elf/7.2.0/../../../../powerpc64-ps3-elf/lib/libc.a(lib_a-sccl.o)
                0x00000000000448b8                __sccl
 .opd           0x00000000000448d0       0x18 /home/louis/Documents/ps3/ps3toolchain/bin/ppu/lib/gcc/powerpc64-ps3-elf/7.2.0/../../../../powerpc64-ps3-elf/lib/libc.a(lib_a-sf_nan.o)
                0x00000000000448d0                nanf
 .opd           0x00000000000448e8       0x18 /home/louis/Documents/ps3/ps3toolchain/bin/ppu/lib/gcc/powerpc64-ps3-elf/7.2.0/../../../../powerpc64-ps3-elf/lib/libc.a(lib_a-s_fpclassify.o)
                0x00000000000448e8                __fpclassifyd
 .opd           0x0000000000044900       0x30 /home/louis/Documents/ps3/ps3toolchain/bin/ppu/lib/gcc/powerpc64-ps3-elf/7.2.0/../../../../powerpc64-ps3-elf/lib/libc.a(lib_a-sprintf.o)
                0x0000000000044900                _sprintf_r
                0x0000000000044918                sprintf
 .opd           0x0000000000044930       0x18 /home/louis/Documents/ps3/ps3toolchain/bin/ppu/lib/gcc/powerpc64-ps3-elf/7.2.0/../../../../powerpc64-ps3-elf/lib/libc.a(lib_a-strcmp.o)
                0x0000000000044930                strcmp
 .opd           0x0000000000044948       0x48 /home/louis/Documents/ps3/ps3toolchain/bin/ppu/lib/gcc/powerpc64-ps3-elf/7.2.0/../../../../powerpc64-ps3-elf/lib/libc.a(lib_a-strtod.o)
                0x0000000000044948                _strtod_r
                0x0000000000044960                strtod
                0x0000000000044978                strtof
 .opd           0x0000000000044990       0x18 /home/louis/Documents/ps3/ps3toolchain/bin/ppu/lib/gcc/powerpc64-ps3-elf/7.2.0/../../../../powerpc64-ps3-elf/lib/libc.a(lib_a-strtoll_r.o)
                0x0000000000044990                _strtoll_r
 .opd           0x00000000000449a8       0x30 /home/louis/Documents/ps3/ps3toolchain/bin/ppu/lib/gcc/powerpc64-ps3-elf/7.2.0/../../../../powerpc64-ps3-elf/lib/libc.a(lib_a-strtol.o)
                0x00000000000449a8                _strtol_r
                0x00000000000449c0                strtol
 .opd           0x00000000000449d8       0x18 /home/louis/Documents/ps3/ps3toolchain/bin/ppu/lib/gcc/powerpc64-ps3-elf/7.2.0/../../../../powerpc64-ps3-elf/lib/libc.a(lib_a-strtoull_r.o)
                0x00000000000449d8                _strtoull_r
 .opd           0x00000000000449f0       0x30 /home/louis/Documents/ps3/ps3toolchain/bin/ppu/lib/gcc/powerpc64-ps3-elf/7.2.0/../../../../powerpc64-ps3-elf/lib/libc.a(lib_a-strtoul.o)
                0x00000000000449f0                _strtoul_r
                0x0000000000044a08                strtoul
 .opd           0x0000000000044a20       0x60 /home/louis/Documents/ps3/ps3toolchain/bin/ppu/lib/gcc/powerpc64-ps3-elf/7.2.0/../../../../powerpc64-ps3-elf/lib/libc.a(lib_a-svfiscanf.o)
                0x0000000000044a20                _sungetc_r
                0x0000000000044a38                __ssrefill_r
                0x0000000000044a50                _sfread_r
                0x0000000000044a68                __ssvfiscanf_r
 .opd           0x0000000000044a80       0x18 /home/louis/Documents/ps3/ps3toolchain/bin/ppu/lib/gcc/powerpc64-ps3-elf/7.2.0/../../../../powerpc64-ps3-elf/lib/libc.a(lib_a-svfprintf.o)
                0x0000000000044a80                _svfprintf_r
 .opd           0x0000000000044a98       0x48 /home/louis/Documents/ps3/ps3toolchain/bin/ppu/lib/gcc/powerpc64-ps3-elf/7.2.0/../../../../powerpc64-ps3-elf/lib/libc.a(lib_a-ungetc.o)
                0x0000000000044a98                __submore
                0x0000000000044ab0                _ungetc_r
                0x0000000000044ac8                ungetc
 .opd           0x0000000000044ae0       0x60 /home/louis/Documents/ps3/ps3toolchain/bin/ppu/lib/gcc/powerpc64-ps3-elf/7.2.0/../../../../powerpc64-ps3-elf/lib/libc.a(lib_a-vfiprintf.o)
                0x0000000000044af8                __sprint_r
                0x0000000000044b10                _vfiprintf_r
                0x0000000000044b28                vfiprintf
 .opd           0x0000000000044b40       0x30 /home/louis/Documents/ps3/ps3toolchain/bin/ppu/lib/gcc/powerpc64-ps3-elf/7.2.0/../../../../powerpc64-ps3-elf/lib/libc.a(lib_a-wbuf.o)
                0x0000000000044b40                __swbuf_r
                0x0000000000044b58                __swbuf
 .opd           0x0000000000044b70       0x30 /home/louis/Documents/ps3/ps3toolchain/bin/ppu/lib/gcc/powerpc64-ps3-elf/7.2.0/../../../../powerpc64-ps3-elf/lib/libc.a(lib_a-fclose.o)
                0x0000000000044b70                _fclose_r
                0x0000000000044b88                fclose
 .opd           0x0000000000044ba0       0x30 /home/louis/Documents/ps3/ps3toolchain/bin/ppu/lib/gcc/powerpc64-ps3-elf/7.2.0/../../../../powerpc64-ps3-elf/lib/libc.a(lib_a-fputwc.o)
                0x0000000000044ba0                _fputwc_r
                0x0000000000044bb8                fputwc
 .opd           0x0000000000044bd0       0x48 /home/louis/Documents/ps3/ps3toolchain/bin/ppu/lib/gcc/powerpc64-ps3-elf/7.2.0/../../../../powerpc64-ps3-elf/lib/libc.a(lib_a-gdtoa-gethex.o)
                0x0000000000044be8                __hexdig_init
                0x0000000000044c00                __gethex
 .opd           0x0000000000044c18       0x18 /home/louis/Documents/ps3/ps3toolchain/bin/ppu/lib/gcc/powerpc64-ps3-elf/7.2.0/../../../../powerpc64-ps3-elf/lib/libc.a(lib_a-gdtoa-hexnan.o)
                0x0000000000044c18                __hexnan
 .opd           0x0000000000044c30       0x30 /home/louis/Documents/ps3/ps3toolchain/bin/ppu/lib/gcc/powerpc64-ps3-elf/7.2.0/../../../../powerpc64-ps3-elf/lib/libc.a(lib_a-lock_internal.o)
                0x0000000000044c48                __libc_auto_lock_allocate
 .opd           0x0000000000044c60       0x18 /home/louis/Documents/ps3/ps3toolchain/bin/ppu/lib/gcc/powerpc64-ps3-elf/7.2.0/../../../../powerpc64-ps3-elf/lib/libc.a(lib_a-strncmp.o)
                0x0000000000044c60                strncmp
 .opd           0x0000000000044c78       0x30 /home/louis/Documents/ps3/ps3toolchain/bin/ppu/lib/gcc/powerpc64-ps3-elf/7.2.0/../../../../powerpc64-ps3-elf/lib/libc.a(lib_a-svfiprintf.o)
                0x0000000000044c78                __ssprint_r
                0x0000000000044c90                _svfiprintf_r
 .opd           0x0000000000044ca8       0x30 /home/louis/Documents/ps3/ps3toolchain/bin/ppu/lib/gcc/powerpc64-ps3-elf/7.2.0/../../../../powerpc64-ps3-elf/lib/libc.a(lib_a-wcrtomb.o)
                0x0000000000044ca8                _wcrtomb_r
                0x0000000000044cc0                wcrtomb
 .opd           0x0000000000044cd8       0x30 /home/louis/Documents/ps3/ps3toolchain/bin/ppu/lib/gcc/powerpc64-ps3-elf/7.2.0/../../../../powerpc64-ps3-elf/lib/libc.a(lib_a-wctomb_r.o)
                0x0000000000044cd8                __ascii_wctomb
                0x0000000000044cf0                _wctomb_r
 .opd           0x0000000000044d08       0x18 /home/louis/Documents/ps3/ps3toolchain/bin/ppu/lib/gcc/powerpc64-ps3-elf/7.2.0/../../../../powerpc64-ps3-elf/lib/libc.a(lib_a-abort.o)
                0x0000000000044d08                abort
 .opd           0x0000000000044d20       0xd8 /home/louis/Documents/ps3/ps3toolchain/bin/ppu/lib/gcc/powerpc64-ps3-elf/7.2.0/../../../../powerpc64-ps3-elf/lib/libc.a(lib_a-signal.o)
                0x0000000000044d38                _init_signal_r
                0x0000000000044d50                _signal_r
                0x0000000000044d68                _raise_r
                0x0000000000044d80                __sigtramp_r
                0x0000000000044d98                raise
                0x0000000000044db0                signal
                0x0000000000044dc8                _init_signal
                0x0000000000044de0                __sigtramp
 .opd           0x0000000000044df8       0x18 /home/louis/Documents/ps3/ps3toolchain/bin/ppu/lib/gcc/powerpc64-ps3-elf/7.2.0/../../../../powerpc64-ps3-elf/lib/libsysbase.a(close.o)
                0x0000000000044df8                _close_r
 .opd           0x0000000000044e10       0x18 /home/louis/Documents/ps3/ps3toolchain/bin/ppu/lib/gcc/powerpc64-ps3-elf/7.2.0/../../../../powerpc64-ps3-elf/lib/libsysbase.a(sbrk.o)
                0x0000000000044e10                _sbrk_r
 .opd           0x0000000000044e28       0x18 /home/louis/Documents/ps3/ps3toolchain/bin/ppu/lib/gcc/powerpc64-ps3-elf/7.2.0/../../../../powerpc64-ps3-elf/lib/libsysbase.a(_exit.o)
                0x0000000000044e28                _exit
 .opd           0x0000000000044e40       0x18 /home/louis/Documents/ps3/ps3toolchain/bin/ppu/lib/gcc/powerpc64-ps3-elf/7.2.0/../../../../powerpc64-ps3-elf/lib/libsysbase.a(fstat.o)
                0x0000000000044e40                _fstat_r
 .opd           0x0000000000044e58       0x18 /home/louis/Documents/ps3/ps3toolchain/bin/ppu/lib/gcc/powerpc64-ps3-elf/7.2.0/../../../../powerpc64-ps3-elf/lib/libsysbase.a(isatty.o)
                0x0000000000044e58                _isatty_r
 .opd           0x0000000000044e70       0x18 /home/louis/Documents/ps3/ps3toolchain/bin/ppu/lib/gcc/powerpc64-ps3-elf/7.2.0/../../../../powerpc64-ps3-elf/lib/libsysbase.a(lseek.o)
                0x0000000000044e70                _lseek_r
 .opd           0x0000000000044e88       0x18 /home/louis/Documents/ps3/ps3toolchain/bin/ppu/lib/gcc/powerpc64-ps3-elf/7.2.0/../../../../powerpc64-ps3-elf/lib/libsysbase.a(read.o)
                0x0000000000044e88                _read_r
 .opd           0x0000000000044ea0       0x18 /home/louis/Documents/ps3/ps3toolchain/bin/ppu/lib/gcc/powerpc64-ps3-elf/7.2.0/../../../../powerpc64-ps3-elf/lib/libsysbase.a(write.o)
                0x0000000000044ea0                _write_r
 .opd           0x0000000000044eb8       0x78 /home/louis/Documents/ps3/ps3toolchain/bin/ppu/lib/gcc/powerpc64-ps3-elf/7.2.0/../../../../powerpc64-ps3-elf/lib/libsysbase.a(lock.o)
                0x0000000000044eb8                sys_lwmutex_create
                0x0000000000044ed0                sys_lwmutex_destroy
                0x0000000000044ee8                sys_lwmutex_lock
                0x0000000000044f00                sys_lwmutex_trylock
                0x0000000000044f18                sys_lwmutex_unlock
 .opd           0x0000000000044f30       0x18 /home/louis/Documents/ps3/ps3toolchain/bin/ppu/lib/gcc/powerpc64-ps3-elf/7.2.0/../../../../powerpc64-ps3-elf/lib/libsysbase.a(getpid.o)
                0x0000000000044f30                _getpid_r
 .opd           0x0000000000044f48       0x18 /home/louis/Documents/ps3/ps3toolchain/bin/ppu/lib/gcc/powerpc64-ps3-elf/7.2.0/../../../../powerpc64-ps3-elf/lib/libsysbase.a(kill.o)
                0x0000000000044f48                _kill_r
 .opd           0x0000000000044f60       0x18 /home/louis/Documents/ps3/ps3toolchain/bin/ppu/lib/gcc/powerpc64-ps3-elf/7.2.0/../../../../powerpc64-ps3-elf/lib/libsysbase.a(gettod.o)
                0x0000000000044f60                _gettimeofday_r
 .opd           0x0000000000044f78       0x18 /home/louis/Documents/ps3/ps3toolchain/bin/ppu/lib/gcc/powerpc64-ps3-elf/7.2.0/crtend.o

.branch_lt      0x0000000000044f90        0x0
 *(.branch_lt)
 .branch_lt     0x0000000000044f90        0x0 linker stubs

.got            0x0000000000044f90      0xfe8
 *(.got .toc)
 .toc           0x0000000000044f90       0x60 /home/louis/Documents/ps3/ps3toolchain/bin/ppu/lib/gcc/powerpc64-ps3-elf/7.2.0/crtbegin.o
 .toc           0x0000000000044ff0       0x28 /home/louis/Documents/ps3/ps3toolchain/bin/ppu/lib/librt.a(sbrk.o)
 .toc           0x0000000000045018        0x8 /home/louis/Documents/ps3/ps3toolchain/bin/ppu/lib/gcc/powerpc64-ps3-elf/7.2.0/crtend.o
 .toc           0x0000000000045020      0x160 /home/louis/Documents/ps3/ps3toolchain/bin/ppu/lib/gcc/powerpc64-ps3-elf/7.2.0/../../../../powerpc64-ps3-elf/lib/lv2-crt0.o
 .toc           0x0000000000045180        0x8 main.o
 .toc           0x0000000000045188       0x20 pad.o
 .toc           0x00000000000451a8       0x30 rendering.o
 .toc           0x00000000000451d8       0x38 /home/louis/Documents/ps3/ps3toolchain/bin/portlibs/ppu/lib/libtiny3d.a(matrix.o)
 .toc           0x0000000000045210      0x360 /home/louis/Documents/ps3/ps3toolchain/bin/portlibs/ppu/lib/libtiny3d.a(tiny3d.o)
 .toc           0x0000000000045570       0x28 /home/louis/Documents/ps3/ps3toolchain/bin/portlibs/ppu/lib/libtiny3d.a(commands.o)
 .toc           0x0000000000045598       0x18 /home/louis/Documents/ps3/ps3toolchain/bin/portlibs/ppu/lib/libtiny3d.a(mm.o)
 .toc           0x00000000000455b0       0x60 /home/louis/Documents/ps3/ps3toolchain/bin/portlibs/ppu/lib/libtiny3d.a(rsxutil.o)
 .toc           0x0000000000045610        0x8 /home/louis/Documents/ps3/ps3toolchain/bin/ppu/lib/librt.a(open.o)
 .toc           0x0000000000045618        0x8 /home/louis/Documents/ps3/ps3toolchain/bin/ppu/lib/librt.a(socket.o)
 .toc           0x0000000000045620        0x8 /home/louis/Documents/ps3/ps3toolchain/bin/ppu/lib/librt.a(mkdir.o)
 .toc           0x0000000000045628        0x8 /home/louis/Documents/ps3/ps3toolchain/bin/ppu/lib/librt.a(umask.o)
 .toc           0x0000000000045630       0x10 /home/louis/Documents/ps3/ps3toolchain/bin/ppu/lib/librt.a(globfile.o)
 .toc           0x0000000000045640       0x68 /home/louis/Documents/ps3/ps3toolchain/bin/ppu/lib/gcc/powerpc64-ps3-elf/7.2.0/../../../../powerpc64-ps3-elf/lib/libm.a(lib_a-sf_sine.o)
 .toc           0x00000000000456a8       0x38 /home/louis/Documents/ps3/ps3toolchain/bin/ppu/lib/gcc/powerpc64-ps3-elf/7.2.0/../../../../powerpc64-ps3-elf/lib/libm.a(lib_a-sf_sqrt.o)
 .toc           0x00000000000456e0       0x58 /home/louis/Documents/ps3/ps3toolchain/bin/ppu/lib/gcc/powerpc64-ps3-elf/7.2.0/../../../../powerpc64-ps3-elf/lib/libm.a(lib_a-sf_tan.o)
 .toc           0x0000000000045738       0x38 /home/louis/Documents/ps3/ps3toolchain/bin/ppu/lib/gcc/powerpc64-ps3-elf/7.2.0/../../../../powerpc64-ps3-elf/lib/libm.a(lib_a-s_sqrt.o)
 .toc           0x0000000000045770        0x8 /home/louis/Documents/ps3/ps3toolchain/bin/ppu/lib/gcc/powerpc64-ps3-elf/7.2.0/../../../../powerpc64-ps3-elf/lib/libm.a(lib_a-sf_fabs.o)
 .toc           0x0000000000045778       0x18 /home/louis/Documents/ps3/ps3toolchain/bin/ppu/lib/gcc/powerpc64-ps3-elf/7.2.0/../../../../powerpc64-ps3-elf/lib/libm.a(lib_a-sf_floor.o)
 .toc           0x0000000000045790        0x8 /home/louis/Documents/ps3/ps3toolchain/bin/ppu/lib/gcc/powerpc64-ps3-elf/7.2.0/../../../../powerpc64-ps3-elf/lib/libm.a(lib_a-sf_ldexp.o)
 .toc           0x0000000000045798        0x8 /home/louis/Documents/ps3/ps3toolchain/bin/ppu/lib/gcc/powerpc64-ps3-elf/7.2.0/../../../../powerpc64-ps3-elf/lib/libm.a(lib_a-sf_numtest.o)
 .toc           0x00000000000457a0        0x8 /home/louis/Documents/ps3/ps3toolchain/bin/ppu/lib/gcc/powerpc64-ps3-elf/7.2.0/../../../../powerpc64-ps3-elf/lib/libm.a(lib_a-s_ldexp.o)
 .toc           0x00000000000457a8        0x8 /home/louis/Documents/ps3/ps3toolchain/bin/ppu/lib/gcc/powerpc64-ps3-elf/7.2.0/../../../../powerpc64-ps3-elf/lib/libm.a(lib_a-s_numtest.o)
 .toc           0x00000000000457b0        0x8 /home/louis/Documents/ps3/ps3toolchain/bin/ppu/lib/gcc/powerpc64-ps3-elf/7.2.0/../../../../powerpc64-ps3-elf/lib/libsysbase.a(sleep.o)
 .toc           0x00000000000457b8        0x8 /home/louis/Documents/ps3/ps3toolchain/bin/ppu/lib/gcc/powerpc64-ps3-elf/7.2.0/../../../../powerpc64-ps3-elf/lib/libc.a(lib_a-exit.o)
 .toc           0x00000000000457c0        0x8 /home/louis/Documents/ps3/ps3toolchain/bin/ppu/lib/gcc/powerpc64-ps3-elf/7.2.0/../../../../powerpc64-ps3-elf/lib/libc.a(lib_a-getreent.o)
 .toc           0x00000000000457c8       0x30 /home/louis/Documents/ps3/ps3toolchain/bin/ppu/lib/gcc/powerpc64-ps3-elf/7.2.0/../../../../powerpc64-ps3-elf/lib/libc.a(lib_a-mallocr.o)
 .toc           0x00000000000457f8        0x8 /home/louis/Documents/ps3/ps3toolchain/bin/ppu/lib/gcc/powerpc64-ps3-elf/7.2.0/../../../../powerpc64-ps3-elf/lib/libc.a(lib_a-mlock.o)
 .toc           0x0000000000045800        0x8 /home/louis/Documents/ps3/ps3toolchain/bin/ppu/lib/gcc/powerpc64-ps3-elf/7.2.0/../../../../powerpc64-ps3-elf/lib/libc.a(lib_a-perror.o)
 .toc           0x0000000000045808        0x8 /home/louis/Documents/ps3/ps3toolchain/bin/ppu/lib/gcc/powerpc64-ps3-elf/7.2.0/../../../../powerpc64-ps3-elf/lib/libc.a(lib_a-reallocr.o)
 .toc           0x0000000000045810        0x8 /home/louis/Documents/ps3/ps3toolchain/bin/ppu/lib/gcc/powerpc64-ps3-elf/7.2.0/../../../../powerpc64-ps3-elf/lib/libc.a(lib_a-sscanf.o)
 .toc           0x0000000000045818        0x8 /home/louis/Documents/ps3/ps3toolchain/bin/ppu/lib/gcc/powerpc64-ps3-elf/7.2.0/../../../../powerpc64-ps3-elf/lib/libc.a(lib_a-strcasecmp.o)
 .toc           0x0000000000045820      0x260 /home/louis/Documents/ps3/ps3toolchain/bin/ppu/lib/gcc/powerpc64-ps3-elf/7.2.0/../../../../powerpc64-ps3-elf/lib/libc.a(lib_a-strerror.o)
 .toc           0x0000000000045a80       0x40 /home/louis/Documents/ps3/ps3toolchain/bin/ppu/lib/gcc/powerpc64-ps3-elf/7.2.0/../../../../powerpc64-ps3-elf/lib/libc.a(lib_a-svfscanf.o)
 .toc           0x0000000000045ac0       0x68 /home/louis/Documents/ps3/ps3toolchain/bin/ppu/lib/gcc/powerpc64-ps3-elf/7.2.0/../../../../powerpc64-ps3-elf/lib/libc.a(lib_a-vfprintf.o)
 .toc           0x0000000000045b28       0x18 /home/louis/Documents/ps3/ps3toolchain/bin/ppu/lib/gcc/powerpc64-ps3-elf/7.2.0/../../../../powerpc64-ps3-elf/lib/libc.a(lib_a-__atexit.o)
 .toc           0x0000000000045b40       0x18 /home/louis/Documents/ps3/ps3toolchain/bin/ppu/lib/gcc/powerpc64-ps3-elf/7.2.0/../../../../powerpc64-ps3-elf/lib/libc.a(lib_a-__call_atexit.o)
 .toc           0x0000000000045b58       0x80 /home/louis/Documents/ps3/ps3toolchain/bin/ppu/lib/gcc/powerpc64-ps3-elf/7.2.0/../../../../powerpc64-ps3-elf/lib/libc.a(lib_a-dtoa.o)
 .toc           0x0000000000045bd8       0x10 /home/louis/Documents/ps3/ps3toolchain/bin/ppu/lib/gcc/powerpc64-ps3-elf/7.2.0/../../../../powerpc64-ps3-elf/lib/libc.a(lib_a-fflush.o)
 .toc           0x0000000000045be8       0x58 /home/louis/Documents/ps3/ps3toolchain/bin/ppu/lib/gcc/powerpc64-ps3-elf/7.2.0/../../../../powerpc64-ps3-elf/lib/libc.a(lib_a-findfp.o)
 .toc           0x0000000000045c40       0x30 /home/louis/Documents/ps3/ps3toolchain/bin/ppu/lib/gcc/powerpc64-ps3-elf/7.2.0/../../../../powerpc64-ps3-elf/lib/libc.a(lib_a-freer.o)
 .toc           0x0000000000045c70        0x8 /home/louis/Documents/ps3/ps3toolchain/bin/ppu/lib/gcc/powerpc64-ps3-elf/7.2.0/../../../../powerpc64-ps3-elf/lib/libc.a(lib_a-iswspace.o)
 .toc           0x0000000000045c78       0x38 /home/louis/Documents/ps3/ps3toolchain/bin/ppu/lib/gcc/powerpc64-ps3-elf/7.2.0/../../../../powerpc64-ps3-elf/lib/libc.a(lib_a-locale.o)
 .toc           0x0000000000045cb0        0x8 /home/louis/Documents/ps3/ps3toolchain/bin/ppu/lib/gcc/powerpc64-ps3-elf/7.2.0/../../../../powerpc64-ps3-elf/lib/libc.a(lib_a-lock_recursive.o)
 .toc           0x0000000000045cb8       0x10 /home/louis/Documents/ps3/ps3toolchain/bin/ppu/lib/gcc/powerpc64-ps3-elf/7.2.0/../../../../powerpc64-ps3-elf/lib/libc.a(lib_a-makebuf.o)
 .toc           0x0000000000045cc8       0x10 /home/louis/Documents/ps3/ps3toolchain/bin/ppu/lib/gcc/powerpc64-ps3-elf/7.2.0/../../../../powerpc64-ps3-elf/lib/libc.a(lib_a-mbrtowc.o)
 .toc           0x0000000000045cd8        0x8 /home/louis/Documents/ps3/ps3toolchain/bin/ppu/lib/gcc/powerpc64-ps3-elf/7.2.0/../../../../powerpc64-ps3-elf/lib/libc.a(lib_a-mbtowc_r.o)
 .toc           0x0000000000045ce0       0x20 /home/louis/Documents/ps3/ps3toolchain/bin/ppu/lib/gcc/powerpc64-ps3-elf/7.2.0/../../../../powerpc64-ps3-elf/lib/libc.a(lib_a-mprec.o)
 .toc           0x0000000000045d00        0x8 /home/louis/Documents/ps3/ps3toolchain/bin/ppu/lib/gcc/powerpc64-ps3-elf/7.2.0/../../../../powerpc64-ps3-elf/lib/libc.a(lib_a-sf_nan.o)
 .toc           0x0000000000045d08       0xa8 /home/louis/Documents/ps3/ps3toolchain/bin/ppu/lib/gcc/powerpc64-ps3-elf/7.2.0/../../../../powerpc64-ps3-elf/lib/libc.a(lib_a-strtod.o)
 .toc           0x0000000000045db0        0x8 /home/louis/Documents/ps3/ps3toolchain/bin/ppu/lib/gcc/powerpc64-ps3-elf/7.2.0/../../../../powerpc64-ps3-elf/lib/libc.a(lib_a-strtoll_r.o)
 .toc           0x0000000000045db8        0x8 /home/louis/Documents/ps3/ps3toolchain/bin/ppu/lib/gcc/powerpc64-ps3-elf/7.2.0/../../../../powerpc64-ps3-elf/lib/libc.a(lib_a-strtol.o)
 .toc           0x0000000000045dc0        0x8 /home/louis/Documents/ps3/ps3toolchain/bin/ppu/lib/gcc/powerpc64-ps3-elf/7.2.0/../../../../powerpc64-ps3-elf/lib/libc.a(lib_a-strtoull_r.o)
 .toc           0x0000000000045dc8        0x8 /home/louis/Documents/ps3/ps3toolchain/bin/ppu/lib/gcc/powerpc64-ps3-elf/7.2.0/../../../../powerpc64-ps3-elf/lib/libc.a(lib_a-strtoul.o)
 .toc           0x0000000000045dd0       0x30 /home/louis/Documents/ps3/ps3toolchain/bin/ppu/lib/gcc/powerpc64-ps3-elf/7.2.0/../../../../powerpc64-ps3-elf/lib/libc.a(lib_a-svfiscanf.o)
 .toc           0x0000000000045e00       0x68 /home/louis/Documents/ps3/ps3toolchain/bin/ppu/lib/gcc/powerpc64-ps3-elf/7.2.0/../../../../powerpc64-ps3-elf/lib/libc.a(lib_a-svfprintf.o)
 .toc           0x0000000000045e68       0x38 /home/louis/Documents/ps3/ps3toolchain/bin/ppu/lib/gcc/powerpc64-ps3-elf/7.2.0/../../../../powerpc64-ps3-elf/lib/libc.a(lib_a-vfiprintf.o)
 .toc           0x0000000000045ea0       0x20 /home/louis/Documents/ps3/ps3toolchain/bin/ppu/lib/gcc/powerpc64-ps3-elf/7.2.0/../../../../powerpc64-ps3-elf/lib/libc.a(lib_a-gdtoa-gethex.o)
 .toc           0x0000000000045ec0        0x8 /home/louis/Documents/ps3/ps3toolchain/bin/ppu/lib/gcc/powerpc64-ps3-elf/7.2.0/../../../../powerpc64-ps3-elf/lib/libc.a(lib_a-gdtoa-hexnan.o)
 .toc           0x0000000000045ec8       0x10 /home/louis/Documents/ps3/ps3toolchain/bin/ppu/lib/gcc/powerpc64-ps3-elf/7.2.0/../../../../powerpc64-ps3-elf/lib/libc.a(lib_a-lock_internal.o)
 .toc           0x0000000000045ed8       0x38 /home/louis/Documents/ps3/ps3toolchain/bin/ppu/lib/gcc/powerpc64-ps3-elf/7.2.0/../../../../powerpc64-ps3-elf/lib/libc.a(lib_a-svfiprintf.o)
 .toc           0x0000000000045f10        0x8 /home/louis/Documents/ps3/ps3toolchain/bin/ppu/lib/gcc/powerpc64-ps3-elf/7.2.0/../../../../powerpc64-ps3-elf/lib/libc.a(lib_a-wcrtomb.o)
 .toc           0x0000000000045f18        0x8 /home/louis/Documents/ps3/ps3toolchain/bin/ppu/lib/gcc/powerpc64-ps3-elf/7.2.0/../../../../powerpc64-ps3-elf/lib/libc.a(lib_a-wctomb_r.o)
 .toc           0x0000000000045f20        0x8 /home/louis/Documents/ps3/ps3toolchain/bin/ppu/lib/gcc/powerpc64-ps3-elf/7.2.0/../../../../powerpc64-ps3-elf/lib/libsysbase.a(close.o)
 .toc           0x0000000000045f28        0x8 /home/louis/Documents/ps3/ps3toolchain/bin/ppu/lib/gcc/powerpc64-ps3-elf/7.2.0/../../../../powerpc64-ps3-elf/lib/libsysbase.a(sbrk.o)
 .toc           0x0000000000045f30        0x8 /home/louis/Documents/ps3/ps3toolchain/bin/ppu/lib/gcc/powerpc64-ps3-elf/7.2.0/../../../../powerpc64-ps3-elf/lib/libsysbase.a(_exit.o)
 .toc           0x0000000000045f38        0x8 /home/louis/Documents/ps3/ps3toolchain/bin/ppu/lib/gcc/powerpc64-ps3-elf/7.2.0/../../../../powerpc64-ps3-elf/lib/libsysbase.a(fstat.o)
 .toc           0x0000000000045f40        0x8 /home/louis/Documents/ps3/ps3toolchain/bin/ppu/lib/gcc/powerpc64-ps3-elf/7.2.0/../../../../powerpc64-ps3-elf/lib/libsysbase.a(isatty.o)
 .toc           0x0000000000045f48        0x8 /home/louis/Documents/ps3/ps3toolchain/bin/ppu/lib/gcc/powerpc64-ps3-elf/7.2.0/../../../../powerpc64-ps3-elf/lib/libsysbase.a(lseek.o)
 .toc           0x0000000000045f50        0x8 /home/louis/Documents/ps3/ps3toolchain/bin/ppu/lib/gcc/powerpc64-ps3-elf/7.2.0/../../../../powerpc64-ps3-elf/lib/libsysbase.a(read.o)
 .toc           0x0000000000045f58        0x8 /home/louis/Documents/ps3/ps3toolchain/bin/ppu/lib/gcc/powerpc64-ps3-elf/7.2.0/../../../../powerpc64-ps3-elf/lib/libsysbase.a(write.o)
 .toc           0x0000000000045f60        0x8 /home/louis/Documents/ps3/ps3toolchain/bin/ppu/lib/gcc/powerpc64-ps3-elf/7.2.0/../../../../powerpc64-ps3-elf/lib/libsysbase.a(lock.o)
 .toc           0x0000000000045f68        0x8 /home/louis/Documents/ps3/ps3toolchain/bin/ppu/lib/gcc/powerpc64-ps3-elf/7.2.0/../../../../powerpc64-ps3-elf/lib/libsysbase.a(getpid.o)
 .toc           0x0000000000045f70        0x8 /home/louis/Documents/ps3/ps3toolchain/bin/ppu/lib/gcc/powerpc64-ps3-elf/7.2.0/../../../../powerpc64-ps3-elf/lib/libsysbase.a(gettod.o)

.toc.sceStub
 *(.toc.sceStub)
 *(SORT(.toc.sceStub.*))

.tdata
 *(.tdata .tdata.* .gnu.linkonce.td.*)

.tbss           0x0000000000045f78      0x780
 *(.tbss .tbss.* .gnu.linkonce.tb.*)
 .tbss.t_reentp
                0x0000000000045f78        0x8 /home/louis/Documents/ps3/ps3toolchain/bin/ppu/lib/gcc/powerpc64-ps3-elf/7.2.0/../../../../powerpc64-ps3-elf/lib/libc.a(lib_a-getreent.o)
 .tbss.t_reent  0x0000000000045f80      0x778 /home/louis/Documents/ps3/ps3toolchain/bin/ppu/lib/gcc/powerpc64-ps3-elf/7.2.0/../../../../powerpc64-ps3-elf/lib/libc.a(lib_a-getreent.o)
 *(.tcommon)
                0x0000000010000000                . = ALIGN (0x10000000)

.rodata         0x0000000010000000     0x1cd8
 *(.rodata .rodata.* .gnu.linkonce.r.*)
 .rodata        0x0000000010000000       0x18 /home/louis/Documents/ps3/ps3toolchain/bin/ppu/lib/gcc/powerpc64-ps3-elf/7.2.0/../../../../powerpc64-ps3-elf/lib/lv2-crt0.o
                0x0000000010000000                _start
 .rodata.main.str1.8
                0x0000000010000018       0x15 main.o
 *fill*         0x000000001000002d        0x3 00
 .rodata.getControl.cst8
                0x0000000010000030       0x10 pad.o
 .rodata.normalizeAnalogSticks.cst4
                0x0000000010000040        0x8 pad.o
 .rodata.rendering_loop.cst4
                0x0000000010000048        0x4 rendering.o
 *fill*         0x000000001000004c        0x4 00
 .rodata.rendering_loop.str1.8
                0x0000000010000050       0x20 rendering.o
 .rodata.MatrixMultiply.cst4
                0x0000000010000070        0x4 /home/louis/Documents/ps3/ps3toolchain/bin/portlibs/ppu/lib/libtiny3d.a(matrix.o)
 .rodata.MatrixProjPerspective.cst4
                0x0000000010000074        0x8 /home/louis/Documents/ps3/ps3toolchain/bin/portlibs/ppu/lib/libtiny3d.a(matrix.o)
 .rodata.MatrixRotationAxis.cst4
                0x000000001000007c        0xc /home/louis/Documents/ps3/ps3toolchain/bin/portlibs/ppu/lib/libtiny3d.a(matrix.o)
 .rodata.matrix_ident
                0x0000000010000088       0x40 /home/louis/Documents/ps3/ps3toolchain/bin/portlibs/ppu/lib/libtiny3d.a(matrix.o)
 .rodata.Update_With_Normal.cst4
                0x0000000000000000        0x8 /home/louis/Documents/ps3/ps3toolchain/bin/portlibs/ppu/lib/libtiny3d.a(tiny3d.o)
 .rodata.fpshader_list
                0x00000000100000c8       0x70 /home/louis/Documents/ps3/ps3toolchain/bin/portlibs/ppu/lib/libtiny3d.a(tiny3d.o)
 .rodata.tiny3d_Clear.cst4
                0x0000000010000138       0x10 /home/louis/Documents/ps3/ps3toolchain/bin/portlibs/ppu/lib/libtiny3d.a(tiny3d.o)
 .rodata.tiny3d_Init.str1.8
                0x0000000010000148      0x112 /home/louis/Documents/ps3/ps3toolchain/bin/portlibs/ppu/lib/libtiny3d.a(tiny3d.o)
 *fill*         0x000000001000025a        0x2 00
 .rodata.tiny3d_Project2D.cst4
                0x000000001000025c       0x3c /home/louis/Documents/ps3/ps3toolchain/bin/portlibs/ppu/lib/libtiny3d.a(tiny3d.o)
 .rodata.tiny3d_Project3D.cst4
                0x0000000010000298        0xc /home/louis/Documents/ps3/ps3toolchain/bin/portlibs/ppu/lib/libtiny3d.a(tiny3d.o)
 .rodata        0x00000000100002a4      0xe00 /home/louis/Documents/ps3/ps3toolchain/bin/portlibs/ppu/lib/libtiny3d.a(vshader_text_normal.vcg.o)
                0x00000000100002a4                vshader_text_normal_bin
 .rodata.dma_cmds
                0x00000000100010a4       0x14 /home/louis/Documents/ps3/ps3toolchain/bin/portlibs/ppu/lib/libtiny3d.a(commands.o)
 .rodata.offset_cmds
                0x00000000100010b8       0x14 /home/louis/Documents/ps3/ps3toolchain/bin/portlibs/ppu/lib/libtiny3d.a(commands.o)
 .rodata.pitch_cmds
                0x00000000100010cc       0x14 /home/louis/Documents/ps3/ps3toolchain/bin/portlibs/ppu/lib/libtiny3d.a(commands.o)
 .rodata.inet_aton.str1.8
                0x00000000100010e0        0xc /home/louis/Documents/ps3/ps3toolchain/bin/ppu/lib/librt.a(socket.o)
 *fill*         0x00000000100010ec        0x4 00
 .rodata.flattenDirectory.constprop.0.str1.8
                0x00000000100010f0        0x2 /home/louis/Documents/ps3/ps3toolchain/bin/ppu/lib/librt.a(globfile.o)
 *fill*         0x00000000100010f2        0x2 00
 .rodata.sinef.cst4
                0x00000000100010f4       0x20 /home/louis/Documents/ps3/ps3toolchain/bin/ppu/lib/gcc/powerpc64-ps3-elf/7.2.0/../../../../powerpc64-ps3-elf/lib/libm.a(lib_a-sf_sine.o)
                                         0x28 (size before relaxing)
 .rodata.sinef.cst8
                0x0000000000000000        0x8 /home/louis/Documents/ps3/ps3toolchain/bin/ppu/lib/gcc/powerpc64-ps3-elf/7.2.0/../../../../powerpc64-ps3-elf/lib/libm.a(lib_a-sf_sine.o)
 .rodata.sqrtf.cst4
                0x0000000000000000        0x8 /home/louis/Documents/ps3/ps3toolchain/bin/ppu/lib/gcc/powerpc64-ps3-elf/7.2.0/../../../../powerpc64-ps3-elf/lib/libm.a(lib_a-sf_sqrt.o)
 *fill*         0x0000000010001114        0x4 00
 .rodata.sqrtf.cst8
                0x0000000010001118       0x18 /home/louis/Documents/ps3/ps3toolchain/bin/ppu/lib/gcc/powerpc64-ps3-elf/7.2.0/../../../../powerpc64-ps3-elf/lib/libm.a(lib_a-sf_sqrt.o)
 .rodata.tanf.cst4
                0x0000000010001130       0x10 /home/louis/Documents/ps3/ps3toolchain/bin/ppu/lib/gcc/powerpc64-ps3-elf/7.2.0/../../../../powerpc64-ps3-elf/lib/libm.a(lib_a-sf_tan.o)
                                         0x1c (size before relaxing)
 .rodata.tanf.cst8
                0x0000000010001140       0x10 /home/louis/Documents/ps3/ps3toolchain/bin/ppu/lib/gcc/powerpc64-ps3-elf/7.2.0/../../../../powerpc64-ps3-elf/lib/libm.a(lib_a-sf_tan.o)
 .rodata.z_hugeval
                0x0000000010001150       0x10 /home/louis/Documents/ps3/ps3toolchain/bin/ppu/lib/gcc/powerpc64-ps3-elf/7.2.0/../../../../powerpc64-ps3-elf/lib/libm.a(lib_a-s_mathcnst.o)
                0x0000000010001150                z_hugeval
 .rodata.z_hugeval_f
                0x0000000010001160        0x8 /home/louis/Documents/ps3/ps3toolchain/bin/ppu/lib/gcc/powerpc64-ps3-elf/7.2.0/../../../../powerpc64-ps3-elf/lib/libm.a(lib_a-s_mathcnst.o)
                0x0000000010001160                z_hugeval_f
 .rodata.z_infinity
                0x0000000010001168       0x10 /home/louis/Documents/ps3/ps3toolchain/bin/ppu/lib/gcc/powerpc64-ps3-elf/7.2.0/../../../../powerpc64-ps3-elf/lib/libm.a(lib_a-s_mathcnst.o)
                0x0000000010001168                z_infinity
 .rodata.z_infinity_f
                0x0000000010001178        0x8 /home/louis/Documents/ps3/ps3toolchain/bin/ppu/lib/gcc/powerpc64-ps3-elf/7.2.0/../../../../powerpc64-ps3-elf/lib/libm.a(lib_a-s_mathcnst.o)
                0x0000000010001178                z_infinity_f
 .rodata.z_notanum
                0x0000000010001180       0x10 /home/louis/Documents/ps3/ps3toolchain/bin/ppu/lib/gcc/powerpc64-ps3-elf/7.2.0/../../../../powerpc64-ps3-elf/lib/libm.a(lib_a-s_mathcnst.o)
                0x0000000010001180                z_notanum
 .rodata.z_notanum_f
                0x0000000010001190        0x8 /home/louis/Documents/ps3/ps3toolchain/bin/ppu/lib/gcc/powerpc64-ps3-elf/7.2.0/../../../../powerpc64-ps3-elf/lib/libm.a(lib_a-s_mathcnst.o)
                0x0000000010001190                z_notanum_f
 .rodata.sqrt.cst4
                0x0000000000000000        0x8 /home/louis/Documents/ps3/ps3toolchain/bin/ppu/lib/gcc/powerpc64-ps3-elf/7.2.0/../../../../powerpc64-ps3-elf/lib/libm.a(lib_a-s_sqrt.o)
 .rodata.sqrt.cst8
                0x0000000000000000       0x18 /home/louis/Documents/ps3/ps3toolchain/bin/ppu/lib/gcc/powerpc64-ps3-elf/7.2.0/../../../../powerpc64-ps3-elf/lib/libm.a(lib_a-s_sqrt.o)
 .rodata.fabsf.cst4
                0x0000000000000000        0x4 /home/louis/Documents/ps3/ps3toolchain/bin/ppu/lib/gcc/powerpc64-ps3-elf/7.2.0/../../../../powerpc64-ps3-elf/lib/libm.a(lib_a-sf_fabs.o)
 .rodata.floorf.cst4
                0x0000000000000000        0xc /home/louis/Documents/ps3/ps3toolchain/bin/ppu/lib/gcc/powerpc64-ps3-elf/7.2.0/../../../../powerpc64-ps3-elf/lib/libm.a(lib_a-sf_floor.o)
 .rodata.numtestf.cst4
                0x0000000000000000        0x4 /home/louis/Documents/ps3/ps3toolchain/bin/ppu/lib/gcc/powerpc64-ps3-elf/7.2.0/../../../../powerpc64-ps3-elf/lib/libm.a(lib_a-sf_numtest.o)
 .rodata.numtest.cst4
                0x0000000000000000        0x4 /home/louis/Documents/ps3/ps3toolchain/bin/ppu/lib/gcc/powerpc64-ps3-elf/7.2.0/../../../../powerpc64-ps3-elf/lib/libm.a(lib_a-s_numtest.o)
 .rodata.__getreent.str1.8
                0x0000000010001198        0x2 /home/louis/Documents/ps3/ps3toolchain/bin/ppu/lib/gcc/powerpc64-ps3-elf/7.2.0/../../../../powerpc64-ps3-elf/lib/libc.a(lib_a-getreent.o)
 *fill*         0x000000001000119a        0x6 00
 .rodata._global_impure_ptr
                0x00000000100011a0        0x8 /home/louis/Documents/ps3/ps3toolchain/bin/ppu/lib/gcc/powerpc64-ps3-elf/7.2.0/../../../../powerpc64-ps3-elf/lib/libc.a(lib_a-impure.o)
                0x00000000100011a0                _global_impure_ptr
 .rodata.str1.8
                0x0000000000000000        0x2 /home/louis/Documents/ps3/ps3toolchain/bin/ppu/lib/gcc/powerpc64-ps3-elf/7.2.0/../../../../powerpc64-ps3-elf/lib/libc.a(lib_a-impure.o)
 .rodata._perror_r.str1.8
                0x00000000100011a8        0x3 /home/louis/Documents/ps3/ps3toolchain/bin/ppu/lib/gcc/powerpc64-ps3-elf/7.2.0/../../../../powerpc64-ps3-elf/lib/libc.a(lib_a-perror.o)
 *fill*         0x00000000100011ab        0x5 00
 .rodata._strerror_r.str1.8
                0x00000000100011b0      0x6cd /home/louis/Documents/ps3/ps3toolchain/bin/ppu/lib/gcc/powerpc64-ps3-elf/7.2.0/../../../../powerpc64-ps3-elf/lib/libc.a(lib_a-strerror.o)
                                        0x6d1 (size before relaxing)
 *fill*         0x000000001000187d        0x3 00
 .rodata.__ssvfscanf_r.str1.8
                0x0000000010001880        0x5 /home/louis/Documents/ps3/ps3toolchain/bin/ppu/lib/gcc/powerpc64-ps3-elf/7.2.0/../../../../powerpc64-ps3-elf/lib/libc.a(lib_a-svfscanf.o)
 *fill*         0x0000000010001885        0x1 00
 .rodata.basefix.4915
                0x0000000010001886       0x22 /home/louis/Documents/ps3/ps3toolchain/bin/ppu/lib/gcc/powerpc64-ps3-elf/7.2.0/../../../../powerpc64-ps3-elf/lib/libc.a(lib_a-svfscanf.o)
 .rodata._vfprintf_r.cst4
                0x0000000000000000        0x4 /home/louis/Documents/ps3/ps3toolchain/bin/ppu/lib/gcc/powerpc64-ps3-elf/7.2.0/../../../../powerpc64-ps3-elf/lib/libc.a(lib_a-vfprintf.o)
 .rodata._vfprintf_r.str1.8
                0x00000000100018a8       0x5a /home/louis/Documents/ps3/ps3toolchain/bin/ppu/lib/gcc/powerpc64-ps3-elf/7.2.0/../../../../powerpc64-ps3-elf/lib/libc.a(lib_a-vfprintf.o)
 *fill*         0x0000000010001902        0x6 00
 .rodata.blanks.5018
                0x0000000010001908       0x10 /home/louis/Documents/ps3/ps3toolchain/bin/ppu/lib/gcc/powerpc64-ps3-elf/7.2.0/../../../../powerpc64-ps3-elf/lib/libc.a(lib_a-vfprintf.o)
 .rodata.zeroes.5019
                0x0000000010001918       0x10 /home/louis/Documents/ps3/ps3toolchain/bin/ppu/lib/gcc/powerpc64-ps3-elf/7.2.0/../../../../powerpc64-ps3-elf/lib/libc.a(lib_a-vfprintf.o)
 .rodata._ctype_
                0x0000000010001928      0x101 /home/louis/Documents/ps3/ps3toolchain/bin/ppu/lib/gcc/powerpc64-ps3-elf/7.2.0/../../../../powerpc64-ps3-elf/lib/libc.a(lib_a-ctype_.o)
                0x0000000010001928                _ctype_
 *fill*         0x0000000010001a29        0x3 00
 .rodata._dtoa_r.cst4
                0x0000000010001a2c       0x10 /home/louis/Documents/ps3/ps3toolchain/bin/ppu/lib/gcc/powerpc64-ps3-elf/7.2.0/../../../../powerpc64-ps3-elf/lib/libc.a(lib_a-dtoa.o)
                                         0x1c (size before relaxing)
 *fill*         0x0000000010001a3c        0x4 00
 .rodata._dtoa_r.cst8
                0x0000000010001a40       0x18 /home/louis/Documents/ps3/ps3toolchain/bin/ppu/lib/gcc/powerpc64-ps3-elf/7.2.0/../../../../powerpc64-ps3-elf/lib/libc.a(lib_a-dtoa.o)
 .rodata._dtoa_r.str1.8
                0x0000000010001a58       0x14 /home/louis/Documents/ps3/ps3toolchain/bin/ppu/lib/gcc/powerpc64-ps3-elf/7.2.0/../../../../powerpc64-ps3-elf/lib/libc.a(lib_a-dtoa.o)
                                         0x1a (size before relaxing)
 *fill*         0x0000000010001a6c        0x4 00
 .rodata._setlocale_r.str1.8
                0x0000000010001a70        0x6 /home/louis/Documents/ps3/ps3toolchain/bin/ppu/lib/gcc/powerpc64-ps3-elf/7.2.0/../../../../powerpc64-ps3-elf/lib/libc.a(lib_a-locale.o)
                                         0x11 (size before relaxing)
 *fill*         0x0000000010001a76        0x2 00
 .rodata.str1.8
                0x0000000010001a78        0x2 /home/louis/Documents/ps3/ps3toolchain/bin/ppu/lib/gcc/powerpc64-ps3-elf/7.2.0/../../../../powerpc64-ps3-elf/lib/libc.a(lib_a-locale.o)
 *fill*         0x0000000010001a7a        0x2 00
 .rodata.__libc_lock_attributes
                0x0000000010001a7c       0x10 /home/louis/Documents/ps3/ps3toolchain/bin/ppu/lib/gcc/powerpc64-ps3-elf/7.2.0/../../../../powerpc64-ps3-elf/lib/libc.a(lib_a-lock_recursive.o)
 .rodata._mbrtowc_r.str1.8
                0x0000000000000000        0x1 /home/louis/Documents/ps3/ps3toolchain/bin/ppu/lib/gcc/powerpc64-ps3-elf/7.2.0/../../../../powerpc64-ps3-elf/lib/libc.a(lib_a-mbrtowc.o)
 *fill*         0x0000000010001a8c        0x4 00
 .rodata.__mprec_bigtens
                0x0000000010001a90       0x28 /home/louis/Documents/ps3/ps3toolchain/bin/ppu/lib/gcc/powerpc64-ps3-elf/7.2.0/../../../../powerpc64-ps3-elf/lib/libc.a(lib_a-mprec.o)
                0x0000000010001a90                __mprec_bigtens
 .rodata.__mprec_tens
                0x0000000010001ab8       0xc8 /home/louis/Documents/ps3/ps3toolchain/bin/ppu/lib/gcc/powerpc64-ps3-elf/7.2.0/../../../../powerpc64-ps3-elf/lib/libc.a(lib_a-mprec.o)
                0x0000000010001ab8                __mprec_tens
 .rodata.__mprec_tinytens
                0x0000000010001b80       0x28 /home/louis/Documents/ps3/ps3toolchain/bin/ppu/lib/gcc/powerpc64-ps3-elf/7.2.0/../../../../powerpc64-ps3-elf/lib/libc.a(lib_a-mprec.o)
                0x0000000010001b80                __mprec_tinytens
 .rodata._mprec_log10.cst4
                0x0000000000000000        0x8 /home/louis/Documents/ps3/ps3toolchain/bin/ppu/lib/gcc/powerpc64-ps3-elf/7.2.0/../../../../powerpc64-ps3-elf/lib/libc.a(lib_a-mprec.o)
 .rodata.p05.3544
                0x0000000010001ba8        0xc /home/louis/Documents/ps3/ps3toolchain/bin/ppu/lib/gcc/powerpc64-ps3-elf/7.2.0/../../../../powerpc64-ps3-elf/lib/libc.a(lib_a-mprec.o)
 .rodata.nanf.cst4
                0x0000000010001bb4        0x4 /home/louis/Documents/ps3/ps3toolchain/bin/ppu/lib/gcc/powerpc64-ps3-elf/7.2.0/../../../../powerpc64-ps3-elf/lib/libc.a(lib_a-sf_nan.o)
 .rodata._strtod_r.cst4
                0x0000000010001bb8        0x8 /home/louis/Documents/ps3/ps3toolchain/bin/ppu/lib/gcc/powerpc64-ps3-elf/7.2.0/../../../../powerpc64-ps3-elf/lib/libc.a(lib_a-strtod.o)
                                         0x14 (size before relaxing)
 .rodata._strtod_r.cst8
                0x0000000010001bc0       0x20 /home/louis/Documents/ps3/ps3toolchain/bin/ppu/lib/gcc/powerpc64-ps3-elf/7.2.0/../../../../powerpc64-ps3-elf/lib/libc.a(lib_a-strtod.o)
 .rodata._strtod_r.str1.8
                0x0000000010001be0       0x13 /home/louis/Documents/ps3/ps3toolchain/bin/ppu/lib/gcc/powerpc64-ps3-elf/7.2.0/../../../../powerpc64-ps3-elf/lib/libc.a(lib_a-strtod.o)
 *fill*         0x0000000010001bf3        0x5 00
 .rodata.tinytens
                0x0000000010001bf8       0x28 /home/louis/Documents/ps3/ps3toolchain/bin/ppu/lib/gcc/powerpc64-ps3-elf/7.2.0/../../../../powerpc64-ps3-elf/lib/libc.a(lib_a-strtod.o)
 .rodata.basefix.4415
                0x0000000010001c20       0x22 /home/louis/Documents/ps3/ps3toolchain/bin/ppu/lib/gcc/powerpc64-ps3-elf/7.2.0/../../../../powerpc64-ps3-elf/lib/libc.a(lib_a-svfiscanf.o)
 .rodata._svfprintf_r.cst4
                0x0000000000000000        0x4 /home/louis/Documents/ps3/ps3toolchain/bin/ppu/lib/gcc/powerpc64-ps3-elf/7.2.0/../../../../powerpc64-ps3-elf/lib/libc.a(lib_a-svfprintf.o)
 .rodata._svfprintf_r.str1.8
                0x0000000000000000       0x5a /home/louis/Documents/ps3/ps3toolchain/bin/ppu/lib/gcc/powerpc64-ps3-elf/7.2.0/../../../../powerpc64-ps3-elf/lib/libc.a(lib_a-svfprintf.o)
 *fill*         0x0000000010001c42        0x6 00
 .rodata.blanks.5003
                0x0000000010001c48       0x10 /home/louis/Documents/ps3/ps3toolchain/bin/ppu/lib/gcc/powerpc64-ps3-elf/7.2.0/../../../../powerpc64-ps3-elf/lib/libc.a(lib_a-svfprintf.o)
 .rodata.zeroes.5004
                0x0000000010001c58       0x10 /home/louis/Documents/ps3/ps3toolchain/bin/ppu/lib/gcc/powerpc64-ps3-elf/7.2.0/../../../../powerpc64-ps3-elf/lib/libc.a(lib_a-svfprintf.o)
 .rodata._vfiprintf_r.str1.8
                0x0000000000000000       0x37 /home/louis/Documents/ps3/ps3toolchain/bin/ppu/lib/gcc/powerpc64-ps3-elf/7.2.0/../../../../powerpc64-ps3-elf/lib/libc.a(lib_a-vfiprintf.o)
 .rodata.blanks.4961
                0x0000000010001c68       0x10 /home/louis/Documents/ps3/ps3toolchain/bin/ppu/lib/gcc/powerpc64-ps3-elf/7.2.0/../../../../powerpc64-ps3-elf/lib/libc.a(lib_a-vfiprintf.o)
 .rodata.zeroes.4962
                0x0000000010001c78       0x10 /home/louis/Documents/ps3/ps3toolchain/bin/ppu/lib/gcc/powerpc64-ps3-elf/7.2.0/../../../../powerpc64-ps3-elf/lib/libc.a(lib_a-vfiprintf.o)
 .rodata.str1.8
                0x0000000010001c88       0x20 /home/louis/Documents/ps3/ps3toolchain/bin/ppu/lib/gcc/powerpc64-ps3-elf/7.2.0/../../../../powerpc64-ps3-elf/lib/libc.a(lib_a-gdtoa-gethex.o)
                                         0x1b (size before relaxing)
 .rodata.__libc_lock_attributes
                0x0000000010001ca8       0x10 /home/louis/Documents/ps3/ps3toolchain/bin/ppu/lib/gcc/powerpc64-ps3-elf/7.2.0/../../../../powerpc64-ps3-elf/lib/libc.a(lib_a-lock_internal.o)
 .rodata._svfiprintf_r.str1.8
                0x0000000000000000       0x37 /home/louis/Documents/ps3/ps3toolchain/bin/ppu/lib/gcc/powerpc64-ps3-elf/7.2.0/../../../../powerpc64-ps3-elf/lib/libc.a(lib_a-svfiprintf.o)
 .rodata.blanks.4947
                0x0000000010001cb8       0x10 /home/louis/Documents/ps3/ps3toolchain/bin/ppu/lib/gcc/powerpc64-ps3-elf/7.2.0/../../../../powerpc64-ps3-elf/lib/libc.a(lib_a-svfiprintf.o)
 .rodata.zeroes.4948
                0x0000000010001cc8       0x10 /home/louis/Documents/ps3/ps3toolchain/bin/ppu/lib/gcc/powerpc64-ps3-elf/7.2.0/../../../../powerpc64-ps3-elf/lib/libc.a(lib_a-svfiprintf.o)

.rodata1
 *(.rodata1)

.spu_image
 *(.spu_image .spu_image.*)
                0x0000000010010000                . = ALIGN (0x10000)

.data           0x0000000010010000     0x1c30
 *(.data .data.* .gnu.linkonce.d.*)
 .data          0x0000000010010000        0x0 /home/louis/Documents/ps3/ps3toolchain/bin/ppu/lib/gcc/powerpc64-ps3-elf/7.2.0/../../../../powerpc64-ps3-elf/lib/lv2-crti.o
 .data          0x0000000010010000        0x0 /home/louis/Documents/ps3/ps3toolchain/bin/ppu/lib/gcc/powerpc64-ps3-elf/7.2.0/crtbegin.o
 .data.__dso_handle
                0x0000000010010000        0x8 /home/louis/Documents/ps3/ps3toolchain/bin/ppu/lib/gcc/powerpc64-ps3-elf/7.2.0/crtbegin.o
                0x0000000010010000                __dso_handle
 .data          0x0000000010010008        0x0 /home/louis/Documents/ps3/ps3toolchain/bin/ppu/lib/gcc/powerpc64-ps3-elf/7.2.0/../../../../powerpc64-ps3-elf/lib/lv2-crt0.o
 .data          0x0000000010010008        0x0 /home/louis/Documents/ps3/ps3toolchain/bin/ppu/lib/gcc/powerpc64-ps3-elf/7.2.0/../../../../powerpc64-ps3-elf/lib/lv2-sprx.o
 .data          0x0000000010010008        0x0 main.o
 .data.cube     0x0000000010010008      0x180 main.o
                0x0000000010010008                cube
 .data.eye      0x0000000010010188        0xc main.o
                0x0000000010010188                eye
 .data.up       0x0000000010010194        0xc main.o
                0x0000000010010194                up
 .data          0x00000000100101a0        0x0 pad.o
 .data          0x00000000100101a0        0x0 rendering.o
 .data.cube     0x00000000100101a0      0x180 rendering.o
 .data.eye      0x0000000010010320        0xc rendering.o
 .data.up       0x000000001001032c        0xc rendering.o
 .data          0x0000000010010338        0x0 /home/louis/Documents/ps3/ps3toolchain/bin/portlibs/ppu/lib/libtiny3d.a(matrix.o)
 .data          0x0000000010010338        0x0 /home/louis/Documents/ps3/ps3toolchain/bin/portlibs/ppu/lib/libtiny3d.a(tiny3d.o)
 .data.current_shader
                0x0000000010010338        0x4 /home/louis/Documents/ps3/ps3toolchain/bin/portlibs/ppu/lib/libtiny3d.a(tiny3d.o)
 .data.matrix_ident
                0x000000001001033c       0x40 /home/louis/Documents/ps3/ps3toolchain/bin/portlibs/ppu/lib/libtiny3d.a(tiny3d.o)
 .data.min_vertex
                0x000000001001037c        0x4 /home/louis/Documents/ps3/ps3toolchain/bin/portlibs/ppu/lib/libtiny3d.a(tiny3d.o)
 .data.mod_vertex
                0x0000000010010380        0x4 /home/louis/Documents/ps3/ps3toolchain/bin/portlibs/ppu/lib/libtiny3d.a(tiny3d.o)
 .data.nv30_fp_color
                0x0000000010010384       0x1c /home/louis/Documents/ps3/ps3toolchain/bin/portlibs/ppu/lib/libtiny3d.a(tiny3d.o)
 .data.nv30_fp_texture
                0x00000000100103a0       0x1c /home/louis/Documents/ps3/ps3toolchain/bin/portlibs/ppu/lib/libtiny3d.a(tiny3d.o)
 .data.nv30_fp_texture2
                0x00000000100103bc       0x3c /home/louis/Documents/ps3/ps3toolchain/bin/portlibs/ppu/lib/libtiny3d.a(tiny3d.o)
 .data.nv30_fp_texture2_alt
                0x00000000100103f8       0x6c /home/louis/Documents/ps3/ps3toolchain/bin/portlibs/ppu/lib/libtiny3d.a(tiny3d.o)
 .data.nv30_fp_texture2_alt2
                0x0000000010010464       0x5c /home/louis/Documents/ps3/ps3toolchain/bin/portlibs/ppu/lib/libtiny3d.a(tiny3d.o)
 .data.nv30_fp_texture_color
                0x00000000100104c0       0x2c /home/louis/Documents/ps3/ps3toolchain/bin/portlibs/ppu/lib/libtiny3d.a(tiny3d.o)
 .data.nv30_fp_texture_color2
                0x00000000100104ec       0x4c /home/louis/Documents/ps3/ps3toolchain/bin/portlibs/ppu/lib/libtiny3d.a(tiny3d.o)
 .data.nv30_fp_texture_color2_alt
                0x0000000010010538       0x7c /home/louis/Documents/ps3/ps3toolchain/bin/portlibs/ppu/lib/libtiny3d.a(tiny3d.o)
 .data.nv30_fp_texture_color2_alt2
                0x00000000100105b4       0x6c /home/louis/Documents/ps3/ps3toolchain/bin/portlibs/ppu/lib/libtiny3d.a(tiny3d.o)
 .data.nv30_fp_yuv
                0x0000000010010620      0x11c /home/louis/Documents/ps3/ps3toolchain/bin/portlibs/ppu/lib/libtiny3d.a(tiny3d.o)
 .data.nv30_fp_yuv8
                0x000000001001073c      0x17c /home/louis/Documents/ps3/ps3toolchain/bin/portlibs/ppu/lib/libtiny3d.a(tiny3d.o)
 .data.nv30_fp_yuv_color
                0x00000000100108b8      0x12c /home/louis/Documents/ps3/ps3toolchain/bin/portlibs/ppu/lib/libtiny3d.a(tiny3d.o)
 .data.nv30_fp_yuv_color8
                0x00000000100109e4      0x17c /home/louis/Documents/ps3/ps3toolchain/bin/portlibs/ppu/lib/libtiny3d.a(tiny3d.o)
 .data.polygon  0x0000000010010b60        0x4 /home/louis/Documents/ps3/ps3toolchain/bin/portlibs/ppu/lib/libtiny3d.a(tiny3d.o)
 .data.scale2D_x_surface
                0x0000000010010b64        0x4 /home/louis/Documents/ps3/ps3toolchain/bin/portlibs/ppu/lib/libtiny3d.a(tiny3d.o)
 .data.scale2D_x_viewport
                0x0000000010010b68        0x4 /home/louis/Documents/ps3/ps3toolchain/bin/portlibs/ppu/lib/libtiny3d.a(tiny3d.o)
 .data.scale2D_y_surface
                0x0000000010010b6c        0x4 /home/louis/Documents/ps3/ps3toolchain/bin/portlibs/ppu/lib/libtiny3d.a(tiny3d.o)
 .data.scale2D_y_viewport
                0x0000000010010b70        0x4 /home/louis/Documents/ps3/ps3toolchain/bin/portlibs/ppu/lib/libtiny3d.a(tiny3d.o)
 .data.scale3D_x_viewport
                0x0000000010010b74        0x4 /home/louis/Documents/ps3/ps3toolchain/bin/portlibs/ppu/lib/libtiny3d.a(tiny3d.o)
 .data.scale3D_y_viewport
                0x0000000010010b78        0x4 /home/louis/Documents/ps3/ps3toolchain/bin/portlibs/ppu/lib/libtiny3d.a(tiny3d.o)
 .data.size_rsx_vertex
                0x0000000010010b7c        0x4 /home/louis/Documents/ps3/ps3toolchain/bin/portlibs/ppu/lib/libtiny3d.a(tiny3d.o)
 .data          0x0000000010010b80        0x0 /home/louis/Documents/ps3/ps3toolchain/bin/portlibs/ppu/lib/libtiny3d.a(vshader_text_normal.vcg.o)
 .data          0x0000000010010b80        0x0 /home/louis/Documents/ps3/ps3toolchain/bin/portlibs/ppu/lib/libtiny3d.a(commands.o)
 .data          0x0000000010010b80        0x0 /home/louis/Documents/ps3/ps3toolchain/bin/portlibs/ppu/lib/libtiny3d.a(glue.o)
 .data          0x0000000010010b80        0x0 /home/louis/Documents/ps3/ps3toolchain/bin/portlibs/ppu/lib/libtiny3d.a(mm.o)
 .data          0x0000000010010b80        0x0 /home/louis/Documents/ps3/ps3toolchain/bin/portlibs/ppu/lib/libtiny3d.a(realityVP.o)
 .data          0x0000000010010b80        0x0 /home/louis/Documents/ps3/ps3toolchain/bin/portlibs/ppu/lib/libtiny3d.a(rsxutil.o)
 .data          0x0000000010010b80        0x0 /home/louis/Documents/ps3/ps3toolchain/bin/portlibs/ppu/lib/libtiny3d.a(buffer.o)
 .data          0x0000000010010b80        0x0 /home/louis/Documents/ps3/ps3toolchain/bin/ppu/lib/libgcm_sys.a(sprx.o)
 .data          0x0000000010010b80        0x0 /home/louis/Documents/ps3/ps3toolchain/bin/ppu/lib/libgcm_sys.a(gcm_wrapper.o)
 .data          0x0000000010010b80        0x0 /home/louis/Documents/ps3/ps3toolchain/bin/ppu/lib/libio.a(sprx.o)
 .data          0x0000000010010b80        0x0 /home/louis/Documents/ps3/ps3toolchain/bin/ppu/lib/libsysutil.a(sprx.o)
 .data          0x0000000010010b80        0x0 /home/louis/Documents/ps3/ps3toolchain/bin/ppu/lib/libsysutil.a(sysutil_wrapper.o)
 .data          0x0000000010010b80        0x0 /home/louis/Documents/ps3/ps3toolchain/bin/ppu/lib/librt.a(sbrk.o)
 .data          0x0000000010010b80        0x0 /home/louis/Documents/ps3/ps3toolchain/bin/ppu/lib/librt.a(exit.o)
 .data          0x0000000010010b80        0x0 /home/louis/Documents/ps3/ps3toolchain/bin/ppu/lib/librt.a(close.o)
 .data          0x0000000010010b80        0x0 /home/louis/Documents/ps3/ps3toolchain/bin/ppu/lib/librt.a(lseek.o)
 .data          0x0000000010010b80        0x0 /home/louis/Documents/ps3/ps3toolchain/bin/ppu/lib/librt.a(read.o)
 .data          0x0000000010010b80        0x0 /home/louis/Documents/ps3/ps3toolchain/bin/ppu/lib/librt.a(open.o)
 .data          0x0000000010010b80        0x0 /home/louis/Documents/ps3/ps3toolchain/bin/ppu/lib/librt.a(sleep.o)
 .data          0x0000000010010b80        0x0 /home/louis/Documents/ps3/ps3toolchain/bin/ppu/lib/librt.a(write.o)
 .data          0x0000000010010b80        0x0 /home/louis/Documents/ps3/ps3toolchain/bin/ppu/lib/librt.a(fstat.o)
 .data          0x0000000010010b80        0x0 /home/louis/Documents/ps3/ps3toolchain/bin/ppu/lib/librt.a(socket.o)
 .data          0x0000000010010b80        0x0 /home/louis/Documents/ps3/ps3toolchain/bin/ppu/lib/librt.a(lock.o)
 .data          0x0000000010010b80        0x0 /home/louis/Documents/ps3/ps3toolchain/bin/ppu/lib/librt.a(dirent.o)
 .data          0x0000000010010b80        0x0 /home/louis/Documents/ps3/ps3toolchain/bin/ppu/lib/librt.a(mkdir.o)
 .data          0x0000000010010b80        0x0 /home/louis/Documents/ps3/ps3toolchain/bin/ppu/lib/librt.a(times.o)
 .data          0x0000000010010b80        0x0 /home/louis/Documents/ps3/ps3toolchain/bin/ppu/lib/librt.a(umask.o)
 .data.g_umask  0x0000000010010b80        0x4 /home/louis/Documents/ps3/ps3toolchain/bin/ppu/lib/librt.a(umask.o)
                0x0000000010010b80                g_umask
 .data          0x0000000010010b84        0x0 /home/louis/Documents/ps3/ps3toolchain/bin/ppu/lib/librt.a(lv2errno.o)
 .data          0x0000000010010b84        0x0 /home/louis/Documents/ps3/ps3toolchain/bin/ppu/lib/librt.a(heap.o)
 .data          0x0000000010010b84        0x0 /home/louis/Documents/ps3/ps3toolchain/bin/ppu/lib/librt.a(chmod.o)
 .data          0x0000000010010b84        0x0 /home/louis/Documents/ps3/ps3toolchain/bin/ppu/lib/librt.a(rename.o)
 .data          0x0000000010010b84        0x0 /home/louis/Documents/ps3/ps3toolchain/bin/ppu/lib/librt.a(rmdir.o)
 .data          0x0000000010010b84        0x0 /home/louis/Documents/ps3/ps3toolchain/bin/ppu/lib/librt.a(isatty.o)
 .data          0x0000000010010b84        0x0 /home/louis/Documents/ps3/ps3toolchain/bin/ppu/lib/librt.a(gettod.o)
 .data          0x0000000010010b84        0x0 /home/louis/Documents/ps3/ps3toolchain/bin/ppu/lib/librt.a(settod.o)
 .data          0x0000000010010b84        0x0 /home/louis/Documents/ps3/ps3toolchain/bin/ppu/lib/librt.a(unlink.o)
 .data          0x0000000010010b84        0x0 /home/louis/Documents/ps3/ps3toolchain/bin/ppu/lib/librt.a(link.o)
 .data          0x0000000010010b84        0x0 /home/louis/Documents/ps3/ps3toolchain/bin/ppu/lib/librt.a(truncate.o)
 .data          0x0000000010010b84        0x0 /home/louis/Documents/ps3/ps3toolchain/bin/ppu/lib/librt.a(fsync.o)
 .data          0x0000000010010b84        0x0 /home/louis/Documents/ps3/ps3toolchain/bin/ppu/lib/librt.a(utime.o)
 .data          0x0000000010010b84        0x0 /home/louis/Documents/ps3/ps3toolchain/bin/ppu/lib/librt.a(globfile.o)
 .data          0x0000000010010b84        0x0 /home/louis/Documents/ps3/ps3toolchain/bin/ppu/lib/liblv2.a(sprx.o)
 .data          0x0000000010010b84        0x0 /home/louis/Documents/ps3/ps3toolchain/bin/ppu/lib/gcc/powerpc64-ps3-elf/7.2.0/../../../../powerpc64-ps3-elf/lib/libm.a(lib_a-sf_cos.o)
 .data          0x0000000010010b84        0x0 /home/louis/Documents/ps3/ps3toolchain/bin/ppu/lib/gcc/powerpc64-ps3-elf/7.2.0/../../../../powerpc64-ps3-elf/lib/libm.a(lib_a-sf_sine.o)
 .data          0x0000000010010b84        0x0 /home/louis/Documents/ps3/ps3toolchain/bin/ppu/lib/gcc/powerpc64-ps3-elf/7.2.0/../../../../powerpc64-ps3-elf/lib/libm.a(lib_a-sf_sin.o)
 .data          0x0000000010010b84        0x0 /home/louis/Documents/ps3/ps3toolchain/bin/ppu/lib/gcc/powerpc64-ps3-elf/7.2.0/../../../../powerpc64-ps3-elf/lib/libm.a(lib_a-sf_sqrt.o)
 .data          0x0000000010010b84        0x0 /home/louis/Documents/ps3/ps3toolchain/bin/ppu/lib/gcc/powerpc64-ps3-elf/7.2.0/../../../../powerpc64-ps3-elf/lib/libm.a(lib_a-sf_tan.o)
 .data          0x0000000010010b84        0x0 /home/louis/Documents/ps3/ps3toolchain/bin/ppu/lib/gcc/powerpc64-ps3-elf/7.2.0/../../../../powerpc64-ps3-elf/lib/libm.a(lib_a-s_mathcnst.o)
 *fill*         0x0000000010010b84        0x4 00
 .data.BIGX     0x0000000010010b88        0x8 /home/louis/Documents/ps3/ps3toolchain/bin/ppu/lib/gcc/powerpc64-ps3-elf/7.2.0/../../../../powerpc64-ps3-elf/lib/libm.a(lib_a-s_mathcnst.o)
                0x0000000010010b88                BIGX
 .data.SMALLX   0x0000000010010b90        0x8 /home/louis/Documents/ps3/ps3toolchain/bin/ppu/lib/gcc/powerpc64-ps3-elf/7.2.0/../../../../powerpc64-ps3-elf/lib/libm.a(lib_a-s_mathcnst.o)
                0x0000000010010b90                SMALLX
 .data.z_rooteps
                0x0000000010010b98        0x8 /home/louis/Documents/ps3/ps3toolchain/bin/ppu/lib/gcc/powerpc64-ps3-elf/7.2.0/../../../../powerpc64-ps3-elf/lib/libm.a(lib_a-s_mathcnst.o)
                0x0000000010010b98                z_rooteps
 .data.z_rooteps_f
                0x0000000010010ba0        0x4 /home/louis/Documents/ps3/ps3toolchain/bin/ppu/lib/gcc/powerpc64-ps3-elf/7.2.0/../../../../powerpc64-ps3-elf/lib/libm.a(lib_a-s_mathcnst.o)
                0x0000000010010ba0                z_rooteps_f
 .data          0x0000000010010ba4        0x0 /home/louis/Documents/ps3/ps3toolchain/bin/ppu/lib/gcc/powerpc64-ps3-elf/7.2.0/../../../../powerpc64-ps3-elf/lib/libm.a(lib_a-s_sqrt.o)
 .data          0x0000000010010ba4        0x0 /home/louis/Documents/ps3/ps3toolchain/bin/ppu/lib/gcc/powerpc64-ps3-elf/7.2.0/../../../../powerpc64-ps3-elf/lib/libm.a(lib_a-sf_fabs.o)
 .data          0x0000000010010ba4        0x0 /home/louis/Documents/ps3/ps3toolchain/bin/ppu/lib/gcc/powerpc64-ps3-elf/7.2.0/../../../../powerpc64-ps3-elf/lib/libm.a(lib_a-sf_floor.o)
 .data          0x0000000010010ba4        0x0 /home/louis/Documents/ps3/ps3toolchain/bin/ppu/lib/gcc/powerpc64-ps3-elf/7.2.0/../../../../powerpc64-ps3-elf/lib/libm.a(lib_a-sf_frexp.o)
 .data          0x0000000010010ba4        0x0 /home/louis/Documents/ps3/ps3toolchain/bin/ppu/lib/gcc/powerpc64-ps3-elf/7.2.0/../../../../powerpc64-ps3-elf/lib/libm.a(lib_a-sf_ispos.o)
 .data          0x0000000010010ba4        0x0 /home/louis/Documents/ps3/ps3toolchain/bin/ppu/lib/gcc/powerpc64-ps3-elf/7.2.0/../../../../powerpc64-ps3-elf/lib/libm.a(lib_a-sf_ldexp.o)
 .data          0x0000000010010ba4        0x0 /home/louis/Documents/ps3/ps3toolchain/bin/ppu/lib/gcc/powerpc64-ps3-elf/7.2.0/../../../../powerpc64-ps3-elf/lib/libm.a(lib_a-sf_modf.o)
 .data          0x0000000010010ba4        0x0 /home/louis/Documents/ps3/ps3toolchain/bin/ppu/lib/gcc/powerpc64-ps3-elf/7.2.0/../../../../powerpc64-ps3-elf/lib/libm.a(lib_a-sf_numtest.o)
 .data          0x0000000010010ba4        0x0 /home/louis/Documents/ps3/ps3toolchain/bin/ppu/lib/gcc/powerpc64-ps3-elf/7.2.0/../../../../powerpc64-ps3-elf/lib/libm.a(lib_a-s_frexp.o)
 .data          0x0000000010010ba4        0x0 /home/louis/Documents/ps3/ps3toolchain/bin/ppu/lib/gcc/powerpc64-ps3-elf/7.2.0/../../../../powerpc64-ps3-elf/lib/libm.a(lib_a-s_ispos.o)
 .data          0x0000000010010ba4        0x0 /home/louis/Documents/ps3/ps3toolchain/bin/ppu/lib/gcc/powerpc64-ps3-elf/7.2.0/../../../../powerpc64-ps3-elf/lib/libm.a(lib_a-s_ldexp.o)
 .data          0x0000000010010ba4        0x0 /home/louis/Documents/ps3/ps3toolchain/bin/ppu/lib/gcc/powerpc64-ps3-elf/7.2.0/../../../../powerpc64-ps3-elf/lib/libm.a(lib_a-s_numtest.o)
 .data          0x0000000010010ba4        0x0 /home/louis/Documents/ps3/ps3toolchain/bin/ppu/lib/gcc/powerpc64-ps3-elf/7.2.0/../../../../powerpc64-ps3-elf/lib/libsysbase.a(syscalls.o)
 .data          0x0000000010010ba4        0x0 /home/louis/Documents/ps3/ps3toolchain/bin/ppu/lib/gcc/powerpc64-ps3-elf/7.2.0/../../../../powerpc64-ps3-elf/lib/libsysbase.a(sleep.o)
 .data          0x0000000010010ba4        0x0 /home/louis/Documents/ps3/ps3toolchain/bin/ppu/lib/gcc/powerpc64-ps3-elf/7.2.0/../../../../powerpc64-ps3-elf/lib/libc.a(lib_a-atexit.o)
 .data          0x0000000010010ba4        0x0 /home/louis/Documents/ps3/ps3toolchain/bin/ppu/lib/gcc/powerpc64-ps3-elf/7.2.0/../../../../powerpc64-ps3-elf/lib/libc.a(lib_a-calloc.o)
 .data          0x0000000010010ba4        0x0 /home/louis/Documents/ps3/ps3toolchain/bin/ppu/lib/gcc/powerpc64-ps3-elf/7.2.0/../../../../powerpc64-ps3-elf/lib/libc.a(lib_a-callocr.o)
 .data          0x0000000010010ba4        0x0 /home/louis/Documents/ps3/ps3toolchain/bin/ppu/lib/gcc/powerpc64-ps3-elf/7.2.0/../../../../powerpc64-ps3-elf/lib/libc.a(lib_a-errno.o)
 .data          0x0000000010010ba4        0x0 /home/louis/Documents/ps3/ps3toolchain/bin/ppu/lib/gcc/powerpc64-ps3-elf/7.2.0/../../../../powerpc64-ps3-elf/lib/libc.a(lib_a-exit.o)
 .data          0x0000000010010ba4        0x0 /home/louis/Documents/ps3/ps3toolchain/bin/ppu/lib/gcc/powerpc64-ps3-elf/7.2.0/../../../../powerpc64-ps3-elf/lib/libc.a(lib_a-fprintf.o)
 .data          0x0000000010010ba4        0x0 /home/louis/Documents/ps3/ps3toolchain/bin/ppu/lib/gcc/powerpc64-ps3-elf/7.2.0/../../../../powerpc64-ps3-elf/lib/libc.a(lib_a-getreent.o)
 .data          0x0000000010010ba4        0x0 /home/louis/Documents/ps3/ps3toolchain/bin/ppu/lib/gcc/powerpc64-ps3-elf/7.2.0/../../../../powerpc64-ps3-elf/lib/libc.a(lib_a-impure.o)
 *fill*         0x0000000010010ba4        0x4 00
 .data._impure_ptr
                0x0000000010010ba8        0x8 /home/louis/Documents/ps3/ps3toolchain/bin/ppu/lib/gcc/powerpc64-ps3-elf/7.2.0/../../../../powerpc64-ps3-elf/lib/libc.a(lib_a-impure.o)
                0x0000000010010ba8                _impure_ptr
 .data.impure_data
                0x0000000010010bb0      0x778 /home/louis/Documents/ps3/ps3toolchain/bin/ppu/lib/gcc/powerpc64-ps3-elf/7.2.0/../../../../powerpc64-ps3-elf/lib/libc.a(lib_a-impure.o)
 .data          0x0000000010011328        0x0 /home/louis/Documents/ps3/ps3toolchain/bin/ppu/lib/gcc/powerpc64-ps3-elf/7.2.0/../../../../powerpc64-ps3-elf/lib/libc.a(lib_a-malign.o)
 .data          0x0000000010011328        0x0 /home/louis/Documents/ps3/ps3toolchain/bin/ppu/lib/gcc/powerpc64-ps3-elf/7.2.0/../../../../powerpc64-ps3-elf/lib/libc.a(lib_a-malignr.o)
 .data          0x0000000010011328        0x0 /home/louis/Documents/ps3/ps3toolchain/bin/ppu/lib/gcc/powerpc64-ps3-elf/7.2.0/../../../../powerpc64-ps3-elf/lib/libc.a(lib_a-malloc.o)
 .data          0x0000000010011328        0x0 /home/louis/Documents/ps3/ps3toolchain/bin/ppu/lib/gcc/powerpc64-ps3-elf/7.2.0/../../../../powerpc64-ps3-elf/lib/libc.a(lib_a-mallocr.o)
 .data.__malloc_av_
                0x0000000010011328      0x810 /home/louis/Documents/ps3/ps3toolchain/bin/ppu/lib/gcc/powerpc64-ps3-elf/7.2.0/../../../../powerpc64-ps3-elf/lib/libc.a(lib_a-mallocr.o)
                0x0000000010011328                __malloc_av_
 .data.__malloc_sbrk_base
                0x0000000010011b38        0x8 /home/louis/Documents/ps3/ps3toolchain/bin/ppu/lib/gcc/powerpc64-ps3-elf/7.2.0/../../../../powerpc64-ps3-elf/lib/libc.a(lib_a-mallocr.o)
                0x0000000010011b38                __malloc_sbrk_base
 .data.__malloc_trim_threshold
                0x0000000010011b40        0x8 /home/louis/Documents/ps3/ps3toolchain/bin/ppu/lib/gcc/powerpc64-ps3-elf/7.2.0/../../../../powerpc64-ps3-elf/lib/libc.a(lib_a-mallocr.o)
                0x0000000010011b40                __malloc_trim_threshold
 .data          0x0000000010011b48        0x0 /home/louis/Documents/ps3/ps3toolchain/bin/ppu/lib/gcc/powerpc64-ps3-elf/7.2.0/../../../../powerpc64-ps3-elf/lib/libc.a(lib_a-memcpy.o)
 .data          0x0000000010011b48        0x0 /home/louis/Documents/ps3/ps3toolchain/bin/ppu/lib/gcc/powerpc64-ps3-elf/7.2.0/../../../../powerpc64-ps3-elf/lib/libc.a(lib_a-memset.o)
 .data          0x0000000010011b48        0x0 /home/louis/Documents/ps3/ps3toolchain/bin/ppu/lib/gcc/powerpc64-ps3-elf/7.2.0/../../../../powerpc64-ps3-elf/lib/libc.a(lib_a-mlock.o)
 .data          0x0000000010011b48        0x0 /home/louis/Documents/ps3/ps3toolchain/bin/ppu/lib/gcc/powerpc64-ps3-elf/7.2.0/../../../../powerpc64-ps3-elf/lib/libc.a(lib_a-perror.o)
 .data          0x0000000010011b48        0x0 /home/louis/Documents/ps3/ps3toolchain/bin/ppu/lib/gcc/powerpc64-ps3-elf/7.2.0/../../../../powerpc64-ps3-elf/lib/libc.a(lib_a-realloc.o)
 .data          0x0000000010011b48        0x0 /home/louis/Documents/ps3/ps3toolchain/bin/ppu/lib/gcc/powerpc64-ps3-elf/7.2.0/../../../../powerpc64-ps3-elf/lib/libc.a(lib_a-reallocr.o)
 .data          0x0000000010011b48        0x0 /home/louis/Documents/ps3/ps3toolchain/bin/ppu/lib/gcc/powerpc64-ps3-elf/7.2.0/../../../../powerpc64-ps3-elf/lib/libc.a(lib_a-sscanf.o)
 .data          0x0000000010011b48        0x0 /home/louis/Documents/ps3/ps3toolchain/bin/ppu/lib/gcc/powerpc64-ps3-elf/7.2.0/../../../../powerpc64-ps3-elf/lib/libc.a(lib_a-stdio.o)
 .data          0x0000000010011b48        0x0 /home/louis/Documents/ps3/ps3toolchain/bin/ppu/lib/gcc/powerpc64-ps3-elf/7.2.0/../../../../powerpc64-ps3-elf/lib/libc.a(lib_a-strcasecmp.o)
 .data          0x0000000010011b48        0x0 /home/louis/Documents/ps3/ps3toolchain/bin/ppu/lib/gcc/powerpc64-ps3-elf/7.2.0/../../../../powerpc64-ps3-elf/lib/libc.a(lib_a-strchr.o)
 .data          0x0000000010011b48        0x0 /home/louis/Documents/ps3/ps3toolchain/bin/ppu/lib/gcc/powerpc64-ps3-elf/7.2.0/../../../../powerpc64-ps3-elf/lib/libc.a(lib_a-strcpy.o)
 .data          0x0000000010011b48        0x0 /home/louis/Documents/ps3/ps3toolchain/bin/ppu/lib/gcc/powerpc64-ps3-elf/7.2.0/../../../../powerpc64-ps3-elf/lib/libc.a(lib_a-strdup.o)
 .data          0x0000000010011b48        0x0 /home/louis/Documents/ps3/ps3toolchain/bin/ppu/lib/gcc/powerpc64-ps3-elf/7.2.0/../../../../powerpc64-ps3-elf/lib/libc.a(lib_a-strdup_r.o)
 .data          0x0000000010011b48        0x0 /home/louis/Documents/ps3/ps3toolchain/bin/ppu/lib/gcc/powerpc64-ps3-elf/7.2.0/../../../../powerpc64-ps3-elf/lib/libc.a(lib_a-strerror.o)
 .data          0x0000000010011b48        0x0 /home/louis/Documents/ps3/ps3toolchain/bin/ppu/lib/gcc/powerpc64-ps3-elf/7.2.0/../../../../powerpc64-ps3-elf/lib/libc.a(lib_a-strlen.o)
 .data          0x0000000010011b48        0x0 /home/louis/Documents/ps3/ps3toolchain/bin/ppu/lib/gcc/powerpc64-ps3-elf/7.2.0/../../../../powerpc64-ps3-elf/lib/libc.a(lib_a-strncat.o)
 .data          0x0000000010011b48        0x0 /home/louis/Documents/ps3/ps3toolchain/bin/ppu/lib/gcc/powerpc64-ps3-elf/7.2.0/../../../../powerpc64-ps3-elf/lib/libc.a(lib_a-strncpy.o)
 .data          0x0000000010011b48        0x0 /home/louis/Documents/ps3/ps3toolchain/bin/ppu/lib/gcc/powerpc64-ps3-elf/7.2.0/../../../../powerpc64-ps3-elf/lib/libc.a(lib_a-svfscanf.o)
 .data          0x0000000010011b48        0x0 /home/louis/Documents/ps3/ps3toolchain/bin/ppu/lib/gcc/powerpc64-ps3-elf/7.2.0/../../../../powerpc64-ps3-elf/lib/libc.a(lib_a-time.o)
 .data          0x0000000010011b48        0x0 /home/louis/Documents/ps3/ps3toolchain/bin/ppu/lib/gcc/powerpc64-ps3-elf/7.2.0/../../../../powerpc64-ps3-elf/lib/libc.a(lib_a-u_strerr.o)
 .data          0x0000000010011b48        0x0 /home/louis/Documents/ps3/ps3toolchain/bin/ppu/lib/gcc/powerpc64-ps3-elf/7.2.0/../../../../powerpc64-ps3-elf/lib/libc.a(lib_a-vfprintf.o)
 .data          0x0000000010011b48        0x0 /home/louis/Documents/ps3/ps3toolchain/bin/ppu/lib/gcc/powerpc64-ps3-elf/7.2.0/../../../../powerpc64-ps3-elf/lib/libc.a(lib_a-wsetup.o)
 .data          0x0000000010011b48        0x0 /home/louis/Documents/ps3/ps3toolchain/bin/ppu/lib/gcc/powerpc64-ps3-elf/7.2.0/../../../../powerpc64-ps3-elf/lib/libc.a(lib_a-__atexit.o)
 .data          0x0000000010011b48        0x0 /home/louis/Documents/ps3/ps3toolchain/bin/ppu/lib/gcc/powerpc64-ps3-elf/7.2.0/../../../../powerpc64-ps3-elf/lib/libc.a(lib_a-__call_atexit.o)
 .data          0x0000000010011b48        0x0 /home/louis/Documents/ps3/ps3toolchain/bin/ppu/lib/gcc/powerpc64-ps3-elf/7.2.0/../../../../powerpc64-ps3-elf/lib/libc.a(lib_a-ctype_.o)
 .data.__ctype_ptr__
                0x0000000010011b48        0x8 /home/louis/Documents/ps3/ps3toolchain/bin/ppu/lib/gcc/powerpc64-ps3-elf/7.2.0/../../../../powerpc64-ps3-elf/lib/libc.a(lib_a-ctype_.o)
                0x0000000010011b48                __ctype_ptr__
 .data          0x0000000010011b50        0x0 /home/louis/Documents/ps3/ps3toolchain/bin/ppu/lib/gcc/powerpc64-ps3-elf/7.2.0/../../../../powerpc64-ps3-elf/lib/libc.a(lib_a-dtoa.o)
 .data          0x0000000010011b50        0x0 /home/louis/Documents/ps3/ps3toolchain/bin/ppu/lib/gcc/powerpc64-ps3-elf/7.2.0/../../../../powerpc64-ps3-elf/lib/libc.a(lib_a-fflush.o)
 .data          0x0000000010011b50        0x0 /home/louis/Documents/ps3/ps3toolchain/bin/ppu/lib/gcc/powerpc64-ps3-elf/7.2.0/../../../../powerpc64-ps3-elf/lib/libc.a(lib_a-findfp.o)
 .data          0x0000000010011b50        0x0 /home/louis/Documents/ps3/ps3toolchain/bin/ppu/lib/gcc/powerpc64-ps3-elf/7.2.0/../../../../powerpc64-ps3-elf/lib/libc.a(lib_a-fputc.o)
 .data          0x0000000010011b50        0x0 /home/louis/Documents/ps3/ps3toolchain/bin/ppu/lib/gcc/powerpc64-ps3-elf/7.2.0/../../../../powerpc64-ps3-elf/lib/libc.a(lib_a-fputs.o)
 .data          0x0000000010011b50        0x0 /home/louis/Documents/ps3/ps3toolchain/bin/ppu/lib/gcc/powerpc64-ps3-elf/7.2.0/../../../../powerpc64-ps3-elf/lib/libc.a(lib_a-freer.o)
 .data          0x0000000010011b50        0x0 /home/louis/Documents/ps3/ps3toolchain/bin/ppu/lib/gcc/powerpc64-ps3-elf/7.2.0/../../../../powerpc64-ps3-elf/lib/libc.a(lib_a-fvwrite.o)
 .data          0x0000000010011b50        0x0 /home/louis/Documents/ps3/ps3toolchain/bin/ppu/lib/gcc/powerpc64-ps3-elf/7.2.0/../../../../powerpc64-ps3-elf/lib/libc.a(lib_a-fwalk.o)
 .data          0x0000000010011b50        0x0 /home/louis/Documents/ps3/ps3toolchain/bin/ppu/lib/gcc/powerpc64-ps3-elf/7.2.0/../../../../powerpc64-ps3-elf/lib/libc.a(lib_a-iswspace.o)
 .data          0x0000000010011b50        0x0 /home/louis/Documents/ps3/ps3toolchain/bin/ppu/lib/gcc/powerpc64-ps3-elf/7.2.0/../../../../powerpc64-ps3-elf/lib/libc.a(lib_a-locale.o)
 .data.__mb_cur_max
                0x0000000010011b50        0x4 /home/louis/Documents/ps3/ps3toolchain/bin/ppu/lib/gcc/powerpc64-ps3-elf/7.2.0/../../../../powerpc64-ps3-elf/lib/libc.a(lib_a-locale.o)
                0x0000000010011b50                __mb_cur_max
 *fill*         0x0000000010011b54        0x4 00
 .data.lc_ctype_charset
                0x0000000010011b58       0x20 /home/louis/Documents/ps3/ps3toolchain/bin/ppu/lib/gcc/powerpc64-ps3-elf/7.2.0/../../../../powerpc64-ps3-elf/lib/libc.a(lib_a-locale.o)
 .data.lc_message_charset
                0x0000000010011b78       0x20 /home/louis/Documents/ps3/ps3toolchain/bin/ppu/lib/gcc/powerpc64-ps3-elf/7.2.0/../../../../powerpc64-ps3-elf/lib/libc.a(lib_a-locale.o)
 .data.lconv    0x0000000010011b98       0x60 /home/louis/Documents/ps3/ps3toolchain/bin/ppu/lib/gcc/powerpc64-ps3-elf/7.2.0/../../../../powerpc64-ps3-elf/lib/libc.a(lib_a-locale.o)
 .data          0x0000000010011bf8        0x0 /home/louis/Documents/ps3/ps3toolchain/bin/ppu/lib/gcc/powerpc64-ps3-elf/7.2.0/../../../../powerpc64-ps3-elf/lib/libc.a(lib_a-lock_recursive.o)
 .data          0x0000000010011bf8        0x0 /home/louis/Documents/ps3/ps3toolchain/bin/ppu/lib/gcc/powerpc64-ps3-elf/7.2.0/../../../../powerpc64-ps3-elf/lib/libc.a(lib_a-makebuf.o)
 .data          0x0000000010011bf8        0x0 /home/louis/Documents/ps3/ps3toolchain/bin/ppu/lib/gcc/powerpc64-ps3-elf/7.2.0/../../../../powerpc64-ps3-elf/lib/libc.a(lib_a-mbrtowc.o)
 .data          0x0000000010011bf8        0x0 /home/louis/Documents/ps3/ps3toolchain/bin/ppu/lib/gcc/powerpc64-ps3-elf/7.2.0/../../../../powerpc64-ps3-elf/lib/libc.a(lib_a-mbtowc_r.o)
 .data.__mbtowc
                0x0000000010011bf8        0x8 /home/louis/Documents/ps3/ps3toolchain/bin/ppu/lib/gcc/powerpc64-ps3-elf/7.2.0/../../../../powerpc64-ps3-elf/lib/libc.a(lib_a-mbtowc_r.o)
                0x0000000010011bf8                __mbtowc
 .data          0x0000000010011c00        0x0 /home/louis/Documents/ps3/ps3toolchain/bin/ppu/lib/gcc/powerpc64-ps3-elf/7.2.0/../../../../powerpc64-ps3-elf/lib/libc.a(lib_a-memchr.o)
 .data          0x0000000010011c00        0x0 /home/louis/Documents/ps3/ps3toolchain/bin/ppu/lib/gcc/powerpc64-ps3-elf/7.2.0/../../../../powerpc64-ps3-elf/lib/libc.a(lib_a-memmove.o)
 .data          0x0000000010011c00        0x0 /home/louis/Documents/ps3/ps3toolchain/bin/ppu/lib/gcc/powerpc64-ps3-elf/7.2.0/../../../../powerpc64-ps3-elf/lib/libc.a(lib_a-mprec.o)
 .data          0x0000000010011c00        0x0 /home/louis/Documents/ps3/ps3toolchain/bin/ppu/lib/gcc/powerpc64-ps3-elf/7.2.0/../../../../powerpc64-ps3-elf/lib/libc.a(lib_a-putc.o)
 .data          0x0000000010011c00        0x0 /home/louis/Documents/ps3/ps3toolchain/bin/ppu/lib/gcc/powerpc64-ps3-elf/7.2.0/../../../../powerpc64-ps3-elf/lib/libc.a(lib_a-sccl.o)
 .data          0x0000000010011c00        0x0 /home/louis/Documents/ps3/ps3toolchain/bin/ppu/lib/gcc/powerpc64-ps3-elf/7.2.0/../../../../powerpc64-ps3-elf/lib/libc.a(lib_a-sf_nan.o)
 .data          0x0000000010011c00        0x0 /home/louis/Documents/ps3/ps3toolchain/bin/ppu/lib/gcc/powerpc64-ps3-elf/7.2.0/../../../../powerpc64-ps3-elf/lib/libc.a(lib_a-s_fpclassify.o)
 .data          0x0000000010011c00        0x0 /home/louis/Documents/ps3/ps3toolchain/bin/ppu/lib/gcc/powerpc64-ps3-elf/7.2.0/../../../../powerpc64-ps3-elf/lib/libc.a(lib_a-sprintf.o)
 .data          0x0000000010011c00        0x0 /home/louis/Documents/ps3/ps3toolchain/bin/ppu/lib/gcc/powerpc64-ps3-elf/7.2.0/../../../../powerpc64-ps3-elf/lib/libc.a(lib_a-strcmp.o)
 .data          0x0000000010011c00        0x0 /home/louis/Documents/ps3/ps3toolchain/bin/ppu/lib/gcc/powerpc64-ps3-elf/7.2.0/../../../../powerpc64-ps3-elf/lib/libc.a(lib_a-strtod.o)
 .data.fpi.3504
                0x0000000010011c00       0x14 /home/louis/Documents/ps3/ps3toolchain/bin/ppu/lib/gcc/powerpc64-ps3-elf/7.2.0/../../../../powerpc64-ps3-elf/lib/libc.a(lib_a-strtod.o)
 .data.fpinan.3540
                0x0000000010011c14       0x14 /home/louis/Documents/ps3/ps3toolchain/bin/ppu/lib/gcc/powerpc64-ps3-elf/7.2.0/../../../../powerpc64-ps3-elf/lib/libc.a(lib_a-strtod.o)
 .data          0x0000000010011c28        0x0 /home/louis/Documents/ps3/ps3toolchain/bin/ppu/lib/gcc/powerpc64-ps3-elf/7.2.0/../../../../powerpc64-ps3-elf/lib/libc.a(lib_a-strtoll_r.o)
 .data          0x0000000010011c28        0x0 /home/louis/Documents/ps3/ps3toolchain/bin/ppu/lib/gcc/powerpc64-ps3-elf/7.2.0/../../../../powerpc64-ps3-elf/lib/libc.a(lib_a-strtol.o)
 .data          0x0000000010011c28        0x0 /home/louis/Documents/ps3/ps3toolchain/bin/ppu/lib/gcc/powerpc64-ps3-elf/7.2.0/../../../../powerpc64-ps3-elf/lib/libc.a(lib_a-strtoull_r.o)
 .data          0x0000000010011c28        0x0 /home/louis/Documents/ps3/ps3toolchain/bin/ppu/lib/gcc/powerpc64-ps3-elf/7.2.0/../../../../powerpc64-ps3-elf/lib/libc.a(lib_a-strtoul.o)
 .data          0x0000000010011c28        0x0 /home/louis/Documents/ps3/ps3toolchain/bin/ppu/lib/gcc/powerpc64-ps3-elf/7.2.0/../../../../powerpc64-ps3-elf/lib/libc.a(lib_a-svfiscanf.o)
 .data          0x0000000010011c28        0x0 /home/louis/Documents/ps3/ps3toolchain/bin/ppu/lib/gcc/powerpc64-ps3-elf/7.2.0/../../../../powerpc64-ps3-elf/lib/libc.a(lib_a-svfprintf.o)
 .data          0x0000000010011c28        0x0 /home/louis/Documents/ps3/ps3toolchain/bin/ppu/lib/gcc/powerpc64-ps3-elf/7.2.0/../../../../powerpc64-ps3-elf/lib/libc.a(lib_a-ungetc.o)
 .data          0x0000000010011c28        0x0 /home/louis/Documents/ps3/ps3toolchain/bin/ppu/lib/gcc/powerpc64-ps3-elf/7.2.0/../../../../powerpc64-ps3-elf/lib/libc.a(lib_a-vfiprintf.o)
 .data          0x0000000010011c28        0x0 /home/louis/Documents/ps3/ps3toolchain/bin/ppu/lib/gcc/powerpc64-ps3-elf/7.2.0/../../../../powerpc64-ps3-elf/lib/libc.a(lib_a-wbuf.o)
 .data          0x0000000010011c28        0x0 /home/louis/Documents/ps3/ps3toolchain/bin/ppu/lib/gcc/powerpc64-ps3-elf/7.2.0/../../../../powerpc64-ps3-elf/lib/libc.a(lib_a-fclose.o)
 .data          0x0000000010011c28        0x0 /home/louis/Documents/ps3/ps3toolchain/bin/ppu/lib/gcc/powerpc64-ps3-elf/7.2.0/../../../../powerpc64-ps3-elf/lib/libc.a(lib_a-fputwc.o)
 .data          0x0000000010011c28        0x0 /home/louis/Documents/ps3/ps3toolchain/bin/ppu/lib/gcc/powerpc64-ps3-elf/7.2.0/../../../../powerpc64-ps3-elf/lib/libc.a(lib_a-gdtoa-gethex.o)
 .data          0x0000000010011c28        0x0 /home/louis/Documents/ps3/ps3toolchain/bin/ppu/lib/gcc/powerpc64-ps3-elf/7.2.0/../../../../powerpc64-ps3-elf/lib/libc.a(lib_a-gdtoa-hexnan.o)
 .data          0x0000000010011c28        0x0 /home/louis/Documents/ps3/ps3toolchain/bin/ppu/lib/gcc/powerpc64-ps3-elf/7.2.0/../../../../powerpc64-ps3-elf/lib/libc.a(lib_a-lock_internal.o)
 .data          0x0000000010011c28        0x0 /home/louis/Documents/ps3/ps3toolchain/bin/ppu/lib/gcc/powerpc64-ps3-elf/7.2.0/../../../../powerpc64-ps3-elf/lib/libc.a(lib_a-strncmp.o)
 .data          0x0000000010011c28        0x0 /home/louis/Documents/ps3/ps3toolchain/bin/ppu/lib/gcc/powerpc64-ps3-elf/7.2.0/../../../../powerpc64-ps3-elf/lib/libc.a(lib_a-svfiprintf.o)
 .data          0x0000000010011c28        0x0 /home/louis/Documents/ps3/ps3toolchain/bin/ppu/lib/gcc/powerpc64-ps3-elf/7.2.0/../../../../powerpc64-ps3-elf/lib/libc.a(lib_a-wcrtomb.o)
 .data          0x0000000010011c28        0x0 /home/louis/Documents/ps3/ps3toolchain/bin/ppu/lib/gcc/powerpc64-ps3-elf/7.2.0/../../../../powerpc64-ps3-elf/lib/libc.a(lib_a-wctomb_r.o)
 .data.__wctomb
                0x0000000010011c28        0x8 /home/louis/Documents/ps3/ps3toolchain/bin/ppu/lib/gcc/powerpc64-ps3-elf/7.2.0/../../../../powerpc64-ps3-elf/lib/libc.a(lib_a-wctomb_r.o)
                0x0000000010011c28                __wctomb
 .data          0x0000000010011c30        0x0 /home/louis/Documents/ps3/ps3toolchain/bin/ppu/lib/gcc/powerpc64-ps3-elf/7.2.0/../../../../powerpc64-ps3-elf/lib/libc.a(lib_a-abort.o)
 .data          0x0000000010011c30        0x0 /home/louis/Documents/ps3/ps3toolchain/bin/ppu/lib/gcc/powerpc64-ps3-elf/7.2.0/../../../../powerpc64-ps3-elf/lib/libc.a(lib_a-signal.o)
 .data          0x0000000010011c30        0x0 /home/louis/Documents/ps3/ps3toolchain/bin/ppu/lib/gcc/powerpc64-ps3-elf/7.2.0/../../../../powerpc64-ps3-elf/lib/libsysbase.a(close.o)
 .data          0x0000000010011c30        0x0 /home/louis/Documents/ps3/ps3toolchain/bin/ppu/lib/gcc/powerpc64-ps3-elf/7.2.0/../../../../powerpc64-ps3-elf/lib/libsysbase.a(sbrk.o)
 .data          0x0000000010011c30        0x0 /home/louis/Documents/ps3/ps3toolchain/bin/ppu/lib/gcc/powerpc64-ps3-elf/7.2.0/../../../../powerpc64-ps3-elf/lib/libsysbase.a(_exit.o)
 .data          0x0000000010011c30        0x0 /home/louis/Documents/ps3/ps3toolchain/bin/ppu/lib/gcc/powerpc64-ps3-elf/7.2.0/../../../../powerpc64-ps3-elf/lib/libsysbase.a(fstat.o)
 .data          0x0000000010011c30        0x0 /home/louis/Documents/ps3/ps3toolchain/bin/ppu/lib/gcc/powerpc64-ps3-elf/7.2.0/../../../../powerpc64-ps3-elf/lib/libsysbase.a(isatty.o)
 .data          0x0000000010011c30        0x0 /home/louis/Documents/ps3/ps3toolchain/bin/ppu/lib/gcc/powerpc64-ps3-elf/7.2.0/../../../../powerpc64-ps3-elf/lib/libsysbase.a(lseek.o)
 .data          0x0000000010011c30        0x0 /home/louis/Documents/ps3/ps3toolchain/bin/ppu/lib/gcc/powerpc64-ps3-elf/7.2.0/../../../../powerpc64-ps3-elf/lib/libsysbase.a(read.o)
 .data          0x0000000010011c30        0x0 /home/louis/Documents/ps3/ps3toolchain/bin/ppu/lib/gcc/powerpc64-ps3-elf/7.2.0/../../../../powerpc64-ps3-elf/lib/libsysbase.a(write.o)
 .data          0x0000000010011c30        0x0 /home/louis/Documents/ps3/ps3toolchain/bin/ppu/lib/gcc/powerpc64-ps3-elf/7.2.0/../../../../powerpc64-ps3-elf/lib/libsysbase.a(lock.o)
 .data          0x0000000010011c30        0x0 /home/louis/Documents/ps3/ps3toolchain/bin/ppu/lib/gcc/powerpc64-ps3-elf/7.2.0/../../../../powerpc64-ps3-elf/lib/libsysbase.a(getpid.o)
 .data          0x0000000010011c30        0x0 /home/louis/Documents/ps3/ps3toolchain/bin/ppu/lib/gcc/powerpc64-ps3-elf/7.2.0/../../../../powerpc64-ps3-elf/lib/libsysbase.a(kill.o)
 .data          0x0000000010011c30        0x0 /home/louis/Documents/ps3/ps3toolchain/bin/ppu/lib/gcc/powerpc64-ps3-elf/7.2.0/../../../../powerpc64-ps3-elf/lib/libsysbase.a(gettod.o)
 .data          0x0000000010011c30        0x0 /home/louis/Documents/ps3/ps3toolchain/bin/ppu/lib/gcc/powerpc64-ps3-elf/7.2.0/crtend.o
 .data          0x0000000010011c30        0x0 /home/louis/Documents/ps3/ps3toolchain/bin/ppu/lib/gcc/powerpc64-ps3-elf/7.2.0/../../../../powerpc64-ps3-elf/lib/lv2-crtn.o
 *(.gnu.linkonce.d.*personality*)

.tm_clone_table
                0x0000000010011c30        0x0
 .tm_clone_table
                0x0000000010011c30        0x0 /home/louis/Documents/ps3/ps3toolchain/bin/ppu/lib/gcc/powerpc64-ps3-elf/7.2.0/crtbegin.o
 .tm_clone_table
                0x0000000010011c30        0x0 /home/louis/Documents/ps3/ps3toolchain/bin/ppu/lib/gcc/powerpc64-ps3-elf/7.2.0/crtend.o

.data1
 *(.data1)

.sdata
 *(.sdata .sdata.* .gnu.linkonce.s.*)
                0x0000000010011c30                _edata = .
                0x0000000010011c30                PROVIDE (edata, .)
                0x0000000010011c30                __bss_start = .

.tocbss
 *(.tocbss)

.sbss           0x0000000010011c30        0x0
                0x0000000010011c30                PROVIDE (__sbss_start, .)
                0x0000000010011c30                PROVIDE (___sbss_start, .)
 *(.dynsbss)
 *(.sbss .sbss.* .gnu.linkonce.sb.*)
 *(.scommon)
                0x0000000010011c30                PROVIDE (__sbss_end, .)
                0x0000000010011c30                PROVIDE (___sbss_end, .)

.plt
 *(.plt)

.bss            0x0000000010011c40    0x40e20
 *(.dynbss)
 *(.bss .bss.* .gnu.linkonce.b.*)
 .bss           0x0000000010011c40        0x0 /home/louis/Documents/ps3/ps3toolchain/bin/ppu/lib/gcc/powerpc64-ps3-elf/7.2.0/../../../../powerpc64-ps3-elf/lib/lv2-crti.o
 .bss           0x0000000010011c40        0x0 /home/louis/Documents/ps3/ps3toolchain/bin/ppu/lib/gcc/powerpc64-ps3-elf/7.2.0/crtbegin.o
 .bss.completed.6041
                0x0000000010011c40        0x1 /home/louis/Documents/ps3/ps3toolchain/bin/ppu/lib/gcc/powerpc64-ps3-elf/7.2.0/crtbegin.o
 *fill*         0x0000000010011c41        0x7 00
 .bss.dtor_idx.6043
                0x0000000010011c48        0x8 /home/louis/Documents/ps3/ps3toolchain/bin/ppu/lib/gcc/powerpc64-ps3-elf/7.2.0/crtbegin.o
 .bss.object.6053
                0x0000000010011c50       0x30 /home/louis/Documents/ps3/ps3toolchain/bin/ppu/lib/gcc/powerpc64-ps3-elf/7.2.0/crtbegin.o
 .bss           0x0000000010011c80        0x8 /home/louis/Documents/ps3/ps3toolchain/bin/ppu/lib/gcc/powerpc64-ps3-elf/7.2.0/../../../../powerpc64-ps3-elf/lib/lv2-crt0.o
                0x0000000010011c80                __libc_stack_end
 .bss           0x0000000010011c88        0x0 /home/louis/Documents/ps3/ps3toolchain/bin/ppu/lib/gcc/powerpc64-ps3-elf/7.2.0/../../../../powerpc64-ps3-elf/lib/lv2-sprx.o
 .bss           0x0000000010011c88        0x0 main.o
 .bss.center    0x0000000010011c88        0xc main.o
                0x0000000010011c88                center
 .bss           0x0000000010011c94        0x0 pad.o
 .bss           0x0000000010011c94        0x0 rendering.o
 .bss.center    0x0000000010011c94        0xc rendering.o
 .bss           0x0000000010011ca0        0x0 /home/louis/Documents/ps3/ps3toolchain/bin/portlibs/ppu/lib/libtiny3d.a(matrix.o)
 .bss           0x0000000010011ca0        0x0 /home/louis/Documents/ps3/ps3toolchain/bin/portlibs/ppu/lib/libtiny3d.a(tiny3d.o)
 .bss.Video_currentBuffer
                0x0000000010011ca0        0x4 /home/louis/Documents/ps3/ps3toolchain/bin/portlibs/ppu/lib/libtiny3d.a(tiny3d.o)
                0x0000000010011ca0                Video_currentBuffer
 .bss.apply_matrix
                0x0000000010011ca4       0x40 /home/louis/Documents/ps3/ps3toolchain/bin/portlibs/ppu/lib/libtiny3d.a(tiny3d.o)
 *fill*         0x0000000010011ce4        0x4 00
 .bss.curr_list
                0x0000000010011ce8        0x8 /home/louis/Documents/ps3/ps3toolchain/bin/portlibs/ppu/lib/libtiny3d.a(tiny3d.o)
 .bss.curr_list_index
                0x0000000010011cf0        0x4 /home/louis/Documents/ps3/ps3toolchain/bin/portlibs/ppu/lib/libtiny3d.a(tiny3d.o)
 *fill*         0x0000000010011cf4        0x4 00
 .bss.data_shader
                0x0000000010011cf8      0x708 /home/louis/Documents/ps3/ps3toolchain/bin/portlibs/ppu/lib/libtiny3d.a(tiny3d.o)
 .bss.enable_yuv
                0x0000000010012400        0x4 /home/louis/Documents/ps3/ps3toolchain/bin/portlibs/ppu/lib/libtiny3d.a(tiny3d.o)
 .bss.flag_vertex
                0x0000000010012404        0x4 /home/louis/Documents/ps3/ps3toolchain/bin/portlibs/ppu/lib/libtiny3d.a(tiny3d.o)
 .bss.grab_list
                0x0000000010012408        0x4 /home/louis/Documents/ps3/ps3toolchain/bin/portlibs/ppu/lib/libtiny3d.a(tiny3d.o)
 .bss.inited    0x000000001001240c        0x4 /home/louis/Documents/ps3/ps3toolchain/bin/portlibs/ppu/lib/libtiny3d.a(tiny3d.o)
 .bss.last_list
                0x0000000010012410        0x8 /home/louis/Documents/ps3/ps3toolchain/bin/portlibs/ppu/lib/libtiny3d.a(tiny3d.o)
 .bss.light     0x0000000010012418       0xa0 /home/louis/Documents/ps3/ps3toolchain/bin/portlibs/ppu/lib/libtiny3d.a(tiny3d.o)
 .bss.list_base
                0x00000000100124b8        0x8 /home/louis/Documents/ps3/ps3toolchain/bin/portlibs/ppu/lib/libtiny3d.a(tiny3d.o)
 .bss.material  0x00000000100124c0       0x40 /home/louis/Documents/ps3/ps3toolchain/bin/portlibs/ppu/lib/libtiny3d.a(tiny3d.o)
 .bss.model_view
                0x0000000010012500       0x40 /home/louis/Documents/ps3/ps3toolchain/bin/portlibs/ppu/lib/libtiny3d.a(tiny3d.o)
 .bss.n_vertex  0x0000000010012540        0x4 /home/louis/Documents/ps3/ps3toolchain/bin/portlibs/ppu/lib/libtiny3d.a(tiny3d.o)
 .bss.off_head_vertex
                0x0000000010012544        0x4 /home/louis/Documents/ps3/ps3toolchain/bin/portlibs/ppu/lib/libtiny3d.a(tiny3d.o)
 .bss.off_start_vertex
                0x0000000010012548        0x4 /home/louis/Documents/ps3/ps3toolchain/bin/portlibs/ppu/lib/libtiny3d.a(tiny3d.o)
 .bss.off_vtx.5305
                0x000000001001254c        0x4 /home/louis/Documents/ps3/ps3toolchain/bin/portlibs/ppu/lib/libtiny3d.a(tiny3d.o)
 .bss.pos_rsx_vertex
                0x0000000010012550        0x4 /home/louis/Documents/ps3/ps3toolchain/bin/portlibs/ppu/lib/libtiny3d.a(tiny3d.o)
 .bss.project_mat
                0x0000000010012554       0x40 /home/louis/Documents/ps3/ps3toolchain/bin/portlibs/ppu/lib/libtiny3d.a(tiny3d.o)
 .bss.render_target
                0x0000000010012594       0x10 /home/louis/Documents/ps3/ps3toolchain/bin/portlibs/ppu/lib/libtiny3d.a(tiny3d.o)
 *fill*         0x00000000100125a4        0x4 00
 .bss.rsx_vertex
                0x00000000100125a8        0x8 /home/louis/Documents/ps3/ps3toolchain/bin/portlibs/ppu/lib/libtiny3d.a(tiny3d.o)
 .bss.select_fp
                0x00000000100125b0        0x4 /home/louis/Documents/ps3/ps3toolchain/bin/portlibs/ppu/lib/libtiny3d.a(tiny3d.o)
 .bss.set_apply_matrix
                0x00000000100125b4        0x4 /home/louis/Documents/ps3/ps3toolchain/bin/portlibs/ppu/lib/libtiny3d.a(tiny3d.o)
 .bss.tiny3d_drawing_status
                0x00000000100125b8        0x4 /home/louis/Documents/ps3/ps3toolchain/bin/portlibs/ppu/lib/libtiny3d.a(tiny3d.o)
 .bss.tiny3d_menu_open
                0x00000000100125bc        0x4 /home/louis/Documents/ps3/ps3toolchain/bin/portlibs/ppu/lib/libtiny3d.a(tiny3d.o)
 .bss.tiny_3d_alarm
                0x00000000100125c0        0x4 /home/louis/Documents/ps3/ps3toolchain/bin/portlibs/ppu/lib/libtiny3d.a(tiny3d.o)
 .bss.tinycallback_flag
                0x00000000100125c4        0x4 /home/louis/Documents/ps3/ps3toolchain/bin/portlibs/ppu/lib/libtiny3d.a(tiny3d.o)
                0x00000000100125c4                tinycallback_flag
 .bss.tinyerror_incallback
                0x00000000100125c8        0x4 /home/louis/Documents/ps3/ps3toolchain/bin/portlibs/ppu/lib/libtiny3d.a(tiny3d.o)
                0x00000000100125c8                tinyerror_incallback
 .bss.use_2d    0x00000000100125cc        0x4 /home/louis/Documents/ps3/ps3toolchain/bin/portlibs/ppu/lib/libtiny3d.a(tiny3d.o)
 .bss.user_viewport
                0x00000000100125d0        0x4 /home/louis/Documents/ps3/ps3toolchain/bin/portlibs/ppu/lib/libtiny3d.a(tiny3d.o)
 .bss.vertex_data
                0x00000000100125d4       0x40 /home/louis/Documents/ps3/ps3toolchain/bin/portlibs/ppu/lib/libtiny3d.a(tiny3d.o)
 .bss.x_viewport_2D
                0x0000000010012614        0x4 /home/louis/Documents/ps3/ps3toolchain/bin/portlibs/ppu/lib/libtiny3d.a(tiny3d.o)
 .bss.x_viewport_3D
                0x0000000010012618        0x4 /home/louis/Documents/ps3/ps3toolchain/bin/portlibs/ppu/lib/libtiny3d.a(tiny3d.o)
 .bss.y_viewport_2D
                0x000000001001261c        0x4 /home/louis/Documents/ps3/ps3toolchain/bin/portlibs/ppu/lib/libtiny3d.a(tiny3d.o)
 .bss.y_viewport_3D
                0x0000000010012620        0x4 /home/louis/Documents/ps3/ps3toolchain/bin/portlibs/ppu/lib/libtiny3d.a(tiny3d.o)
 .bss           0x0000000010012624        0x0 /home/louis/Documents/ps3/ps3toolchain/bin/portlibs/ppu/lib/libtiny3d.a(vshader_text_normal.vcg.o)
 .bss           0x0000000010012624        0x0 /home/louis/Documents/ps3/ps3toolchain/bin/portlibs/ppu/lib/libtiny3d.a(commands.o)
 .bss           0x0000000010012624        0x0 /home/louis/Documents/ps3/ps3toolchain/bin/portlibs/ppu/lib/libtiny3d.a(glue.o)
 .bss           0x0000000010012624        0x0 /home/louis/Documents/ps3/ps3toolchain/bin/portlibs/ppu/lib/libtiny3d.a(mm.o)
 .bss.initialized
                0x0000000010012624        0x1 /home/louis/Documents/ps3/ps3toolchain/bin/portlibs/ppu/lib/libtiny3d.a(mm.o)
 .bss           0x0000000010012625        0x0 /home/louis/Documents/ps3/ps3toolchain/bin/portlibs/ppu/lib/libtiny3d.a(realityVP.o)
 .bss           0x0000000010012625        0x0 /home/louis/Documents/ps3/ps3toolchain/bin/portlibs/ppu/lib/libtiny3d.a(rsxutil.o)
 *fill*         0x0000000010012625        0x3 00
 .bss.depth_buffer
                0x0000000010012628        0x8 /home/louis/Documents/ps3/ps3toolchain/bin/portlibs/ppu/lib/libtiny3d.a(rsxutil.o)
 .bss.depth_offset
                0x0000000010012630        0x4 /home/louis/Documents/ps3/ps3toolchain/bin/portlibs/ppu/lib/libtiny3d.a(rsxutil.o)
 .bss.depth_pitch
                0x0000000010012634        0x4 /home/louis/Documents/ps3/ps3toolchain/bin/portlibs/ppu/lib/libtiny3d.a(rsxutil.o)
 .bss.offset    0x0000000010012638        0x8 /home/louis/Documents/ps3/ps3toolchain/bin/portlibs/ppu/lib/libtiny3d.a(rsxutil.o)
 .bss.tiny_host_addr
                0x0000000010012640        0x8 /home/louis/Documents/ps3/ps3toolchain/bin/portlibs/ppu/lib/libtiny3d.a(rsxutil.o)
                0x0000000010012640                tiny_host_addr
 .bss.zformat   0x0000000010012648        0x4 /home/louis/Documents/ps3/ps3toolchain/bin/portlibs/ppu/lib/libtiny3d.a(rsxutil.o)
 .bss           0x000000001001264c        0x0 /home/louis/Documents/ps3/ps3toolchain/bin/portlibs/ppu/lib/libtiny3d.a(buffer.o)
 .bss           0x000000001001264c        0x0 /home/louis/Documents/ps3/ps3toolchain/bin/ppu/lib/libgcm_sys.a(sprx.o)
 .bss           0x000000001001264c        0x0 /home/louis/Documents/ps3/ps3toolchain/bin/ppu/lib/libgcm_sys.a(gcm_wrapper.o)
 .bss           0x000000001001264c        0x0 /home/louis/Documents/ps3/ps3toolchain/bin/ppu/lib/libio.a(sprx.o)
 .bss           0x000000001001264c        0x0 /home/louis/Documents/ps3/ps3toolchain/bin/ppu/lib/libsysutil.a(sprx.o)
 .bss           0x000000001001264c        0x0 /home/louis/Documents/ps3/ps3toolchain/bin/ppu/lib/libsysutil.a(sysutil_wrapper.o)
 .bss           0x000000001001264c        0x0 /home/louis/Documents/ps3/ps3toolchain/bin/ppu/lib/librt.a(sbrk.o)
 *fill*         0x000000001001264c        0x4 00
 .bss.__region_heap
                0x0000000010012650       0x58 /home/louis/Documents/ps3/ps3toolchain/bin/ppu/lib/librt.a(sbrk.o)
 *fill*         0x00000000100126a8       0x18 00
 .bss.__region_list_entries
                0x00000000100126c0    0x40000 /home/louis/Documents/ps3/ps3toolchain/bin/ppu/lib/librt.a(sbrk.o)
 .bss.__sbrk_baseaddr
                0x00000000100526c0        0x4 /home/louis/Documents/ps3/ps3toolchain/bin/ppu/lib/librt.a(sbrk.o)
 *fill*         0x00000000100526c4        0x4 00
 .bss.__sbrk_curr_regionentry
                0x00000000100526c8        0x8 /home/louis/Documents/ps3/ps3toolchain/bin/ppu/lib/librt.a(sbrk.o)
 .bss.__sbrk_spinlock
                0x00000000100526d0        0x4 /home/louis/Documents/ps3/ps3toolchain/bin/ppu/lib/librt.a(sbrk.o)
 .bss           0x00000000100526d4        0x0 /home/louis/Documents/ps3/ps3toolchain/bin/ppu/lib/librt.a(exit.o)
 .bss           0x00000000100526d4        0x0 /home/louis/Documents/ps3/ps3toolchain/bin/ppu/lib/librt.a(close.o)
 .bss           0x00000000100526d4        0x0 /home/louis/Documents/ps3/ps3toolchain/bin/ppu/lib/librt.a(lseek.o)
 .bss           0x00000000100526d4        0x0 /home/louis/Documents/ps3/ps3toolchain/bin/ppu/lib/librt.a(read.o)
 .bss           0x00000000100526d4        0x0 /home/louis/Documents/ps3/ps3toolchain/bin/ppu/lib/librt.a(open.o)
 .bss           0x00000000100526d4        0x0 /home/louis/Documents/ps3/ps3toolchain/bin/ppu/lib/librt.a(sleep.o)
 .bss           0x00000000100526d4        0x0 /home/louis/Documents/ps3/ps3toolchain/bin/ppu/lib/librt.a(write.o)
 .bss           0x00000000100526d4        0x0 /home/louis/Documents/ps3/ps3toolchain/bin/ppu/lib/librt.a(fstat.o)
 .bss           0x00000000100526d4        0x0 /home/louis/Documents/ps3/ps3toolchain/bin/ppu/lib/librt.a(socket.o)
 .bss           0x00000000100526d4        0x0 /home/louis/Documents/ps3/ps3toolchain/bin/ppu/lib/librt.a(lock.o)
 .bss           0x00000000100526d4        0x0 /home/louis/Documents/ps3/ps3toolchain/bin/ppu/lib/librt.a(dirent.o)
 .bss           0x00000000100526d4        0x0 /home/louis/Documents/ps3/ps3toolchain/bin/ppu/lib/librt.a(mkdir.o)
 .bss           0x00000000100526d4        0x0 /home/louis/Documents/ps3/ps3toolchain/bin/ppu/lib/librt.a(times.o)
 .bss           0x00000000100526d4        0x0 /home/louis/Documents/ps3/ps3toolchain/bin/ppu/lib/librt.a(umask.o)
 .bss           0x00000000100526d4        0x0 /home/louis/Documents/ps3/ps3toolchain/bin/ppu/lib/librt.a(lv2errno.o)
 .bss           0x00000000100526d4        0x0 /home/louis/Documents/ps3/ps3toolchain/bin/ppu/lib/librt.a(heap.o)
 .bss           0x00000000100526d4        0x0 /home/louis/Documents/ps3/ps3toolchain/bin/ppu/lib/librt.a(chmod.o)
 .bss           0x00000000100526d4        0x0 /home/louis/Documents/ps3/ps3toolchain/bin/ppu/lib/librt.a(rename.o)
 .bss           0x00000000100526d4        0x0 /home/louis/Documents/ps3/ps3toolchain/bin/ppu/lib/librt.a(rmdir.o)
 .bss           0x00000000100526d4        0x0 /home/louis/Documents/ps3/ps3toolchain/bin/ppu/lib/librt.a(isatty.o)
 .bss           0x00000000100526d4        0x0 /home/louis/Documents/ps3/ps3toolchain/bin/ppu/lib/librt.a(gettod.o)
 .bss           0x00000000100526d4        0x0 /home/louis/Documents/ps3/ps3toolchain/bin/ppu/lib/librt.a(settod.o)
 .bss           0x00000000100526d4        0x0 /home/louis/Documents/ps3/ps3toolchain/bin/ppu/lib/librt.a(unlink.o)
 .bss           0x00000000100526d4        0x0 /home/louis/Documents/ps3/ps3toolchain/bin/ppu/lib/librt.a(link.o)
 .bss           0x00000000100526d4        0x0 /home/louis/Documents/ps3/ps3toolchain/bin/ppu/lib/librt.a(truncate.o)
 .bss           0x00000000100526d4        0x0 /home/louis/Documents/ps3/ps3toolchain/bin/ppu/lib/librt.a(fsync.o)
 .bss           0x00000000100526d4        0x0 /home/louis/Documents/ps3/ps3toolchain/bin/ppu/lib/librt.a(utime.o)
 .bss           0x00000000100526d4        0x0 /home/louis/Documents/ps3/ps3toolchain/bin/ppu/lib/librt.a(globfile.o)
 *fill*         0x00000000100526d4        0x4 00
 .bss.__cwd     0x00000000100526d8        0x8 /home/louis/Documents/ps3/ps3toolchain/bin/ppu/lib/librt.a(globfile.o)
                0x00000000100526d8                __cwd
 .bss           0x00000000100526e0        0x0 /home/louis/Documents/ps3/ps3toolchain/bin/ppu/lib/liblv2.a(sprx.o)
 .bss           0x00000000100526e0        0x0 /home/louis/Documents/ps3/ps3toolchain/bin/ppu/lib/gcc/powerpc64-ps3-elf/7.2.0/../../../../powerpc64-ps3-elf/lib/libm.a(lib_a-sf_cos.o)
 .bss           0x00000000100526e0        0x0 /home/louis/Documents/ps3/ps3toolchain/bin/ppu/lib/gcc/powerpc64-ps3-elf/7.2.0/../../../../powerpc64-ps3-elf/lib/libm.a(lib_a-sf_sine.o)
 .bss           0x00000000100526e0        0x0 /home/louis/Documents/ps3/ps3toolchain/bin/ppu/lib/gcc/powerpc64-ps3-elf/7.2.0/../../../../powerpc64-ps3-elf/lib/libm.a(lib_a-sf_sin.o)
 .bss           0x00000000100526e0        0x0 /home/louis/Documents/ps3/ps3toolchain/bin/ppu/lib/gcc/powerpc64-ps3-elf/7.2.0/../../../../powerpc64-ps3-elf/lib/libm.a(lib_a-sf_sqrt.o)
 .bss           0x00000000100526e0        0x0 /home/louis/Documents/ps3/ps3toolchain/bin/ppu/lib/gcc/powerpc64-ps3-elf/7.2.0/../../../../powerpc64-ps3-elf/lib/libm.a(lib_a-sf_tan.o)
 .bss           0x00000000100526e0        0x0 /home/louis/Documents/ps3/ps3toolchain/bin/ppu/lib/gcc/powerpc64-ps3-elf/7.2.0/../../../../powerpc64-ps3-elf/lib/libm.a(lib_a-s_mathcnst.o)
 .bss           0x00000000100526e0        0x0 /home/louis/Documents/ps3/ps3toolchain/bin/ppu/lib/gcc/powerpc64-ps3-elf/7.2.0/../../../../powerpc64-ps3-elf/lib/libm.a(lib_a-s_sqrt.o)
 .bss           0x00000000100526e0        0x0 /home/louis/Documents/ps3/ps3toolchain/bin/ppu/lib/gcc/powerpc64-ps3-elf/7.2.0/../../../../powerpc64-ps3-elf/lib/libm.a(lib_a-sf_fabs.o)
 .bss           0x00000000100526e0        0x0 /home/louis/Documents/ps3/ps3toolchain/bin/ppu/lib/gcc/powerpc64-ps3-elf/7.2.0/../../../../powerpc64-ps3-elf/lib/libm.a(lib_a-sf_floor.o)
 .bss           0x00000000100526e0        0x0 /home/louis/Documents/ps3/ps3toolchain/bin/ppu/lib/gcc/powerpc64-ps3-elf/7.2.0/../../../../powerpc64-ps3-elf/lib/libm.a(lib_a-sf_frexp.o)
 .bss           0x00000000100526e0        0x0 /home/louis/Documents/ps3/ps3toolchain/bin/ppu/lib/gcc/powerpc64-ps3-elf/7.2.0/../../../../powerpc64-ps3-elf/lib/libm.a(lib_a-sf_ispos.o)
 .bss           0x00000000100526e0        0x0 /home/louis/Documents/ps3/ps3toolchain/bin/ppu/lib/gcc/powerpc64-ps3-elf/7.2.0/../../../../powerpc64-ps3-elf/lib/libm.a(lib_a-sf_ldexp.o)
 .bss           0x00000000100526e0        0x0 /home/louis/Documents/ps3/ps3toolchain/bin/ppu/lib/gcc/powerpc64-ps3-elf/7.2.0/../../../../powerpc64-ps3-elf/lib/libm.a(lib_a-sf_modf.o)
 .bss           0x00000000100526e0        0x0 /home/louis/Documents/ps3/ps3toolchain/bin/ppu/lib/gcc/powerpc64-ps3-elf/7.2.0/../../../../powerpc64-ps3-elf/lib/libm.a(lib_a-sf_numtest.o)
 .bss           0x00000000100526e0        0x0 /home/louis/Documents/ps3/ps3toolchain/bin/ppu/lib/gcc/powerpc64-ps3-elf/7.2.0/../../../../powerpc64-ps3-elf/lib/libm.a(lib_a-s_frexp.o)
 .bss           0x00000000100526e0        0x0 /home/louis/Documents/ps3/ps3toolchain/bin/ppu/lib/gcc/powerpc64-ps3-elf/7.2.0/../../../../powerpc64-ps3-elf/lib/libm.a(lib_a-s_ispos.o)
 .bss           0x00000000100526e0        0x0 /home/louis/Documents/ps3/ps3toolchain/bin/ppu/lib/gcc/powerpc64-ps3-elf/7.2.0/../../../../powerpc64-ps3-elf/lib/libm.a(lib_a-s_ldexp.o)
 .bss           0x00000000100526e0        0x0 /home/louis/Documents/ps3/ps3toolchain/bin/ppu/lib/gcc/powerpc64-ps3-elf/7.2.0/../../../../powerpc64-ps3-elf/lib/libm.a(lib_a-s_numtest.o)
 .bss           0x00000000100526e0        0x0 /home/louis/Documents/ps3/ps3toolchain/bin/ppu/lib/gcc/powerpc64-ps3-elf/7.2.0/../../../../powerpc64-ps3-elf/lib/libsysbase.a(syscalls.o)
 .bss.__syscalls
                0x00000000100526e0      0x170 /home/louis/Documents/ps3/ps3toolchain/bin/ppu/lib/gcc/powerpc64-ps3-elf/7.2.0/../../../../powerpc64-ps3-elf/lib/libsysbase.a(syscalls.o)
                0x00000000100526e0                __syscalls
 .bss           0x0000000010052850        0x0 /home/louis/Documents/ps3/ps3toolchain/bin/ppu/lib/gcc/powerpc64-ps3-elf/7.2.0/../../../../powerpc64-ps3-elf/lib/libsysbase.a(sleep.o)
 .bss           0x0000000010052850        0x0 /home/louis/Documents/ps3/ps3toolchain/bin/ppu/lib/gcc/powerpc64-ps3-elf/7.2.0/../../../../powerpc64-ps3-elf/lib/libc.a(lib_a-atexit.o)
 .bss           0x0000000010052850        0x0 /home/louis/Documents/ps3/ps3toolchain/bin/ppu/lib/gcc/powerpc64-ps3-elf/7.2.0/../../../../powerpc64-ps3-elf/lib/libc.a(lib_a-calloc.o)
 .bss           0x0000000010052850        0x0 /home/louis/Documents/ps3/ps3toolchain/bin/ppu/lib/gcc/powerpc64-ps3-elf/7.2.0/../../../../powerpc64-ps3-elf/lib/libc.a(lib_a-callocr.o)
 .bss           0x0000000010052850        0x0 /home/louis/Documents/ps3/ps3toolchain/bin/ppu/lib/gcc/powerpc64-ps3-elf/7.2.0/../../../../powerpc64-ps3-elf/lib/libc.a(lib_a-errno.o)
 .bss           0x0000000010052850        0x0 /home/louis/Documents/ps3/ps3toolchain/bin/ppu/lib/gcc/powerpc64-ps3-elf/7.2.0/../../../../powerpc64-ps3-elf/lib/libc.a(lib_a-exit.o)
 .bss           0x0000000010052850        0x0 /home/louis/Documents/ps3/ps3toolchain/bin/ppu/lib/gcc/powerpc64-ps3-elf/7.2.0/../../../../powerpc64-ps3-elf/lib/libc.a(lib_a-fprintf.o)
 .bss           0x0000000010052850        0x0 /home/louis/Documents/ps3/ps3toolchain/bin/ppu/lib/gcc/powerpc64-ps3-elf/7.2.0/../../../../powerpc64-ps3-elf/lib/libc.a(lib_a-getreent.o)
 .bss           0x0000000010052850        0x0 /home/louis/Documents/ps3/ps3toolchain/bin/ppu/lib/gcc/powerpc64-ps3-elf/7.2.0/../../../../powerpc64-ps3-elf/lib/libc.a(lib_a-impure.o)
 .bss           0x0000000010052850        0x0 /home/louis/Documents/ps3/ps3toolchain/bin/ppu/lib/gcc/powerpc64-ps3-elf/7.2.0/../../../../powerpc64-ps3-elf/lib/libc.a(lib_a-malign.o)
 .bss           0x0000000010052850        0x0 /home/louis/Documents/ps3/ps3toolchain/bin/ppu/lib/gcc/powerpc64-ps3-elf/7.2.0/../../../../powerpc64-ps3-elf/lib/libc.a(lib_a-malignr.o)
 .bss           0x0000000010052850        0x0 /home/louis/Documents/ps3/ps3toolchain/bin/ppu/lib/gcc/powerpc64-ps3-elf/7.2.0/../../../../powerpc64-ps3-elf/lib/libc.a(lib_a-malloc.o)
 .bss           0x0000000010052850        0x0 /home/louis/Documents/ps3/ps3toolchain/bin/ppu/lib/gcc/powerpc64-ps3-elf/7.2.0/../../../../powerpc64-ps3-elf/lib/libc.a(lib_a-mallocr.o)
 .bss.__malloc_current_mallinfo
                0x0000000010052850       0x28 /home/louis/Documents/ps3/ps3toolchain/bin/ppu/lib/gcc/powerpc64-ps3-elf/7.2.0/../../../../powerpc64-ps3-elf/lib/libc.a(lib_a-mallocr.o)
                0x0000000010052850                __malloc_current_mallinfo
 .bss.__malloc_max_sbrked_mem
                0x0000000010052878        0x8 /home/louis/Documents/ps3/ps3toolchain/bin/ppu/lib/gcc/powerpc64-ps3-elf/7.2.0/../../../../powerpc64-ps3-elf/lib/libc.a(lib_a-mallocr.o)
                0x0000000010052878                __malloc_max_sbrked_mem
 .bss.__malloc_max_total_mem
                0x0000000010052880        0x8 /home/louis/Documents/ps3/ps3toolchain/bin/ppu/lib/gcc/powerpc64-ps3-elf/7.2.0/../../../../powerpc64-ps3-elf/lib/libc.a(lib_a-mallocr.o)
                0x0000000010052880                __malloc_max_total_mem
 .bss.__malloc_top_pad
                0x0000000010052888        0x8 /home/louis/Documents/ps3/ps3toolchain/bin/ppu/lib/gcc/powerpc64-ps3-elf/7.2.0/../../../../powerpc64-ps3-elf/lib/libc.a(lib_a-mallocr.o)
                0x0000000010052888                __malloc_top_pad
 .bss           0x0000000010052890        0x0 /home/louis/Documents/ps3/ps3toolchain/bin/ppu/lib/gcc/powerpc64-ps3-elf/7.2.0/../../../../powerpc64-ps3-elf/lib/libc.a(lib_a-memcpy.o)
 .bss           0x0000000010052890        0x0 /home/louis/Documents/ps3/ps3toolchain/bin/ppu/lib/gcc/powerpc64-ps3-elf/7.2.0/../../../../powerpc64-ps3-elf/lib/libc.a(lib_a-memset.o)
 .bss           0x0000000010052890        0x0 /home/louis/Documents/ps3/ps3toolchain/bin/ppu/lib/gcc/powerpc64-ps3-elf/7.2.0/../../../../powerpc64-ps3-elf/lib/libc.a(lib_a-mlock.o)
 .bss.__malloc_lock_object
                0x0000000010052890       0x18 /home/louis/Documents/ps3/ps3toolchain/bin/ppu/lib/gcc/powerpc64-ps3-elf/7.2.0/../../../../powerpc64-ps3-elf/lib/libc.a(lib_a-mlock.o)
 .bss           0x00000000100528a8        0x0 /home/louis/Documents/ps3/ps3toolchain/bin/ppu/lib/gcc/powerpc64-ps3-elf/7.2.0/../../../../powerpc64-ps3-elf/lib/libc.a(lib_a-perror.o)
 .bss           0x00000000100528a8        0x0 /home/louis/Documents/ps3/ps3toolchain/bin/ppu/lib/gcc/powerpc64-ps3-elf/7.2.0/../../../../powerpc64-ps3-elf/lib/libc.a(lib_a-realloc.o)
 .bss           0x00000000100528a8        0x0 /home/louis/Documents/ps3/ps3toolchain/bin/ppu/lib/gcc/powerpc64-ps3-elf/7.2.0/../../../../powerpc64-ps3-elf/lib/libc.a(lib_a-reallocr.o)
 .bss           0x00000000100528a8        0x0 /home/louis/Documents/ps3/ps3toolchain/bin/ppu/lib/gcc/powerpc64-ps3-elf/7.2.0/../../../../powerpc64-ps3-elf/lib/libc.a(lib_a-sscanf.o)
 .bss           0x00000000100528a8        0x0 /home/louis/Documents/ps3/ps3toolchain/bin/ppu/lib/gcc/powerpc64-ps3-elf/7.2.0/../../../../powerpc64-ps3-elf/lib/libc.a(lib_a-stdio.o)
 .bss           0x00000000100528a8        0x0 /home/louis/Documents/ps3/ps3toolchain/bin/ppu/lib/gcc/powerpc64-ps3-elf/7.2.0/../../../../powerpc64-ps3-elf/lib/libc.a(lib_a-strcasecmp.o)
 .bss           0x00000000100528a8        0x0 /home/louis/Documents/ps3/ps3toolchain/bin/ppu/lib/gcc/powerpc64-ps3-elf/7.2.0/../../../../powerpc64-ps3-elf/lib/libc.a(lib_a-strchr.o)
 .bss           0x00000000100528a8        0x0 /home/louis/Documents/ps3/ps3toolchain/bin/ppu/lib/gcc/powerpc64-ps3-elf/7.2.0/../../../../powerpc64-ps3-elf/lib/libc.a(lib_a-strcpy.o)
 .bss           0x00000000100528a8        0x0 /home/louis/Documents/ps3/ps3toolchain/bin/ppu/lib/gcc/powerpc64-ps3-elf/7.2.0/../../../../powerpc64-ps3-elf/lib/libc.a(lib_a-strdup.o)
 .bss           0x00000000100528a8        0x0 /home/louis/Documents/ps3/ps3toolchain/bin/ppu/lib/gcc/powerpc64-ps3-elf/7.2.0/../../../../powerpc64-ps3-elf/lib/libc.a(lib_a-strdup_r.o)
 .bss           0x00000000100528a8        0x0 /home/louis/Documents/ps3/ps3toolchain/bin/ppu/lib/gcc/powerpc64-ps3-elf/7.2.0/../../../../powerpc64-ps3-elf/lib/libc.a(lib_a-strerror.o)
 .bss           0x00000000100528a8        0x0 /home/louis/Documents/ps3/ps3toolchain/bin/ppu/lib/gcc/powerpc64-ps3-elf/7.2.0/../../../../powerpc64-ps3-elf/lib/libc.a(lib_a-strlen.o)
 .bss           0x00000000100528a8        0x0 /home/louis/Documents/ps3/ps3toolchain/bin/ppu/lib/gcc/powerpc64-ps3-elf/7.2.0/../../../../powerpc64-ps3-elf/lib/libc.a(lib_a-strncat.o)
 .bss           0x00000000100528a8        0x0 /home/louis/Documents/ps3/ps3toolchain/bin/ppu/lib/gcc/powerpc64-ps3-elf/7.2.0/../../../../powerpc64-ps3-elf/lib/libc.a(lib_a-strncpy.o)
 .bss           0x00000000100528a8        0x0 /home/louis/Documents/ps3/ps3toolchain/bin/ppu/lib/gcc/powerpc64-ps3-elf/7.2.0/../../../../powerpc64-ps3-elf/lib/libc.a(lib_a-svfscanf.o)
 .bss           0x00000000100528a8        0x0 /home/louis/Documents/ps3/ps3toolchain/bin/ppu/lib/gcc/powerpc64-ps3-elf/7.2.0/../../../../powerpc64-ps3-elf/lib/libc.a(lib_a-time.o)
 .bss           0x00000000100528a8        0x0 /home/louis/Documents/ps3/ps3toolchain/bin/ppu/lib/gcc/powerpc64-ps3-elf/7.2.0/../../../../powerpc64-ps3-elf/lib/libc.a(lib_a-u_strerr.o)
 .bss           0x00000000100528a8        0x0 /home/louis/Documents/ps3/ps3toolchain/bin/ppu/lib/gcc/powerpc64-ps3-elf/7.2.0/../../../../powerpc64-ps3-elf/lib/libc.a(lib_a-vfprintf.o)
 .bss           0x00000000100528a8        0x0 /home/louis/Documents/ps3/ps3toolchain/bin/ppu/lib/gcc/powerpc64-ps3-elf/7.2.0/../../../../powerpc64-ps3-elf/lib/libc.a(lib_a-wsetup.o)
 .bss           0x00000000100528a8        0x0 /home/louis/Documents/ps3/ps3toolchain/bin/ppu/lib/gcc/powerpc64-ps3-elf/7.2.0/../../../../powerpc64-ps3-elf/lib/libc.a(lib_a-__atexit.o)
 .bss.__atexit_lock
                0x00000000100528a8       0x18 /home/louis/Documents/ps3/ps3toolchain/bin/ppu/lib/gcc/powerpc64-ps3-elf/7.2.0/../../../../powerpc64-ps3-elf/lib/libc.a(lib_a-__atexit.o)
                0x00000000100528a8                __atexit_lock
 .bss           0x00000000100528c0        0x0 /home/louis/Documents/ps3/ps3toolchain/bin/ppu/lib/gcc/powerpc64-ps3-elf/7.2.0/../../../../powerpc64-ps3-elf/lib/libc.a(lib_a-__call_atexit.o)
 .bss           0x00000000100528c0        0x0 /home/louis/Documents/ps3/ps3toolchain/bin/ppu/lib/gcc/powerpc64-ps3-elf/7.2.0/../../../../powerpc64-ps3-elf/lib/libc.a(lib_a-ctype_.o)
 .bss           0x00000000100528c0        0x0 /home/louis/Documents/ps3/ps3toolchain/bin/ppu/lib/gcc/powerpc64-ps3-elf/7.2.0/../../../../powerpc64-ps3-elf/lib/libc.a(lib_a-dtoa.o)
 .bss           0x00000000100528c0        0x0 /home/louis/Documents/ps3/ps3toolchain/bin/ppu/lib/gcc/powerpc64-ps3-elf/7.2.0/../../../../powerpc64-ps3-elf/lib/libc.a(lib_a-fflush.o)
 .bss           0x00000000100528c0        0x0 /home/louis/Documents/ps3/ps3toolchain/bin/ppu/lib/gcc/powerpc64-ps3-elf/7.2.0/../../../../powerpc64-ps3-elf/lib/libc.a(lib_a-findfp.o)
 .bss.__sfp_lock
                0x00000000100528c0       0x18 /home/louis/Documents/ps3/ps3toolchain/bin/ppu/lib/gcc/powerpc64-ps3-elf/7.2.0/../../../../powerpc64-ps3-elf/lib/libc.a(lib_a-findfp.o)
 .bss.__sinit_lock
                0x00000000100528d8       0x18 /home/louis/Documents/ps3/ps3toolchain/bin/ppu/lib/gcc/powerpc64-ps3-elf/7.2.0/../../../../powerpc64-ps3-elf/lib/libc.a(lib_a-findfp.o)
 .bss           0x00000000100528f0        0x0 /home/louis/Documents/ps3/ps3toolchain/bin/ppu/lib/gcc/powerpc64-ps3-elf/7.2.0/../../../../powerpc64-ps3-elf/lib/libc.a(lib_a-fputc.o)
 .bss           0x00000000100528f0        0x0 /home/louis/Documents/ps3/ps3toolchain/bin/ppu/lib/gcc/powerpc64-ps3-elf/7.2.0/../../../../powerpc64-ps3-elf/lib/libc.a(lib_a-fputs.o)
 .bss           0x00000000100528f0        0x0 /home/louis/Documents/ps3/ps3toolchain/bin/ppu/lib/gcc/powerpc64-ps3-elf/7.2.0/../../../../powerpc64-ps3-elf/lib/libc.a(lib_a-freer.o)
 .bss           0x00000000100528f0        0x0 /home/louis/Documents/ps3/ps3toolchain/bin/ppu/lib/gcc/powerpc64-ps3-elf/7.2.0/../../../../powerpc64-ps3-elf/lib/libc.a(lib_a-fvwrite.o)
 .bss           0x00000000100528f0        0x0 /home/louis/Documents/ps3/ps3toolchain/bin/ppu/lib/gcc/powerpc64-ps3-elf/7.2.0/../../../../powerpc64-ps3-elf/lib/libc.a(lib_a-fwalk.o)
 .bss           0x00000000100528f0        0x0 /home/louis/Documents/ps3/ps3toolchain/bin/ppu/lib/gcc/powerpc64-ps3-elf/7.2.0/../../../../powerpc64-ps3-elf/lib/libc.a(lib_a-iswspace.o)
 .bss           0x00000000100528f0        0x0 /home/louis/Documents/ps3/ps3toolchain/bin/ppu/lib/gcc/powerpc64-ps3-elf/7.2.0/../../../../powerpc64-ps3-elf/lib/libc.a(lib_a-locale.o)
 .bss._PathLocale
                0x00000000100528f0        0x8 /home/louis/Documents/ps3/ps3toolchain/bin/ppu/lib/gcc/powerpc64-ps3-elf/7.2.0/../../../../powerpc64-ps3-elf/lib/libc.a(lib_a-locale.o)
                0x00000000100528f0                _PathLocale
 .bss.__mlocale_changed
                0x00000000100528f8        0x4 /home/louis/Documents/ps3/ps3toolchain/bin/ppu/lib/gcc/powerpc64-ps3-elf/7.2.0/../../../../powerpc64-ps3-elf/lib/libc.a(lib_a-locale.o)
                0x00000000100528f8                __mlocale_changed
 .bss.__nlocale_changed
                0x00000000100528fc        0x4 /home/louis/Documents/ps3/ps3toolchain/bin/ppu/lib/gcc/powerpc64-ps3-elf/7.2.0/../../../../powerpc64-ps3-elf/lib/libc.a(lib_a-locale.o)
                0x00000000100528fc                __nlocale_changed
 .bss           0x0000000010052900        0x0 /home/louis/Documents/ps3/ps3toolchain/bin/ppu/lib/gcc/powerpc64-ps3-elf/7.2.0/../../../../powerpc64-ps3-elf/lib/libc.a(lib_a-lock_recursive.o)
 .bss           0x0000000010052900        0x0 /home/louis/Documents/ps3/ps3toolchain/bin/ppu/lib/gcc/powerpc64-ps3-elf/7.2.0/../../../../powerpc64-ps3-elf/lib/libc.a(lib_a-makebuf.o)
 .bss           0x0000000010052900        0x0 /home/louis/Documents/ps3/ps3toolchain/bin/ppu/lib/gcc/powerpc64-ps3-elf/7.2.0/../../../../powerpc64-ps3-elf/lib/libc.a(lib_a-mbrtowc.o)
 .bss           0x0000000010052900        0x0 /home/louis/Documents/ps3/ps3toolchain/bin/ppu/lib/gcc/powerpc64-ps3-elf/7.2.0/../../../../powerpc64-ps3-elf/lib/libc.a(lib_a-mbtowc_r.o)
 .bss           0x0000000010052900        0x0 /home/louis/Documents/ps3/ps3toolchain/bin/ppu/lib/gcc/powerpc64-ps3-elf/7.2.0/../../../../powerpc64-ps3-elf/lib/libc.a(lib_a-memchr.o)
 .bss           0x0000000010052900        0x0 /home/louis/Documents/ps3/ps3toolchain/bin/ppu/lib/gcc/powerpc64-ps3-elf/7.2.0/../../../../powerpc64-ps3-elf/lib/libc.a(lib_a-memmove.o)
 .bss           0x0000000010052900        0x0 /home/louis/Documents/ps3/ps3toolchain/bin/ppu/lib/gcc/powerpc64-ps3-elf/7.2.0/../../../../powerpc64-ps3-elf/lib/libc.a(lib_a-mprec.o)
 .bss           0x0000000010052900        0x0 /home/louis/Documents/ps3/ps3toolchain/bin/ppu/lib/gcc/powerpc64-ps3-elf/7.2.0/../../../../powerpc64-ps3-elf/lib/libc.a(lib_a-putc.o)
 .bss           0x0000000010052900        0x0 /home/louis/Documents/ps3/ps3toolchain/bin/ppu/lib/gcc/powerpc64-ps3-elf/7.2.0/../../../../powerpc64-ps3-elf/lib/libc.a(lib_a-sccl.o)
 .bss           0x0000000010052900        0x0 /home/louis/Documents/ps3/ps3toolchain/bin/ppu/lib/gcc/powerpc64-ps3-elf/7.2.0/../../../../powerpc64-ps3-elf/lib/libc.a(lib_a-sf_nan.o)
 .bss           0x0000000010052900        0x0 /home/louis/Documents/ps3/ps3toolchain/bin/ppu/lib/gcc/powerpc64-ps3-elf/7.2.0/../../../../powerpc64-ps3-elf/lib/libc.a(lib_a-s_fpclassify.o)
 .bss           0x0000000010052900        0x0 /home/louis/Documents/ps3/ps3toolchain/bin/ppu/lib/gcc/powerpc64-ps3-elf/7.2.0/../../../../powerpc64-ps3-elf/lib/libc.a(lib_a-sprintf.o)
 .bss           0x0000000010052900        0x0 /home/louis/Documents/ps3/ps3toolchain/bin/ppu/lib/gcc/powerpc64-ps3-elf/7.2.0/../../../../powerpc64-ps3-elf/lib/libc.a(lib_a-strcmp.o)
 .bss           0x0000000010052900        0x0 /home/louis/Documents/ps3/ps3toolchain/bin/ppu/lib/gcc/powerpc64-ps3-elf/7.2.0/../../../../powerpc64-ps3-elf/lib/libc.a(lib_a-strtod.o)
 .bss           0x0000000010052900        0x0 /home/louis/Documents/ps3/ps3toolchain/bin/ppu/lib/gcc/powerpc64-ps3-elf/7.2.0/../../../../powerpc64-ps3-elf/lib/libc.a(lib_a-strtoll_r.o)
 .bss           0x0000000010052900        0x0 /home/louis/Documents/ps3/ps3toolchain/bin/ppu/lib/gcc/powerpc64-ps3-elf/7.2.0/../../../../powerpc64-ps3-elf/lib/libc.a(lib_a-strtol.o)
 .bss           0x0000000010052900        0x0 /home/louis/Documents/ps3/ps3toolchain/bin/ppu/lib/gcc/powerpc64-ps3-elf/7.2.0/../../../../powerpc64-ps3-elf/lib/libc.a(lib_a-strtoull_r.o)
 .bss           0x0000000010052900        0x0 /home/louis/Documents/ps3/ps3toolchain/bin/ppu/lib/gcc/powerpc64-ps3-elf/7.2.0/../../../../powerpc64-ps3-elf/lib/libc.a(lib_a-strtoul.o)
 .bss           0x0000000010052900        0x0 /home/louis/Documents/ps3/ps3toolchain/bin/ppu/lib/gcc/powerpc64-ps3-elf/7.2.0/../../../../powerpc64-ps3-elf/lib/libc.a(lib_a-svfiscanf.o)
 .bss           0x0000000010052900        0x0 /home/louis/Documents/ps3/ps3toolchain/bin/ppu/lib/gcc/powerpc64-ps3-elf/7.2.0/../../../../powerpc64-ps3-elf/lib/libc.a(lib_a-svfprintf.o)
 .bss           0x0000000010052900        0x0 /home/louis/Documents/ps3/ps3toolchain/bin/ppu/lib/gcc/powerpc64-ps3-elf/7.2.0/../../../../powerpc64-ps3-elf/lib/libc.a(lib_a-ungetc.o)
 .bss           0x0000000010052900        0x0 /home/louis/Documents/ps3/ps3toolchain/bin/ppu/lib/gcc/powerpc64-ps3-elf/7.2.0/../../../../powerpc64-ps3-elf/lib/libc.a(lib_a-vfiprintf.o)
 .bss           0x0000000010052900        0x0 /home/louis/Documents/ps3/ps3toolchain/bin/ppu/lib/gcc/powerpc64-ps3-elf/7.2.0/../../../../powerpc64-ps3-elf/lib/libc.a(lib_a-wbuf.o)
 .bss           0x0000000010052900        0x0 /home/louis/Documents/ps3/ps3toolchain/bin/ppu/lib/gcc/powerpc64-ps3-elf/7.2.0/../../../../powerpc64-ps3-elf/lib/libc.a(lib_a-fclose.o)
 .bss           0x0000000010052900        0x0 /home/louis/Documents/ps3/ps3toolchain/bin/ppu/lib/gcc/powerpc64-ps3-elf/7.2.0/../../../../powerpc64-ps3-elf/lib/libc.a(lib_a-fputwc.o)
 .bss           0x0000000010052900        0x0 /home/louis/Documents/ps3/ps3toolchain/bin/ppu/lib/gcc/powerpc64-ps3-elf/7.2.0/../../../../powerpc64-ps3-elf/lib/libc.a(lib_a-gdtoa-gethex.o)
 .bss           0x0000000010052900        0x0 /home/louis/Documents/ps3/ps3toolchain/bin/ppu/lib/gcc/powerpc64-ps3-elf/7.2.0/../../../../powerpc64-ps3-elf/lib/libc.a(lib_a-gdtoa-hexnan.o)
 .bss           0x0000000010052900        0x0 /home/louis/Documents/ps3/ps3toolchain/bin/ppu/lib/gcc/powerpc64-ps3-elf/7.2.0/../../../../powerpc64-ps3-elf/lib/libc.a(lib_a-lock_internal.o)
 .bss.metaLock  0x0000000010052900       0x18 /home/louis/Documents/ps3/ps3toolchain/bin/ppu/lib/gcc/powerpc64-ps3-elf/7.2.0/../../../../powerpc64-ps3-elf/lib/libc.a(lib_a-lock_internal.o)
 .bss           0x0000000010052918        0x0 /home/louis/Documents/ps3/ps3toolchain/bin/ppu/lib/gcc/powerpc64-ps3-elf/7.2.0/../../../../powerpc64-ps3-elf/lib/libc.a(lib_a-strncmp.o)
 .bss           0x0000000010052918        0x0 /home/louis/Documents/ps3/ps3toolchain/bin/ppu/lib/gcc/powerpc64-ps3-elf/7.2.0/../../../../powerpc64-ps3-elf/lib/libc.a(lib_a-svfiprintf.o)
 .bss           0x0000000010052918        0x0 /home/louis/Documents/ps3/ps3toolchain/bin/ppu/lib/gcc/powerpc64-ps3-elf/7.2.0/../../../../powerpc64-ps3-elf/lib/libc.a(lib_a-wcrtomb.o)
 .bss           0x0000000010052918        0x0 /home/louis/Documents/ps3/ps3toolchain/bin/ppu/lib/gcc/powerpc64-ps3-elf/7.2.0/../../../../powerpc64-ps3-elf/lib/libc.a(lib_a-wctomb_r.o)
 .bss           0x0000000010052918        0x0 /home/louis/Documents/ps3/ps3toolchain/bin/ppu/lib/gcc/powerpc64-ps3-elf/7.2.0/../../../../powerpc64-ps3-elf/lib/libc.a(lib_a-abort.o)
 .bss           0x0000000010052918        0x0 /home/louis/Documents/ps3/ps3toolchain/bin/ppu/lib/gcc/powerpc64-ps3-elf/7.2.0/../../../../powerpc64-ps3-elf/lib/libc.a(lib_a-signal.o)
 .bss           0x0000000010052918        0x0 /home/louis/Documents/ps3/ps3toolchain/bin/ppu/lib/gcc/powerpc64-ps3-elf/7.2.0/../../../../powerpc64-ps3-elf/lib/libsysbase.a(close.o)
 .bss           0x0000000010052918        0x0 /home/louis/Documents/ps3/ps3toolchain/bin/ppu/lib/gcc/powerpc64-ps3-elf/7.2.0/../../../../powerpc64-ps3-elf/lib/libsysbase.a(sbrk.o)
 .bss           0x0000000010052918        0x0 /home/louis/Documents/ps3/ps3toolchain/bin/ppu/lib/gcc/powerpc64-ps3-elf/7.2.0/../../../../powerpc64-ps3-elf/lib/libsysbase.a(_exit.o)
 .bss           0x0000000010052918        0x0 /home/louis/Documents/ps3/ps3toolchain/bin/ppu/lib/gcc/powerpc64-ps3-elf/7.2.0/../../../../powerpc64-ps3-elf/lib/libsysbase.a(fstat.o)
 .bss           0x0000000010052918        0x0 /home/louis/Documents/ps3/ps3toolchain/bin/ppu/lib/gcc/powerpc64-ps3-elf/7.2.0/../../../../powerpc64-ps3-elf/lib/libsysbase.a(isatty.o)
 .bss           0x0000000010052918        0x0 /home/louis/Documents/ps3/ps3toolchain/bin/ppu/lib/gcc/powerpc64-ps3-elf/7.2.0/../../../../powerpc64-ps3-elf/lib/libsysbase.a(lseek.o)
 .bss           0x0000000010052918        0x0 /home/louis/Documents/ps3/ps3toolchain/bin/ppu/lib/gcc/powerpc64-ps3-elf/7.2.0/../../../../powerpc64-ps3-elf/lib/libsysbase.a(read.o)
 .bss           0x0000000010052918        0x0 /home/louis/Documents/ps3/ps3toolchain/bin/ppu/lib/gcc/powerpc64-ps3-elf/7.2.0/../../../../powerpc64-ps3-elf/lib/libsysbase.a(write.o)
 .bss           0x0000000010052918        0x0 /home/louis/Documents/ps3/ps3toolchain/bin/ppu/lib/gcc/powerpc64-ps3-elf/7.2.0/../../../../powerpc64-ps3-elf/lib/libsysbase.a(lock.o)
 .bss           0x0000000010052918        0x0 /home/louis/Documents/ps3/ps3toolchain/bin/ppu/lib/gcc/powerpc64-ps3-elf/7.2.0/../../../../powerpc64-ps3-elf/lib/libsysbase.a(getpid.o)
 .bss           0x0000000010052918        0x0 /home/louis/Documents/ps3/ps3toolchain/bin/ppu/lib/gcc/powerpc64-ps3-elf/7.2.0/../../../../powerpc64-ps3-elf/lib/libsysbase.a(kill.o)
 .bss           0x0000000010052918        0x0 /home/louis/Documents/ps3/ps3toolchain/bin/ppu/lib/gcc/powerpc64-ps3-elf/7.2.0/../../../../powerpc64-ps3-elf/lib/libsysbase.a(gettod.o)
 .bss           0x0000000010052918        0x0 /home/louis/Documents/ps3/ps3toolchain/bin/ppu/lib/gcc/powerpc64-ps3-elf/7.2.0/crtend.o
 .bss           0x0000000010052918        0x0 /home/louis/Documents/ps3/ps3toolchain/bin/ppu/lib/gcc/powerpc64-ps3-elf/7.2.0/../../../../powerpc64-ps3-elf/lib/lv2-crtn.o
 *(COMMON)
 COMMON         0x0000000010052918       0x20 /home/louis/Documents/ps3/ps3toolchain/bin/portlibs/ppu/lib/libtiny3d.a(mm.o)
                0x0000000010052918                heap_pointer
                0x0000000010052920                config
 COMMON         0x0000000010052938       0x24 /home/louis/Documents/ps3/ps3toolchain/bin/portlibs/ppu/lib/libtiny3d.a(rsxutil.o)
                0x0000000010052938                Video_buffer
                0x0000000010052948                Video_aspect
                0x000000001005294c                Video_pitch
                0x0000000010052950                context
                0x0000000010052958                Video_Resolution
 *fill*         0x000000001005295c        0x4 00
 COMMON         0x0000000010052960      0x100 /home/louis/Documents/ps3/ps3toolchain/bin/ppu/lib/gcc/powerpc64-ps3-elf/7.2.0/../../../../powerpc64-ps3-elf/lib/libc.a(lib_a-gdtoa-gethex.o)
                0x0000000010052960                __hexdig
                0x0000000010052a60                . = ALIGN (0x8)

.iplt           0x0000000010052a60        0x0
 .iplt          0x0000000000000000        0x0 linker stubs
                0x0000000020000000                . = ALIGN (0x10000000)

.rsx_image
 *(.rsx_*)
                0x0000000020000000                _end = .
                0x0000000020000000                __end = .
                0x0000000020000000                PROVIDE (end, .)
                0x0000000020000000                . = ALIGN (0x8)

.stab
 *(.stab)

.stabstr
 *(.stabstr)

.stab.excl
 *(.stab.excl)

.stab.exclstr
 *(.stab.exclstr)

.stab.index
 *(.stab.index)

.stab.indexstr
 *(.stab.indexstr)

.comment        0x0000000000000000       0x11
 *(.comment)
 .comment       0x0000000000000000       0x11 /home/louis/Documents/ps3/ps3toolchain/bin/ppu/lib/gcc/powerpc64-ps3-elf/7.2.0/crtbegin.o
                                         0x12 (size before relaxing)
 .comment       0x0000000000000000       0x12 /home/louis/Documents/ps3/ps3toolchain/bin/ppu/lib/gcc/powerpc64-ps3-elf/7.2.0/../../../../powerpc64-ps3-elf/lib/lv2-crt0.o
 .comment       0x0000000000000000       0x12 main.o
 .comment       0x0000000000000000       0x12 pad.o
 .comment       0x0000000000000000       0x12 rendering.o
 .comment       0x0000000000000000       0x12 /home/louis/Documents/ps3/ps3toolchain/bin/portlibs/ppu/lib/libtiny3d.a(matrix.o)
 .comment       0x0000000000000000       0x12 /home/louis/Documents/ps3/ps3toolchain/bin/portlibs/ppu/lib/libtiny3d.a(tiny3d.o)
 .comment       0x0000000000000000       0x12 /home/louis/Documents/ps3/ps3toolchain/bin/portlibs/ppu/lib/libtiny3d.a(commands.o)
 .comment       0x0000000000000000       0x12 /home/louis/Documents/ps3/ps3toolchain/bin/portlibs/ppu/lib/libtiny3d.a(glue.o)
 .comment       0x0000000000000000       0x12 /home/louis/Documents/ps3/ps3toolchain/bin/portlibs/ppu/lib/libtiny3d.a(mm.o)
 .comment       0x0000000000000000       0x12 /home/louis/Documents/ps3/ps3toolchain/bin/portlibs/ppu/lib/libtiny3d.a(realityVP.o)
 .comment       0x0000000000000000       0x12 /home/louis/Documents/ps3/ps3toolchain/bin/portlibs/ppu/lib/libtiny3d.a(rsxutil.o)
 .comment       0x0000000000000000       0x12 /home/louis/Documents/ps3/ps3toolchain/bin/portlibs/ppu/lib/libtiny3d.a(buffer.o)
 .comment       0x0000000000000000       0x12 /home/louis/Documents/ps3/ps3toolchain/bin/ppu/lib/libgcm_sys.a(sprx.o)
 .comment       0x0000000000000000       0x12 /home/louis/Documents/ps3/ps3toolchain/bin/ppu/lib/libgcm_sys.a(gcm_wrapper.o)
 .comment       0x0000000000000000       0x12 /home/louis/Documents/ps3/ps3toolchain/bin/ppu/lib/libio.a(sprx.o)
 .comment       0x0000000000000000       0x12 /home/louis/Documents/ps3/ps3toolchain/bin/ppu/lib/libsysutil.a(sprx.o)
 .comment       0x0000000000000000       0x12 /home/louis/Documents/ps3/ps3toolchain/bin/ppu/lib/libsysutil.a(sysutil_wrapper.o)
 .comment       0x0000000000000000       0x12 /home/louis/Documents/ps3/ps3toolchain/bin/ppu/lib/librt.a(sbrk.o)
 .comment       0x0000000000000000       0x12 /home/louis/Documents/ps3/ps3toolchain/bin/ppu/lib/librt.a(exit.o)
 .comment       0x0000000000000000       0x12 /home/louis/Documents/ps3/ps3toolchain/bin/ppu/lib/librt.a(close.o)
 .comment       0x0000000000000000       0x12 /home/louis/Documents/ps3/ps3toolchain/bin/ppu/lib/librt.a(lseek.o)
 .comment       0x0000000000000000       0x12 /home/louis/Documents/ps3/ps3toolchain/bin/ppu/lib/librt.a(read.o)
 .comment       0x0000000000000000       0x12 /home/louis/Documents/ps3/ps3toolchain/bin/ppu/lib/librt.a(open.o)
 .comment       0x0000000000000000       0x12 /home/louis/Documents/ps3/ps3toolchain/bin/ppu/lib/librt.a(sleep.o)
 .comment       0x0000000000000000       0x12 /home/louis/Documents/ps3/ps3toolchain/bin/ppu/lib/librt.a(write.o)
 .comment       0x0000000000000000       0x12 /home/louis/Documents/ps3/ps3toolchain/bin/ppu/lib/librt.a(fstat.o)
 .comment       0x0000000000000000       0x12 /home/louis/Documents/ps3/ps3toolchain/bin/ppu/lib/librt.a(socket.o)
 .comment       0x0000000000000000       0x12 /home/louis/Documents/ps3/ps3toolchain/bin/ppu/lib/librt.a(lock.o)
 .comment       0x0000000000000000       0x12 /home/louis/Documents/ps3/ps3toolchain/bin/ppu/lib/librt.a(dirent.o)
 .comment       0x0000000000000000       0x12 /home/louis/Documents/ps3/ps3toolchain/bin/ppu/lib/librt.a(mkdir.o)
 .comment       0x0000000000000000       0x12 /home/louis/Documents/ps3/ps3toolchain/bin/ppu/lib/librt.a(times.o)
 .comment       0x0000000000000000       0x12 /home/louis/Documents/ps3/ps3toolchain/bin/ppu/lib/librt.a(umask.o)
 .comment       0x0000000000000000       0x12 /home/louis/Documents/ps3/ps3toolchain/bin/ppu/lib/librt.a(lv2errno.o)
 .comment       0x0000000000000000       0x12 /home/louis/Documents/ps3/ps3toolchain/bin/ppu/lib/librt.a(heap.o)
 .comment       0x0000000000000000       0x12 /home/louis/Documents/ps3/ps3toolchain/bin/ppu/lib/librt.a(chmod.o)
 .comment       0x0000000000000000       0x12 /home/louis/Documents/ps3/ps3toolchain/bin/ppu/lib/librt.a(rename.o)
 .comment       0x0000000000000000       0x12 /home/louis/Documents/ps3/ps3toolchain/bin/ppu/lib/librt.a(rmdir.o)
 .comment       0x0000000000000000       0x12 /home/louis/Documents/ps3/ps3toolchain/bin/ppu/lib/librt.a(isatty.o)
 .comment       0x0000000000000000       0x12 /home/louis/Documents/ps3/ps3toolchain/bin/ppu/lib/librt.a(gettod.o)
 .comment       0x0000000000000000       0x12 /home/louis/Documents/ps3/ps3toolchain/bin/ppu/lib/librt.a(settod.o)
 .comment       0x0000000000000000       0x12 /home/louis/Documents/ps3/ps3toolchain/bin/ppu/lib/librt.a(unlink.o)
 .comment       0x0000000000000000       0x12 /home/louis/Documents/ps3/ps3toolchain/bin/ppu/lib/librt.a(link.o)
 .comment       0x0000000000000000       0x12 /home/louis/Documents/ps3/ps3toolchain/bin/ppu/lib/librt.a(truncate.o)
 .comment       0x0000000000000000       0x12 /home/louis/Documents/ps3/ps3toolchain/bin/ppu/lib/librt.a(fsync.o)
 .comment       0x0000000000000000       0x12 /home/louis/Documents/ps3/ps3toolchain/bin/ppu/lib/librt.a(utime.o)
 .comment       0x0000000000000000       0x12 /home/louis/Documents/ps3/ps3toolchain/bin/ppu/lib/librt.a(globfile.o)
 .comment       0x0000000000000000       0x12 /home/louis/Documents/ps3/ps3toolchain/bin/ppu/lib/liblv2.a(sprx.o)
 .comment       0x0000000000000000       0x12 /home/louis/Documents/ps3/ps3toolchain/bin/ppu/lib/gcc/powerpc64-ps3-elf/7.2.0/../../../../powerpc64-ps3-elf/lib/libm.a(lib_a-sf_cos.o)
 .comment       0x0000000000000000       0x12 /home/louis/Documents/ps3/ps3toolchain/bin/ppu/lib/gcc/powerpc64-ps3-elf/7.2.0/../../../../powerpc64-ps3-elf/lib/libm.a(lib_a-sf_sine.o)
 .comment       0x0000000000000000       0x12 /home/louis/Documents/ps3/ps3toolchain/bin/ppu/lib/gcc/powerpc64-ps3-elf/7.2.0/../../../../powerpc64-ps3-elf/lib/libm.a(lib_a-sf_sin.o)
 .comment       0x0000000000000000       0x12 /home/louis/Documents/ps3/ps3toolchain/bin/ppu/lib/gcc/powerpc64-ps3-elf/7.2.0/../../../../powerpc64-ps3-elf/lib/libm.a(lib_a-sf_sqrt.o)
 .comment       0x0000000000000000       0x12 /home/louis/Documents/ps3/ps3toolchain/bin/ppu/lib/gcc/powerpc64-ps3-elf/7.2.0/../../../../powerpc64-ps3-elf/lib/libm.a(lib_a-sf_tan.o)
 .comment       0x0000000000000000       0x12 /home/louis/Documents/ps3/ps3toolchain/bin/ppu/lib/gcc/powerpc64-ps3-elf/7.2.0/../../../../powerpc64-ps3-elf/lib/libm.a(lib_a-s_mathcnst.o)
 .comment       0x0000000000000000       0x12 /home/louis/Documents/ps3/ps3toolchain/bin/ppu/lib/gcc/powerpc64-ps3-elf/7.2.0/../../../../powerpc64-ps3-elf/lib/libm.a(lib_a-s_sqrt.o)
 .comment       0x0000000000000000       0x12 /home/louis/Documents/ps3/ps3toolchain/bin/ppu/lib/gcc/powerpc64-ps3-elf/7.2.0/../../../../powerpc64-ps3-elf/lib/libm.a(lib_a-sf_fabs.o)
 .comment       0x0000000000000000       0x12 /home/louis/Documents/ps3/ps3toolchain/bin/ppu/lib/gcc/powerpc64-ps3-elf/7.2.0/../../../../powerpc64-ps3-elf/lib/libm.a(lib_a-sf_floor.o)
 .comment       0x0000000000000000       0x12 /home/louis/Documents/ps3/ps3toolchain/bin/ppu/lib/gcc/powerpc64-ps3-elf/7.2.0/../../../../powerpc64-ps3-elf/lib/libm.a(lib_a-sf_frexp.o)
 .comment       0x0000000000000000       0x12 /home/louis/Documents/ps3/ps3toolchain/bin/ppu/lib/gcc/powerpc64-ps3-elf/7.2.0/../../../../powerpc64-ps3-elf/lib/libm.a(lib_a-sf_ispos.o)
 .comment       0x0000000000000000       0x12 /home/louis/Documents/ps3/ps3toolchain/bin/ppu/lib/gcc/powerpc64-ps3-elf/7.2.0/../../../../powerpc64-ps3-elf/lib/libm.a(lib_a-sf_ldexp.o)
 .comment       0x0000000000000000       0x12 /home/louis/Documents/ps3/ps3toolchain/bin/ppu/lib/gcc/powerpc64-ps3-elf/7.2.0/../../../../powerpc64-ps3-elf/lib/libm.a(lib_a-sf_modf.o)
 .comment       0x0000000000000000       0x12 /home/louis/Documents/ps3/ps3toolchain/bin/ppu/lib/gcc/powerpc64-ps3-elf/7.2.0/../../../../powerpc64-ps3-elf/lib/libm.a(lib_a-sf_numtest.o)
 .comment       0x0000000000000000       0x12 /home/louis/Documents/ps3/ps3toolchain/bin/ppu/lib/gcc/powerpc64-ps3-elf/7.2.0/../../../../powerpc64-ps3-elf/lib/libm.a(lib_a-s_frexp.o)
 .comment       0x0000000000000000       0x12 /home/louis/Documents/ps3/ps3toolchain/bin/ppu/lib/gcc/powerpc64-ps3-elf/7.2.0/../../../../powerpc64-ps3-elf/lib/libm.a(lib_a-s_ispos.o)
 .comment       0x0000000000000000       0x12 /home/louis/Documents/ps3/ps3toolchain/bin/ppu/lib/gcc/powerpc64-ps3-elf/7.2.0/../../../../powerpc64-ps3-elf/lib/libm.a(lib_a-s_ldexp.o)
 .comment       0x0000000000000000       0x12 /home/louis/Documents/ps3/ps3toolchain/bin/ppu/lib/gcc/powerpc64-ps3-elf/7.2.0/../../../../powerpc64-ps3-elf/lib/libm.a(lib_a-s_numtest.o)
 .comment       0x0000000000000000       0x12 /home/louis/Documents/ps3/ps3toolchain/bin/ppu/lib/gcc/powerpc64-ps3-elf/7.2.0/../../../../powerpc64-ps3-elf/lib/libsysbase.a(syscalls.o)
 .comment       0x0000000000000000       0x12 /home/louis/Documents/ps3/ps3toolchain/bin/ppu/lib/gcc/powerpc64-ps3-elf/7.2.0/../../../../powerpc64-ps3-elf/lib/libsysbase.a(sleep.o)
 .comment       0x0000000000000000       0x12 /home/louis/Documents/ps3/ps3toolchain/bin/ppu/lib/gcc/powerpc64-ps3-elf/7.2.0/../../../../powerpc64-ps3-elf/lib/libc.a(lib_a-atexit.o)
 .comment       0x0000000000000000       0x12 /home/louis/Documents/ps3/ps3toolchain/bin/ppu/lib/gcc/powerpc64-ps3-elf/7.2.0/../../../../powerpc64-ps3-elf/lib/libc.a(lib_a-calloc.o)
 .comment       0x0000000000000000       0x12 /home/louis/Documents/ps3/ps3toolchain/bin/ppu/lib/gcc/powerpc64-ps3-elf/7.2.0/../../../../powerpc64-ps3-elf/lib/libc.a(lib_a-callocr.o)
 .comment       0x0000000000000000       0x12 /home/louis/Documents/ps3/ps3toolchain/bin/ppu/lib/gcc/powerpc64-ps3-elf/7.2.0/../../../../powerpc64-ps3-elf/lib/libc.a(lib_a-errno.o)
 .comment       0x0000000000000000       0x12 /home/louis/Documents/ps3/ps3toolchain/bin/ppu/lib/gcc/powerpc64-ps3-elf/7.2.0/../../../../powerpc64-ps3-elf/lib/libc.a(lib_a-exit.o)
 .comment       0x0000000000000000       0x12 /home/louis/Documents/ps3/ps3toolchain/bin/ppu/lib/gcc/powerpc64-ps3-elf/7.2.0/../../../../powerpc64-ps3-elf/lib/libc.a(lib_a-fprintf.o)
 .comment       0x0000000000000000       0x12 /home/louis/Documents/ps3/ps3toolchain/bin/ppu/lib/gcc/powerpc64-ps3-elf/7.2.0/../../../../powerpc64-ps3-elf/lib/libc.a(lib_a-getreent.o)
 .comment       0x0000000000000000       0x12 /home/louis/Documents/ps3/ps3toolchain/bin/ppu/lib/gcc/powerpc64-ps3-elf/7.2.0/../../../../powerpc64-ps3-elf/lib/libc.a(lib_a-impure.o)
 .comment       0x0000000000000000       0x12 /home/louis/Documents/ps3/ps3toolchain/bin/ppu/lib/gcc/powerpc64-ps3-elf/7.2.0/../../../../powerpc64-ps3-elf/lib/libc.a(lib_a-malign.o)
 .comment       0x0000000000000000       0x12 /home/louis/Documents/ps3/ps3toolchain/bin/ppu/lib/gcc/powerpc64-ps3-elf/7.2.0/../../../../powerpc64-ps3-elf/lib/libc.a(lib_a-malignr.o)
 .comment       0x0000000000000000       0x12 /home/louis/Documents/ps3/ps3toolchain/bin/ppu/lib/gcc/powerpc64-ps3-elf/7.2.0/../../../../powerpc64-ps3-elf/lib/libc.a(lib_a-malloc.o)
 .comment       0x0000000000000000       0x12 /home/louis/Documents/ps3/ps3toolchain/bin/ppu/lib/gcc/powerpc64-ps3-elf/7.2.0/../../../../powerpc64-ps3-elf/lib/libc.a(lib_a-mallocr.o)
 .comment       0x0000000000000000       0x12 /home/louis/Documents/ps3/ps3toolchain/bin/ppu/lib/gcc/powerpc64-ps3-elf/7.2.0/../../../../powerpc64-ps3-elf/lib/libc.a(lib_a-memcpy.o)
 .comment       0x0000000000000000       0x12 /home/louis/Documents/ps3/ps3toolchain/bin/ppu/lib/gcc/powerpc64-ps3-elf/7.2.0/../../../../powerpc64-ps3-elf/lib/libc.a(lib_a-memset.o)
 .comment       0x0000000000000000       0x12 /home/louis/Documents/ps3/ps3toolchain/bin/ppu/lib/gcc/powerpc64-ps3-elf/7.2.0/../../../../powerpc64-ps3-elf/lib/libc.a(lib_a-mlock.o)
 .comment       0x0000000000000000       0x12 /home/louis/Documents/ps3/ps3toolchain/bin/ppu/lib/gcc/powerpc64-ps3-elf/7.2.0/../../../../powerpc64-ps3-elf/lib/libc.a(lib_a-perror.o)
 .comment       0x0000000000000000       0x12 /home/louis/Documents/ps3/ps3toolchain/bin/ppu/lib/gcc/powerpc64-ps3-elf/7.2.0/../../../../powerpc64-ps3-elf/lib/libc.a(lib_a-realloc.o)
 .comment       0x0000000000000000       0x12 /home/louis/Documents/ps3/ps3toolchain/bin/ppu/lib/gcc/powerpc64-ps3-elf/7.2.0/../../../../powerpc64-ps3-elf/lib/libc.a(lib_a-reallocr.o)
 .comment       0x0000000000000000       0x12 /home/louis/Documents/ps3/ps3toolchain/bin/ppu/lib/gcc/powerpc64-ps3-elf/7.2.0/../../../../powerpc64-ps3-elf/lib/libc.a(lib_a-sscanf.o)
 .comment       0x0000000000000000       0x12 /home/louis/Documents/ps3/ps3toolchain/bin/ppu/lib/gcc/powerpc64-ps3-elf/7.2.0/../../../../powerpc64-ps3-elf/lib/libc.a(lib_a-stdio.o)
 .comment       0x0000000000000000       0x12 /home/louis/Documents/ps3/ps3toolchain/bin/ppu/lib/gcc/powerpc64-ps3-elf/7.2.0/../../../../powerpc64-ps3-elf/lib/libc.a(lib_a-strcasecmp.o)
 .comment       0x0000000000000000       0x12 /home/louis/Documents/ps3/ps3toolchain/bin/ppu/lib/gcc/powerpc64-ps3-elf/7.2.0/../../../../powerpc64-ps3-elf/lib/libc.a(lib_a-strchr.o)
 .comment       0x0000000000000000       0x12 /home/louis/Documents/ps3/ps3toolchain/bin/ppu/lib/gcc/powerpc64-ps3-elf/7.2.0/../../../../powerpc64-ps3-elf/lib/libc.a(lib_a-strcpy.o)
 .comment       0x0000000000000000       0x12 /home/louis/Documents/ps3/ps3toolchain/bin/ppu/lib/gcc/powerpc64-ps3-elf/7.2.0/../../../../powerpc64-ps3-elf/lib/libc.a(lib_a-strdup.o)
 .comment       0x0000000000000000       0x12 /home/louis/Documents/ps3/ps3toolchain/bin/ppu/lib/gcc/powerpc64-ps3-elf/7.2.0/../../../../powerpc64-ps3-elf/lib/libc.a(lib_a-strdup_r.o)
 .comment       0x0000000000000000       0x12 /home/louis/Documents/ps3/ps3toolchain/bin/ppu/lib/gcc/powerpc64-ps3-elf/7.2.0/../../../../powerpc64-ps3-elf/lib/libc.a(lib_a-strerror.o)
 .comment       0x0000000000000000       0x12 /home/louis/Documents/ps3/ps3toolchain/bin/ppu/lib/gcc/powerpc64-ps3-elf/7.2.0/../../../../powerpc64-ps3-elf/lib/libc.a(lib_a-strlen.o)
 .comment       0x0000000000000000       0x12 /home/louis/Documents/ps3/ps3toolchain/bin/ppu/lib/gcc/powerpc64-ps3-elf/7.2.0/../../../../powerpc64-ps3-elf/lib/libc.a(lib_a-strncat.o)
 .comment       0x0000000000000000       0x12 /home/louis/Documents/ps3/ps3toolchain/bin/ppu/lib/gcc/powerpc64-ps3-elf/7.2.0/../../../../powerpc64-ps3-elf/lib/libc.a(lib_a-strncpy.o)
 .comment       0x0000000000000000       0x12 /home/louis/Documents/ps3/ps3toolchain/bin/ppu/lib/gcc/powerpc64-ps3-elf/7.2.0/../../../../powerpc64-ps3-elf/lib/libc.a(lib_a-svfscanf.o)
 .comment       0x0000000000000000       0x12 /home/louis/Documents/ps3/ps3toolchain/bin/ppu/lib/gcc/powerpc64-ps3-elf/7.2.0/../../../../powerpc64-ps3-elf/lib/libc.a(lib_a-time.o)
 .comment       0x0000000000000000       0x12 /home/louis/Documents/ps3/ps3toolchain/bin/ppu/lib/gcc/powerpc64-ps3-elf/7.2.0/../../../../powerpc64-ps3-elf/lib/libc.a(lib_a-u_strerr.o)
 .comment       0x0000000000000000       0x12 /home/louis/Documents/ps3/ps3toolchain/bin/ppu/lib/gcc/powerpc64-ps3-elf/7.2.0/../../../../powerpc64-ps3-elf/lib/libc.a(lib_a-vfprintf.o)
 .comment       0x0000000000000000       0x12 /home/louis/Documents/ps3/ps3toolchain/bin/ppu/lib/gcc/powerpc64-ps3-elf/7.2.0/../../../../powerpc64-ps3-elf/lib/libc.a(lib_a-wsetup.o)
 .comment       0x0000000000000000       0x12 /home/louis/Documents/ps3/ps3toolchain/bin/ppu/lib/gcc/powerpc64-ps3-elf/7.2.0/../../../../powerpc64-ps3-elf/lib/libc.a(lib_a-__atexit.o)
 .comment       0x0000000000000000       0x12 /home/louis/Documents/ps3/ps3toolchain/bin/ppu/lib/gcc/powerpc64-ps3-elf/7.2.0/../../../../powerpc64-ps3-elf/lib/libc.a(lib_a-__call_atexit.o)
 .comment       0x0000000000000000       0x12 /home/louis/Documents/ps3/ps3toolchain/bin/ppu/lib/gcc/powerpc64-ps3-elf/7.2.0/../../../../powerpc64-ps3-elf/lib/libc.a(lib_a-ctype_.o)
 .comment       0x0000000000000000       0x12 /home/louis/Documents/ps3/ps3toolchain/bin/ppu/lib/gcc/powerpc64-ps3-elf/7.2.0/../../../../powerpc64-ps3-elf/lib/libc.a(lib_a-dtoa.o)
 .comment       0x0000000000000000       0x12 /home/louis/Documents/ps3/ps3toolchain/bin/ppu/lib/gcc/powerpc64-ps3-elf/7.2.0/../../../../powerpc64-ps3-elf/lib/libc.a(lib_a-fflush.o)
 .comment       0x0000000000000000       0x12 /home/louis/Documents/ps3/ps3toolchain/bin/ppu/lib/gcc/powerpc64-ps3-elf/7.2.0/../../../../powerpc64-ps3-elf/lib/libc.a(lib_a-findfp.o)
 .comment       0x0000000000000000       0x12 /home/louis/Documents/ps3/ps3toolchain/bin/ppu/lib/gcc/powerpc64-ps3-elf/7.2.0/../../../../powerpc64-ps3-elf/lib/libc.a(lib_a-fputc.o)
 .comment       0x0000000000000000       0x12 /home/louis/Documents/ps3/ps3toolchain/bin/ppu/lib/gcc/powerpc64-ps3-elf/7.2.0/../../../../powerpc64-ps3-elf/lib/libc.a(lib_a-fputs.o)
 .comment       0x0000000000000000       0x12 /home/louis/Documents/ps3/ps3toolchain/bin/ppu/lib/gcc/powerpc64-ps3-elf/7.2.0/../../../../powerpc64-ps3-elf/lib/libc.a(lib_a-freer.o)
 .comment       0x0000000000000000       0x12 /home/louis/Documents/ps3/ps3toolchain/bin/ppu/lib/gcc/powerpc64-ps3-elf/7.2.0/../../../../powerpc64-ps3-elf/lib/libc.a(lib_a-fvwrite.o)
 .comment       0x0000000000000000       0x12 /home/louis/Documents/ps3/ps3toolchain/bin/ppu/lib/gcc/powerpc64-ps3-elf/7.2.0/../../../../powerpc64-ps3-elf/lib/libc.a(lib_a-fwalk.o)
 .comment       0x0000000000000000       0x12 /home/louis/Documents/ps3/ps3toolchain/bin/ppu/lib/gcc/powerpc64-ps3-elf/7.2.0/../../../../powerpc64-ps3-elf/lib/libc.a(lib_a-iswspace.o)
 .comment       0x0000000000000000       0x12 /home/louis/Documents/ps3/ps3toolchain/bin/ppu/lib/gcc/powerpc64-ps3-elf/7.2.0/../../../../powerpc64-ps3-elf/lib/libc.a(lib_a-locale.o)
 .comment       0x0000000000000000       0x12 /home/louis/Documents/ps3/ps3toolchain/bin/ppu/lib/gcc/powerpc64-ps3-elf/7.2.0/../../../../powerpc64-ps3-elf/lib/libc.a(lib_a-lock_recursive.o)
 .comment       0x0000000000000000       0x12 /home/louis/Documents/ps3/ps3toolchain/bin/ppu/lib/gcc/powerpc64-ps3-elf/7.2.0/../../../../powerpc64-ps3-elf/lib/libc.a(lib_a-makebuf.o)
 .comment       0x0000000000000000       0x12 /home/louis/Documents/ps3/ps3toolchain/bin/ppu/lib/gcc/powerpc64-ps3-elf/7.2.0/../../../../powerpc64-ps3-elf/lib/libc.a(lib_a-mbrtowc.o)
 .comment       0x0000000000000000       0x12 /home/louis/Documents/ps3/ps3toolchain/bin/ppu/lib/gcc/powerpc64-ps3-elf/7.2.0/../../../../powerpc64-ps3-elf/lib/libc.a(lib_a-mbtowc_r.o)
 .comment       0x0000000000000000       0x12 /home/louis/Documents/ps3/ps3toolchain/bin/ppu/lib/gcc/powerpc64-ps3-elf/7.2.0/../../../../powerpc64-ps3-elf/lib/libc.a(lib_a-memchr.o)
 .comment       0x0000000000000000       0x12 /home/louis/Documents/ps3/ps3toolchain/bin/ppu/lib/gcc/powerpc64-ps3-elf/7.2.0/../../../../powerpc64-ps3-elf/lib/libc.a(lib_a-memmove.o)
 .comment       0x0000000000000000       0x12 /home/louis/Documents/ps3/ps3toolchain/bin/ppu/lib/gcc/powerpc64-ps3-elf/7.2.0/../../../../powerpc64-ps3-elf/lib/libc.a(lib_a-mprec.o)
 .comment       0x0000000000000000       0x12 /home/louis/Documents/ps3/ps3toolchain/bin/ppu/lib/gcc/powerpc64-ps3-elf/7.2.0/../../../../powerpc64-ps3-elf/lib/libc.a(lib_a-putc.o)
 .comment       0x0000000000000000       0x12 /home/louis/Documents/ps3/ps3toolchain/bin/ppu/lib/gcc/powerpc64-ps3-elf/7.2.0/../../../../powerpc64-ps3-elf/lib/libc.a(lib_a-sccl.o)
 .comment       0x0000000000000000       0x12 /home/louis/Documents/ps3/ps3toolchain/bin/ppu/lib/gcc/powerpc64-ps3-elf/7.2.0/../../../../powerpc64-ps3-elf/lib/libc.a(lib_a-sf_nan.o)
 .comment       0x0000000000000000       0x12 /home/louis/Documents/ps3/ps3toolchain/bin/ppu/lib/gcc/powerpc64-ps3-elf/7.2.0/../../../../powerpc64-ps3-elf/lib/libc.a(lib_a-s_fpclassify.o)
 .comment       0x0000000000000000       0x12 /home/louis/Documents/ps3/ps3toolchain/bin/ppu/lib/gcc/powerpc64-ps3-elf/7.2.0/../../../../powerpc64-ps3-elf/lib/libc.a(lib_a-sprintf.o)
 .comment       0x0000000000000000       0x12 /home/louis/Documents/ps3/ps3toolchain/bin/ppu/lib/gcc/powerpc64-ps3-elf/7.2.0/../../../../powerpc64-ps3-elf/lib/libc.a(lib_a-strcmp.o)
 .comment       0x0000000000000000       0x12 /home/louis/Documents/ps3/ps3toolchain/bin/ppu/lib/gcc/powerpc64-ps3-elf/7.2.0/../../../../powerpc64-ps3-elf/lib/libc.a(lib_a-strtod.o)
 .comment       0x0000000000000000       0x12 /home/louis/Documents/ps3/ps3toolchain/bin/ppu/lib/gcc/powerpc64-ps3-elf/7.2.0/../../../../powerpc64-ps3-elf/lib/libc.a(lib_a-strtoll_r.o)
 .comment       0x0000000000000000       0x12 /home/louis/Documents/ps3/ps3toolchain/bin/ppu/lib/gcc/powerpc64-ps3-elf/7.2.0/../../../../powerpc64-ps3-elf/lib/libc.a(lib_a-strtol.o)
 .comment       0x0000000000000000       0x12 /home/louis/Documents/ps3/ps3toolchain/bin/ppu/lib/gcc/powerpc64-ps3-elf/7.2.0/../../../../powerpc64-ps3-elf/lib/libc.a(lib_a-strtoull_r.o)
 .comment       0x0000000000000000       0x12 /home/louis/Documents/ps3/ps3toolchain/bin/ppu/lib/gcc/powerpc64-ps3-elf/7.2.0/../../../../powerpc64-ps3-elf/lib/libc.a(lib_a-strtoul.o)
 .comment       0x0000000000000000       0x12 /home/louis/Documents/ps3/ps3toolchain/bin/ppu/lib/gcc/powerpc64-ps3-elf/7.2.0/../../../../powerpc64-ps3-elf/lib/libc.a(lib_a-svfiscanf.o)
 .comment       0x0000000000000000       0x12 /home/louis/Documents/ps3/ps3toolchain/bin/ppu/lib/gcc/powerpc64-ps3-elf/7.2.0/../../../../powerpc64-ps3-elf/lib/libc.a(lib_a-svfprintf.o)
 .comment       0x0000000000000000       0x12 /home/louis/Documents/ps3/ps3toolchain/bin/ppu/lib/gcc/powerpc64-ps3-elf/7.2.0/../../../../powerpc64-ps3-elf/lib/libc.a(lib_a-ungetc.o)
 .comment       0x0000000000000000       0x12 /home/louis/Documents/ps3/ps3toolchain/bin/ppu/lib/gcc/powerpc64-ps3-elf/7.2.0/../../../../powerpc64-ps3-elf/lib/libc.a(lib_a-vfiprintf.o)
 .comment       0x0000000000000000       0x12 /home/louis/Documents/ps3/ps3toolchain/bin/ppu/lib/gcc/powerpc64-ps3-elf/7.2.0/../../../../powerpc64-ps3-elf/lib/libc.a(lib_a-wbuf.o)
 .comment       0x0000000000000000       0x12 /home/louis/Documents/ps3/ps3toolchain/bin/ppu/lib/gcc/powerpc64-ps3-elf/7.2.0/../../../../powerpc64-ps3-elf/lib/libc.a(lib_a-fclose.o)
 .comment       0x0000000000000000       0x12 /home/louis/Documents/ps3/ps3toolchain/bin/ppu/lib/gcc/powerpc64-ps3-elf/7.2.0/../../../../powerpc64-ps3-elf/lib/libc.a(lib_a-fputwc.o)
 .comment       0x0000000000000000       0x12 /home/louis/Documents/ps3/ps3toolchain/bin/ppu/lib/gcc/powerpc64-ps3-elf/7.2.0/../../../../powerpc64-ps3-elf/lib/libc.a(lib_a-gdtoa-gethex.o)
 .comment       0x0000000000000000       0x12 /home/louis/Documents/ps3/ps3toolchain/bin/ppu/lib/gcc/powerpc64-ps3-elf/7.2.0/../../../../powerpc64-ps3-elf/lib/libc.a(lib_a-gdtoa-hexnan.o)
 .comment       0x0000000000000000       0x12 /home/louis/Documents/ps3/ps3toolchain/bin/ppu/lib/gcc/powerpc64-ps3-elf/7.2.0/../../../../powerpc64-ps3-elf/lib/libc.a(lib_a-lock_internal.o)
 .comment       0x0000000000000000       0x12 /home/louis/Documents/ps3/ps3toolchain/bin/ppu/lib/gcc/powerpc64-ps3-elf/7.2.0/../../../../powerpc64-ps3-elf/lib/libc.a(lib_a-strncmp.o)
 .comment       0x0000000000000000       0x12 /home/louis/Documents/ps3/ps3toolchain/bin/ppu/lib/gcc/powerpc64-ps3-elf/7.2.0/../../../../powerpc64-ps3-elf/lib/libc.a(lib_a-svfiprintf.o)
 .comment       0x0000000000000000       0x12 /home/louis/Documents/ps3/ps3toolchain/bin/ppu/lib/gcc/powerpc64-ps3-elf/7.2.0/../../../../powerpc64-ps3-elf/lib/libc.a(lib_a-wcrtomb.o)
 .comment       0x0000000000000000       0x12 /home/louis/Documents/ps3/ps3toolchain/bin/ppu/lib/gcc/powerpc64-ps3-elf/7.2.0/../../../../powerpc64-ps3-elf/lib/libc.a(lib_a-wctomb_r.o)
 .comment       0x0000000000000000       0x12 /home/louis/Documents/ps3/ps3toolchain/bin/ppu/lib/gcc/powerpc64-ps3-elf/7.2.0/../../../../powerpc64-ps3-elf/lib/libc.a(lib_a-abort.o)
 .comment       0x0000000000000000       0x12 /home/louis/Documents/ps3/ps3toolchain/bin/ppu/lib/gcc/powerpc64-ps3-elf/7.2.0/../../../../powerpc64-ps3-elf/lib/libc.a(lib_a-signal.o)
 .comment       0x0000000000000000       0x12 /home/louis/Documents/ps3/ps3toolchain/bin/ppu/lib/gcc/powerpc64-ps3-elf/7.2.0/../../../../powerpc64-ps3-elf/lib/libsysbase.a(close.o)
 .comment       0x0000000000000000       0x12 /home/louis/Documents/ps3/ps3toolchain/bin/ppu/lib/gcc/powerpc64-ps3-elf/7.2.0/../../../../powerpc64-ps3-elf/lib/libsysbase.a(sbrk.o)
 .comment       0x0000000000000000       0x12 /home/louis/Documents/ps3/ps3toolchain/bin/ppu/lib/gcc/powerpc64-ps3-elf/7.2.0/../../../../powerpc64-ps3-elf/lib/libsysbase.a(_exit.o)
 .comment       0x0000000000000000       0x12 /home/louis/Documents/ps3/ps3toolchain/bin/ppu/lib/gcc/powerpc64-ps3-elf/7.2.0/../../../../powerpc64-ps3-elf/lib/libsysbase.a(fstat.o)
 .comment       0x0000000000000000       0x12 /home/louis/Documents/ps3/ps3toolchain/bin/ppu/lib/gcc/powerpc64-ps3-elf/7.2.0/../../../../powerpc64-ps3-elf/lib/libsysbase.a(isatty.o)
 .comment       0x0000000000000000       0x12 /home/louis/Documents/ps3/ps3toolchain/bin/ppu/lib/gcc/powerpc64-ps3-elf/7.2.0/../../../../powerpc64-ps3-elf/lib/libsysbase.a(lseek.o)
 .comment       0x0000000000000000       0x12 /home/louis/Documents/ps3/ps3toolchain/bin/ppu/lib/gcc/powerpc64-ps3-elf/7.2.0/../../../../powerpc64-ps3-elf/lib/libsysbase.a(read.o)
 .comment       0x0000000000000000       0x12 /home/louis/Documents/ps3/ps3toolchain/bin/ppu/lib/gcc/powerpc64-ps3-elf/7.2.0/../../../../powerpc64-ps3-elf/lib/libsysbase.a(write.o)
 .comment       0x0000000000000000       0x12 /home/louis/Documents/ps3/ps3toolchain/bin/ppu/lib/gcc/powerpc64-ps3-elf/7.2.0/../../../../powerpc64-ps3-elf/lib/libsysbase.a(lock.o)
 .comment       0x0000000000000000       0x12 /home/louis/Documents/ps3/ps3toolchain/bin/ppu/lib/gcc/powerpc64-ps3-elf/7.2.0/../../../../powerpc64-ps3-elf/lib/libsysbase.a(getpid.o)
 .comment       0x0000000000000000       0x12 /home/louis/Documents/ps3/ps3toolchain/bin/ppu/lib/gcc/powerpc64-ps3-elf/7.2.0/../../../../powerpc64-ps3-elf/lib/libsysbase.a(kill.o)
 .comment       0x0000000000000000       0x12 /home/louis/Documents/ps3/ps3toolchain/bin/ppu/lib/gcc/powerpc64-ps3-elf/7.2.0/../../../../powerpc64-ps3-elf/lib/libsysbase.a(gettod.o)
 .comment       0x0000000000000000       0x12 /home/louis/Documents/ps3/ps3toolchain/bin/ppu/lib/gcc/powerpc64-ps3-elf/7.2.0/crtend.o

.debug
 *(.debug)

.line
 *(.line)

.debug_srcinfo
 *(.debug_srcinfo)

.debug_sfnames
 *(.debug_sfnames)

.debug_aranges  0x0000000000000000     0x1b10
 *(.debug_aranges)
 .debug_aranges
                0x0000000000000000       0x30 /home/louis/Documents/ps3/ps3toolchain/bin/ppu/lib/gcc/powerpc64-ps3-elf/7.2.0/../../../../powerpc64-ps3-elf/lib/libm.a(lib_a-sf_cos.o)
 .debug_aranges
                0x0000000000000030       0x30 /home/louis/Documents/ps3/ps3toolchain/bin/ppu/lib/gcc/powerpc64-ps3-elf/7.2.0/../../../../powerpc64-ps3-elf/lib/libm.a(lib_a-sf_sine.o)
 .debug_aranges
                0x0000000000000060       0x30 /home/louis/Documents/ps3/ps3toolchain/bin/ppu/lib/gcc/powerpc64-ps3-elf/7.2.0/../../../../powerpc64-ps3-elf/lib/libm.a(lib_a-sf_sin.o)
 .debug_aranges
                0x0000000000000090       0x30 /home/louis/Documents/ps3/ps3toolchain/bin/ppu/lib/gcc/powerpc64-ps3-elf/7.2.0/../../../../powerpc64-ps3-elf/lib/libm.a(lib_a-sf_sqrt.o)
 .debug_aranges
                0x00000000000000c0       0x30 /home/louis/Documents/ps3/ps3toolchain/bin/ppu/lib/gcc/powerpc64-ps3-elf/7.2.0/../../../../powerpc64-ps3-elf/lib/libm.a(lib_a-sf_tan.o)
 .debug_aranges
                0x00000000000000f0       0x20 /home/louis/Documents/ps3/ps3toolchain/bin/ppu/lib/gcc/powerpc64-ps3-elf/7.2.0/../../../../powerpc64-ps3-elf/lib/libm.a(lib_a-s_mathcnst.o)
 .debug_aranges
                0x0000000000000110       0x30 /home/louis/Documents/ps3/ps3toolchain/bin/ppu/lib/gcc/powerpc64-ps3-elf/7.2.0/../../../../powerpc64-ps3-elf/lib/libm.a(lib_a-s_sqrt.o)
 .debug_aranges
                0x0000000000000140       0x30 /home/louis/Documents/ps3/ps3toolchain/bin/ppu/lib/gcc/powerpc64-ps3-elf/7.2.0/../../../../powerpc64-ps3-elf/lib/libm.a(lib_a-sf_fabs.o)
 .debug_aranges
                0x0000000000000170       0x30 /home/louis/Documents/ps3/ps3toolchain/bin/ppu/lib/gcc/powerpc64-ps3-elf/7.2.0/../../../../powerpc64-ps3-elf/lib/libm.a(lib_a-sf_floor.o)
 .debug_aranges
                0x00000000000001a0       0x30 /home/louis/Documents/ps3/ps3toolchain/bin/ppu/lib/gcc/powerpc64-ps3-elf/7.2.0/../../../../powerpc64-ps3-elf/lib/libm.a(lib_a-sf_frexp.o)
 .debug_aranges
                0x00000000000001d0       0x30 /home/louis/Documents/ps3/ps3toolchain/bin/ppu/lib/gcc/powerpc64-ps3-elf/7.2.0/../../../../powerpc64-ps3-elf/lib/libm.a(lib_a-sf_ispos.o)
 .debug_aranges
                0x0000000000000200       0x30 /home/louis/Documents/ps3/ps3toolchain/bin/ppu/lib/gcc/powerpc64-ps3-elf/7.2.0/../../../../powerpc64-ps3-elf/lib/libm.a(lib_a-sf_ldexp.o)
 .debug_aranges
                0x0000000000000230       0x30 /home/louis/Documents/ps3/ps3toolchain/bin/ppu/lib/gcc/powerpc64-ps3-elf/7.2.0/../../../../powerpc64-ps3-elf/lib/libm.a(lib_a-sf_modf.o)
 .debug_aranges
                0x0000000000000260       0x30 /home/louis/Documents/ps3/ps3toolchain/bin/ppu/lib/gcc/powerpc64-ps3-elf/7.2.0/../../../../powerpc64-ps3-elf/lib/libm.a(lib_a-sf_numtest.o)
 .debug_aranges
                0x0000000000000290       0x30 /home/louis/Documents/ps3/ps3toolchain/bin/ppu/lib/gcc/powerpc64-ps3-elf/7.2.0/../../../../powerpc64-ps3-elf/lib/libm.a(lib_a-s_frexp.o)
 .debug_aranges
                0x00000000000002c0       0x30 /home/louis/Documents/ps3/ps3toolchain/bin/ppu/lib/gcc/powerpc64-ps3-elf/7.2.0/../../../../powerpc64-ps3-elf/lib/libm.a(lib_a-s_ispos.o)
 .debug_aranges
                0x00000000000002f0       0x30 /home/louis/Documents/ps3/ps3toolchain/bin/ppu/lib/gcc/powerpc64-ps3-elf/7.2.0/../../../../powerpc64-ps3-elf/lib/libm.a(lib_a-s_ldexp.o)
 .debug_aranges
                0x0000000000000320       0x30 /home/louis/Documents/ps3/ps3toolchain/bin/ppu/lib/gcc/powerpc64-ps3-elf/7.2.0/../../../../powerpc64-ps3-elf/lib/libm.a(lib_a-s_numtest.o)
 .debug_aranges
                0x0000000000000350       0x20 /home/louis/Documents/ps3/ps3toolchain/bin/ppu/lib/gcc/powerpc64-ps3-elf/7.2.0/../../../../powerpc64-ps3-elf/lib/libsysbase.a(syscalls.o)
 .debug_aranges
                0x0000000000000370       0x40 /home/louis/Documents/ps3/ps3toolchain/bin/ppu/lib/gcc/powerpc64-ps3-elf/7.2.0/../../../../powerpc64-ps3-elf/lib/libsysbase.a(sleep.o)
 .debug_aranges
                0x00000000000003b0       0x30 /home/louis/Documents/ps3/ps3toolchain/bin/ppu/lib/gcc/powerpc64-ps3-elf/7.2.0/../../../../powerpc64-ps3-elf/lib/libc.a(lib_a-atexit.o)
 .debug_aranges
                0x00000000000003e0       0x30 /home/louis/Documents/ps3/ps3toolchain/bin/ppu/lib/gcc/powerpc64-ps3-elf/7.2.0/../../../../powerpc64-ps3-elf/lib/libc.a(lib_a-calloc.o)
 .debug_aranges
                0x0000000000000410       0x30 /home/louis/Documents/ps3/ps3toolchain/bin/ppu/lib/gcc/powerpc64-ps3-elf/7.2.0/../../../../powerpc64-ps3-elf/lib/libc.a(lib_a-callocr.o)
 .debug_aranges
                0x0000000000000440       0x30 /home/louis/Documents/ps3/ps3toolchain/bin/ppu/lib/gcc/powerpc64-ps3-elf/7.2.0/../../../../powerpc64-ps3-elf/lib/libc.a(lib_a-errno.o)
 .debug_aranges
                0x0000000000000470       0x30 /home/louis/Documents/ps3/ps3toolchain/bin/ppu/lib/gcc/powerpc64-ps3-elf/7.2.0/../../../../powerpc64-ps3-elf/lib/libc.a(lib_a-exit.o)
 .debug_aranges
                0x00000000000004a0       0x40 /home/louis/Documents/ps3/ps3toolchain/bin/ppu/lib/gcc/powerpc64-ps3-elf/7.2.0/../../../../powerpc64-ps3-elf/lib/libc.a(lib_a-fprintf.o)
 .debug_aranges
                0x00000000000004e0       0x30 /home/louis/Documents/ps3/ps3toolchain/bin/ppu/lib/gcc/powerpc64-ps3-elf/7.2.0/../../../../powerpc64-ps3-elf/lib/libc.a(lib_a-getreent.o)
 .debug_aranges
                0x0000000000000510       0x20 /home/louis/Documents/ps3/ps3toolchain/bin/ppu/lib/gcc/powerpc64-ps3-elf/7.2.0/../../../../powerpc64-ps3-elf/lib/libc.a(lib_a-impure.o)
 .debug_aranges
                0x0000000000000530       0x30 /home/louis/Documents/ps3/ps3toolchain/bin/ppu/lib/gcc/powerpc64-ps3-elf/7.2.0/../../../../powerpc64-ps3-elf/lib/libc.a(lib_a-malign.o)
 .debug_aranges
                0x0000000000000560       0x30 /home/louis/Documents/ps3/ps3toolchain/bin/ppu/lib/gcc/powerpc64-ps3-elf/7.2.0/../../../../powerpc64-ps3-elf/lib/libc.a(lib_a-malignr.o)
 .debug_aranges
                0x0000000000000590       0x40 /home/louis/Documents/ps3/ps3toolchain/bin/ppu/lib/gcc/powerpc64-ps3-elf/7.2.0/../../../../powerpc64-ps3-elf/lib/libc.a(lib_a-malloc.o)
 .debug_aranges
                0x00000000000005d0       0x30 /home/louis/Documents/ps3/ps3toolchain/bin/ppu/lib/gcc/powerpc64-ps3-elf/7.2.0/../../../../powerpc64-ps3-elf/lib/libc.a(lib_a-mallocr.o)
 .debug_aranges
                0x0000000000000600       0x30 /home/louis/Documents/ps3/ps3toolchain/bin/ppu/lib/gcc/powerpc64-ps3-elf/7.2.0/../../../../powerpc64-ps3-elf/lib/libc.a(lib_a-memcpy.o)
 .debug_aranges
                0x0000000000000630       0x30 /home/louis/Documents/ps3/ps3toolchain/bin/ppu/lib/gcc/powerpc64-ps3-elf/7.2.0/../../../../powerpc64-ps3-elf/lib/libc.a(lib_a-memset.o)
 .debug_aranges
                0x0000000000000660       0x40 /home/louis/Documents/ps3/ps3toolchain/bin/ppu/lib/gcc/powerpc64-ps3-elf/7.2.0/../../../../powerpc64-ps3-elf/lib/libc.a(lib_a-mlock.o)
 .debug_aranges
                0x00000000000006a0       0x40 /home/louis/Documents/ps3/ps3toolchain/bin/ppu/lib/gcc/powerpc64-ps3-elf/7.2.0/../../../../powerpc64-ps3-elf/lib/libc.a(lib_a-perror.o)
 .debug_aranges
                0x00000000000006e0       0x30 /home/louis/Documents/ps3/ps3toolchain/bin/ppu/lib/gcc/powerpc64-ps3-elf/7.2.0/../../../../powerpc64-ps3-elf/lib/libc.a(lib_a-realloc.o)
 .debug_aranges
                0x0000000000000710       0x30 /home/louis/Documents/ps3/ps3toolchain/bin/ppu/lib/gcc/powerpc64-ps3-elf/7.2.0/../../../../powerpc64-ps3-elf/lib/libc.a(lib_a-reallocr.o)
 .debug_aranges
                0x0000000000000740       0x40 /home/louis/Documents/ps3/ps3toolchain/bin/ppu/lib/gcc/powerpc64-ps3-elf/7.2.0/../../../../powerpc64-ps3-elf/lib/libc.a(lib_a-sscanf.o)
 .debug_aranges
                0x0000000000000780       0x70 /home/louis/Documents/ps3/ps3toolchain/bin/ppu/lib/gcc/powerpc64-ps3-elf/7.2.0/../../../../powerpc64-ps3-elf/lib/libc.a(lib_a-stdio.o)
 .debug_aranges
                0x00000000000007f0       0x30 /home/louis/Documents/ps3/ps3toolchain/bin/ppu/lib/gcc/powerpc64-ps3-elf/7.2.0/../../../../powerpc64-ps3-elf/lib/libc.a(lib_a-strcasecmp.o)
 .debug_aranges
                0x0000000000000820       0x30 /home/louis/Documents/ps3/ps3toolchain/bin/ppu/lib/gcc/powerpc64-ps3-elf/7.2.0/../../../../powerpc64-ps3-elf/lib/libc.a(lib_a-strchr.o)
 .debug_aranges
                0x0000000000000850       0x30 /home/louis/Documents/ps3/ps3toolchain/bin/ppu/lib/gcc/powerpc64-ps3-elf/7.2.0/../../../../powerpc64-ps3-elf/lib/libc.a(lib_a-strcpy.o)
 .debug_aranges
                0x0000000000000880       0x30 /home/louis/Documents/ps3/ps3toolchain/bin/ppu/lib/gcc/powerpc64-ps3-elf/7.2.0/../../../../powerpc64-ps3-elf/lib/libc.a(lib_a-strdup.o)
 .debug_aranges
                0x00000000000008b0       0x30 /home/louis/Documents/ps3/ps3toolchain/bin/ppu/lib/gcc/powerpc64-ps3-elf/7.2.0/../../../../powerpc64-ps3-elf/lib/libc.a(lib_a-strdup_r.o)
 .debug_aranges
                0x00000000000008e0       0x40 /home/louis/Documents/ps3/ps3toolchain/bin/ppu/lib/gcc/powerpc64-ps3-elf/7.2.0/../../../../powerpc64-ps3-elf/lib/libc.a(lib_a-strerror.o)
 .debug_aranges
                0x0000000000000920       0x30 /home/louis/Documents/ps3/ps3toolchain/bin/ppu/lib/gcc/powerpc64-ps3-elf/7.2.0/../../../../powerpc64-ps3-elf/lib/libc.a(lib_a-strlen.o)
 .debug_aranges
                0x0000000000000950       0x30 /home/louis/Documents/ps3/ps3toolchain/bin/ppu/lib/gcc/powerpc64-ps3-elf/7.2.0/../../../../powerpc64-ps3-elf/lib/libc.a(lib_a-strncat.o)
 .debug_aranges
                0x0000000000000980       0x30 /home/louis/Documents/ps3/ps3toolchain/bin/ppu/lib/gcc/powerpc64-ps3-elf/7.2.0/../../../../powerpc64-ps3-elf/lib/libc.a(lib_a-strncpy.o)
 .debug_aranges
                0x00000000000009b0       0x30 /home/louis/Documents/ps3/ps3toolchain/bin/ppu/lib/gcc/powerpc64-ps3-elf/7.2.0/../../../../powerpc64-ps3-elf/lib/libc.a(lib_a-svfscanf.o)
 .debug_aranges
                0x00000000000009e0       0x30 /home/louis/Documents/ps3/ps3toolchain/bin/ppu/lib/gcc/powerpc64-ps3-elf/7.2.0/../../../../powerpc64-ps3-elf/lib/libc.a(lib_a-time.o)
 .debug_aranges
                0x0000000000000a10       0x30 /home/louis/Documents/ps3/ps3toolchain/bin/ppu/lib/gcc/powerpc64-ps3-elf/7.2.0/../../../../powerpc64-ps3-elf/lib/libc.a(lib_a-u_strerr.o)
 .debug_aranges
                0x0000000000000a40       0x40 /home/louis/Documents/ps3/ps3toolchain/bin/ppu/lib/gcc/powerpc64-ps3-elf/7.2.0/../../../../powerpc64-ps3-elf/lib/libc.a(lib_a-vfprintf.o)
 .debug_aranges
                0x0000000000000a80       0x30 /home/louis/Documents/ps3/ps3toolchain/bin/ppu/lib/gcc/powerpc64-ps3-elf/7.2.0/../../../../powerpc64-ps3-elf/lib/libc.a(lib_a-wsetup.o)
 .debug_aranges
                0x0000000000000ab0       0x30 /home/louis/Documents/ps3/ps3toolchain/bin/ppu/lib/gcc/powerpc64-ps3-elf/7.2.0/../../../../powerpc64-ps3-elf/lib/libc.a(lib_a-__atexit.o)
 .debug_aranges
                0x0000000000000ae0       0x30 /home/louis/Documents/ps3/ps3toolchain/bin/ppu/lib/gcc/powerpc64-ps3-elf/7.2.0/../../../../powerpc64-ps3-elf/lib/libc.a(lib_a-__call_atexit.o)
 .debug_aranges
                0x0000000000000b10       0x20 /home/louis/Documents/ps3/ps3toolchain/bin/ppu/lib/gcc/powerpc64-ps3-elf/7.2.0/../../../../powerpc64-ps3-elf/lib/libc.a(lib_a-ctype_.o)
 .debug_aranges
                0x0000000000000b30       0x40 /home/louis/Documents/ps3/ps3toolchain/bin/ppu/lib/gcc/powerpc64-ps3-elf/7.2.0/../../../../powerpc64-ps3-elf/lib/libc.a(lib_a-dtoa.o)
 .debug_aranges
                0x0000000000000b70       0x50 /home/louis/Documents/ps3/ps3toolchain/bin/ppu/lib/gcc/powerpc64-ps3-elf/7.2.0/../../../../powerpc64-ps3-elf/lib/libc.a(lib_a-fflush.o)
 .debug_aranges
                0x0000000000000bc0      0x100 /home/louis/Documents/ps3/ps3toolchain/bin/ppu/lib/gcc/powerpc64-ps3-elf/7.2.0/../../../../powerpc64-ps3-elf/lib/libc.a(lib_a-findfp.o)
 .debug_aranges
                0x0000000000000cc0       0x40 /home/louis/Documents/ps3/ps3toolchain/bin/ppu/lib/gcc/powerpc64-ps3-elf/7.2.0/../../../../powerpc64-ps3-elf/lib/libc.a(lib_a-fputc.o)
 .debug_aranges
                0x0000000000000d00       0x40 /home/louis/Documents/ps3/ps3toolchain/bin/ppu/lib/gcc/powerpc64-ps3-elf/7.2.0/../../../../powerpc64-ps3-elf/lib/libc.a(lib_a-fputs.o)
 .debug_aranges
                0x0000000000000d40       0x40 /home/louis/Documents/ps3/ps3toolchain/bin/ppu/lib/gcc/powerpc64-ps3-elf/7.2.0/../../../../powerpc64-ps3-elf/lib/libc.a(lib_a-freer.o)
 .debug_aranges
                0x0000000000000d80       0x30 /home/louis/Documents/ps3/ps3toolchain/bin/ppu/lib/gcc/powerpc64-ps3-elf/7.2.0/../../../../powerpc64-ps3-elf/lib/libc.a(lib_a-fvwrite.o)
 .debug_aranges
                0x0000000000000db0       0x40 /home/louis/Documents/ps3/ps3toolchain/bin/ppu/lib/gcc/powerpc64-ps3-elf/7.2.0/../../../../powerpc64-ps3-elf/lib/libc.a(lib_a-fwalk.o)
 .debug_aranges
                0x0000000000000df0       0x30 /home/louis/Documents/ps3/ps3toolchain/bin/ppu/lib/gcc/powerpc64-ps3-elf/7.2.0/../../../../powerpc64-ps3-elf/lib/libc.a(lib_a-iswspace.o)
 .debug_aranges
                0x0000000000000e20       0xa0 /home/louis/Documents/ps3/ps3toolchain/bin/ppu/lib/gcc/powerpc64-ps3-elf/7.2.0/../../../../powerpc64-ps3-elf/lib/libc.a(lib_a-locale.o)
 .debug_aranges
                0x0000000000000ec0       0x70 /home/louis/Documents/ps3/ps3toolchain/bin/ppu/lib/gcc/powerpc64-ps3-elf/7.2.0/../../../../powerpc64-ps3-elf/lib/libc.a(lib_a-lock_recursive.o)
 .debug_aranges
                0x0000000000000f30       0x30 /home/louis/Documents/ps3/ps3toolchain/bin/ppu/lib/gcc/powerpc64-ps3-elf/7.2.0/../../../../powerpc64-ps3-elf/lib/libc.a(lib_a-makebuf.o)
 .debug_aranges
                0x0000000000000f60       0x40 /home/louis/Documents/ps3/ps3toolchain/bin/ppu/lib/gcc/powerpc64-ps3-elf/7.2.0/../../../../powerpc64-ps3-elf/lib/libc.a(lib_a-mbrtowc.o)
 .debug_aranges
                0x0000000000000fa0       0x40 /home/louis/Documents/ps3/ps3toolchain/bin/ppu/lib/gcc/powerpc64-ps3-elf/7.2.0/../../../../powerpc64-ps3-elf/lib/libc.a(lib_a-mbtowc_r.o)
 .debug_aranges
                0x0000000000000fe0       0x30 /home/louis/Documents/ps3/ps3toolchain/bin/ppu/lib/gcc/powerpc64-ps3-elf/7.2.0/../../../../powerpc64-ps3-elf/lib/libc.a(lib_a-memchr.o)
 .debug_aranges
                0x0000000000001010       0x30 /home/louis/Documents/ps3/ps3toolchain/bin/ppu/lib/gcc/powerpc64-ps3-elf/7.2.0/../../../../powerpc64-ps3-elf/lib/libc.a(lib_a-memmove.o)
 .debug_aranges
                0x0000000000001040      0x150 /home/louis/Documents/ps3/ps3toolchain/bin/ppu/lib/gcc/powerpc64-ps3-elf/7.2.0/../../../../powerpc64-ps3-elf/lib/libc.a(lib_a-mprec.o)
 .debug_aranges
                0x0000000000001190       0x40 /home/louis/Documents/ps3/ps3toolchain/bin/ppu/lib/gcc/powerpc64-ps3-elf/7.2.0/../../../../powerpc64-ps3-elf/lib/libc.a(lib_a-putc.o)
 .debug_aranges
                0x00000000000011d0       0x30 /home/louis/Documents/ps3/ps3toolchain/bin/ppu/lib/gcc/powerpc64-ps3-elf/7.2.0/../../../../powerpc64-ps3-elf/lib/libc.a(lib_a-sccl.o)
 .debug_aranges
                0x0000000000001200       0x30 /home/louis/Documents/ps3/ps3toolchain/bin/ppu/lib/gcc/powerpc64-ps3-elf/7.2.0/../../../../powerpc64-ps3-elf/lib/libc.a(lib_a-sf_nan.o)
 .debug_aranges
                0x0000000000001230       0x30 /home/louis/Documents/ps3/ps3toolchain/bin/ppu/lib/gcc/powerpc64-ps3-elf/7.2.0/../../../../powerpc64-ps3-elf/lib/libc.a(lib_a-s_fpclassify.o)
 .debug_aranges
                0x0000000000001260       0x40 /home/louis/Documents/ps3/ps3toolchain/bin/ppu/lib/gcc/powerpc64-ps3-elf/7.2.0/../../../../powerpc64-ps3-elf/lib/libc.a(lib_a-sprintf.o)
 .debug_aranges
                0x00000000000012a0       0x30 /home/louis/Documents/ps3/ps3toolchain/bin/ppu/lib/gcc/powerpc64-ps3-elf/7.2.0/../../../../powerpc64-ps3-elf/lib/libc.a(lib_a-strcmp.o)
 .debug_aranges
                0x00000000000012d0       0x50 /home/louis/Documents/ps3/ps3toolchain/bin/ppu/lib/gcc/powerpc64-ps3-elf/7.2.0/../../../../powerpc64-ps3-elf/lib/libc.a(lib_a-strtod.o)
 .debug_aranges
                0x0000000000001320       0x30 /home/louis/Documents/ps3/ps3toolchain/bin/ppu/lib/gcc/powerpc64-ps3-elf/7.2.0/../../../../powerpc64-ps3-elf/lib/libc.a(lib_a-strtoll_r.o)
 .debug_aranges
                0x0000000000001350       0x40 /home/louis/Documents/ps3/ps3toolchain/bin/ppu/lib/gcc/powerpc64-ps3-elf/7.2.0/../../../../powerpc64-ps3-elf/lib/libc.a(lib_a-strtol.o)
 .debug_aranges
                0x0000000000001390       0x30 /home/louis/Documents/ps3/ps3toolchain/bin/ppu/lib/gcc/powerpc64-ps3-elf/7.2.0/../../../../powerpc64-ps3-elf/lib/libc.a(lib_a-strtoull_r.o)
 .debug_aranges
                0x00000000000013c0       0x40 /home/louis/Documents/ps3/ps3toolchain/bin/ppu/lib/gcc/powerpc64-ps3-elf/7.2.0/../../../../powerpc64-ps3-elf/lib/libc.a(lib_a-strtoul.o)
 .debug_aranges
                0x0000000000001400       0x60 /home/louis/Documents/ps3/ps3toolchain/bin/ppu/lib/gcc/powerpc64-ps3-elf/7.2.0/../../../../powerpc64-ps3-elf/lib/libc.a(lib_a-svfiscanf.o)
 .debug_aranges
                0x0000000000001460       0x30 /home/louis/Documents/ps3/ps3toolchain/bin/ppu/lib/gcc/powerpc64-ps3-elf/7.2.0/../../../../powerpc64-ps3-elf/lib/libc.a(lib_a-svfprintf.o)
 .debug_aranges
                0x0000000000001490       0x50 /home/louis/Documents/ps3/ps3toolchain/bin/ppu/lib/gcc/powerpc64-ps3-elf/7.2.0/../../../../powerpc64-ps3-elf/lib/libc.a(lib_a-ungetc.o)
 .debug_aranges
                0x00000000000014e0       0x60 /home/louis/Documents/ps3/ps3toolchain/bin/ppu/lib/gcc/powerpc64-ps3-elf/7.2.0/../../../../powerpc64-ps3-elf/lib/libc.a(lib_a-vfiprintf.o)
 .debug_aranges
                0x0000000000001540       0x40 /home/louis/Documents/ps3/ps3toolchain/bin/ppu/lib/gcc/powerpc64-ps3-elf/7.2.0/../../../../powerpc64-ps3-elf/lib/libc.a(lib_a-wbuf.o)
 .debug_aranges
                0x0000000000001580       0x40 /home/louis/Documents/ps3/ps3toolchain/bin/ppu/lib/gcc/powerpc64-ps3-elf/7.2.0/../../../../powerpc64-ps3-elf/lib/libc.a(lib_a-fclose.o)
 .debug_aranges
                0x00000000000015c0       0x40 /home/louis/Documents/ps3/ps3toolchain/bin/ppu/lib/gcc/powerpc64-ps3-elf/7.2.0/../../../../powerpc64-ps3-elf/lib/libc.a(lib_a-fputwc.o)
 .debug_aranges
                0x0000000000001600       0x50 /home/louis/Documents/ps3/ps3toolchain/bin/ppu/lib/gcc/powerpc64-ps3-elf/7.2.0/../../../../powerpc64-ps3-elf/lib/libc.a(lib_a-gdtoa-gethex.o)
 .debug_aranges
                0x0000000000001650       0x30 /home/louis/Documents/ps3/ps3toolchain/bin/ppu/lib/gcc/powerpc64-ps3-elf/7.2.0/../../../../powerpc64-ps3-elf/lib/libc.a(lib_a-gdtoa-hexnan.o)
 .debug_aranges
                0x0000000000001680       0x40 /home/louis/Documents/ps3/ps3toolchain/bin/ppu/lib/gcc/powerpc64-ps3-elf/7.2.0/../../../../powerpc64-ps3-elf/lib/libc.a(lib_a-lock_internal.o)
 .debug_aranges
                0x00000000000016c0       0x30 /home/louis/Documents/ps3/ps3toolchain/bin/ppu/lib/gcc/powerpc64-ps3-elf/7.2.0/../../../../powerpc64-ps3-elf/lib/libc.a(lib_a-strncmp.o)
 .debug_aranges
                0x00000000000016f0       0x40 /home/louis/Documents/ps3/ps3toolchain/bin/ppu/lib/gcc/powerpc64-ps3-elf/7.2.0/../../../../powerpc64-ps3-elf/lib/libc.a(lib_a-svfiprintf.o)
 .debug_aranges
                0x0000000000001730       0x40 /home/louis/Documents/ps3/ps3toolchain/bin/ppu/lib/gcc/powerpc64-ps3-elf/7.2.0/../../../../powerpc64-ps3-elf/lib/libc.a(lib_a-wcrtomb.o)
 .debug_aranges
                0x0000000000001770       0x40 /home/louis/Documents/ps3/ps3toolchain/bin/ppu/lib/gcc/powerpc64-ps3-elf/7.2.0/../../../../powerpc64-ps3-elf/lib/libc.a(lib_a-wctomb_r.o)
 .debug_aranges
                0x00000000000017b0       0x30 /home/louis/Documents/ps3/ps3toolchain/bin/ppu/lib/gcc/powerpc64-ps3-elf/7.2.0/../../../../powerpc64-ps3-elf/lib/libc.a(lib_a-abort.o)
 .debug_aranges
                0x00000000000017e0       0xb0 /home/louis/Documents/ps3/ps3toolchain/bin/ppu/lib/gcc/powerpc64-ps3-elf/7.2.0/../../../../powerpc64-ps3-elf/lib/libc.a(lib_a-signal.o)
 .debug_aranges
                0x0000000000001890       0x30 /home/louis/Documents/ps3/ps3toolchain/bin/ppu/lib/gcc/powerpc64-ps3-elf/7.2.0/../../../../powerpc64-ps3-elf/lib/libsysbase.a(close.o)
 .debug_aranges
                0x00000000000018c0       0x30 /home/louis/Documents/ps3/ps3toolchain/bin/ppu/lib/gcc/powerpc64-ps3-elf/7.2.0/../../../../powerpc64-ps3-elf/lib/libsysbase.a(sbrk.o)
 .debug_aranges
                0x00000000000018f0       0x30 /home/louis/Documents/ps3/ps3toolchain/bin/ppu/lib/gcc/powerpc64-ps3-elf/7.2.0/../../../../powerpc64-ps3-elf/lib/libsysbase.a(_exit.o)
 .debug_aranges
                0x0000000000001920       0x30 /home/louis/Documents/ps3/ps3toolchain/bin/ppu/lib/gcc/powerpc64-ps3-elf/7.2.0/../../../../powerpc64-ps3-elf/lib/libsysbase.a(fstat.o)
 .debug_aranges
                0x0000000000001950       0x30 /home/louis/Documents/ps3/ps3toolchain/bin/ppu/lib/gcc/powerpc64-ps3-elf/7.2.0/../../../../powerpc64-ps3-elf/lib/libsysbase.a(isatty.o)
 .debug_aranges
                0x0000000000001980       0x30 /home/louis/Documents/ps3/ps3toolchain/bin/ppu/lib/gcc/powerpc64-ps3-elf/7.2.0/../../../../powerpc64-ps3-elf/lib/libsysbase.a(lseek.o)
 .debug_aranges
                0x00000000000019b0       0x30 /home/louis/Documents/ps3/ps3toolchain/bin/ppu/lib/gcc/powerpc64-ps3-elf/7.2.0/../../../../powerpc64-ps3-elf/lib/libsysbase.a(read.o)
 .debug_aranges
                0x00000000000019e0       0x30 /home/louis/Documents/ps3/ps3toolchain/bin/ppu/lib/gcc/powerpc64-ps3-elf/7.2.0/../../../../powerpc64-ps3-elf/lib/libsysbase.a(write.o)
 .debug_aranges
                0x0000000000001a10       0x70 /home/louis/Documents/ps3/ps3toolchain/bin/ppu/lib/gcc/powerpc64-ps3-elf/7.2.0/../../../../powerpc64-ps3-elf/lib/libsysbase.a(lock.o)
 .debug_aranges
                0x0000000000001a80       0x30 /home/louis/Documents/ps3/ps3toolchain/bin/ppu/lib/gcc/powerpc64-ps3-elf/7.2.0/../../../../powerpc64-ps3-elf/lib/libsysbase.a(getpid.o)
 .debug_aranges
                0x0000000000001ab0       0x30 /home/louis/Documents/ps3/ps3toolchain/bin/ppu/lib/gcc/powerpc64-ps3-elf/7.2.0/../../../../powerpc64-ps3-elf/lib/libsysbase.a(kill.o)
 .debug_aranges
                0x0000000000001ae0       0x30 /home/louis/Documents/ps3/ps3toolchain/bin/ppu/lib/gcc/powerpc64-ps3-elf/7.2.0/../../../../powerpc64-ps3-elf/lib/libsysbase.a(gettod.o)

.debug_pubnames
 *(.debug_pubnames)

.debug_info     0x0000000000000000    0x5c051
 *(.debug_info .gnu.linkonce.wi.*)
 .debug_info    0x0000000000000000      0xa6c /home/louis/Documents/ps3/ps3toolchain/bin/ppu/lib/gcc/powerpc64-ps3-elf/7.2.0/../../../../powerpc64-ps3-elf/lib/libm.a(lib_a-sf_cos.o)
 .debug_info    0x0000000000000a6c      0xc13 /home/louis/Documents/ps3/ps3toolchain/bin/ppu/lib/gcc/powerpc64-ps3-elf/7.2.0/../../../../powerpc64-ps3-elf/lib/libm.a(lib_a-sf_sine.o)
 .debug_info    0x000000000000167f      0xa6c /home/louis/Documents/ps3/ps3toolchain/bin/ppu/lib/gcc/powerpc64-ps3-elf/7.2.0/../../../../powerpc64-ps3-elf/lib/libm.a(lib_a-sf_sin.o)
 .debug_info    0x00000000000020eb      0xb57 /home/louis/Documents/ps3/ps3toolchain/bin/ppu/lib/gcc/powerpc64-ps3-elf/7.2.0/../../../../powerpc64-ps3-elf/lib/libm.a(lib_a-sf_sqrt.o)
 .debug_info    0x0000000000002c42      0xb8f /home/louis/Documents/ps3/ps3toolchain/bin/ppu/lib/gcc/powerpc64-ps3-elf/7.2.0/../../../../powerpc64-ps3-elf/lib/libm.a(lib_a-sf_tan.o)
 .debug_info    0x00000000000037d1      0xaba /home/louis/Documents/ps3/ps3toolchain/bin/ppu/lib/gcc/powerpc64-ps3-elf/7.2.0/../../../../powerpc64-ps3-elf/lib/libm.a(lib_a-s_mathcnst.o)
 .debug_info    0x000000000000428b      0xb54 /home/louis/Documents/ps3/ps3toolchain/bin/ppu/lib/gcc/powerpc64-ps3-elf/7.2.0/../../../../powerpc64-ps3-elf/lib/libm.a(lib_a-s_sqrt.o)
 .debug_info    0x0000000000004ddf      0xa8e /home/louis/Documents/ps3/ps3toolchain/bin/ppu/lib/gcc/powerpc64-ps3-elf/7.2.0/../../../../powerpc64-ps3-elf/lib/libm.a(lib_a-sf_fabs.o)
 .debug_info    0x000000000000586d      0xa87 /home/louis/Documents/ps3/ps3toolchain/bin/ppu/lib/gcc/powerpc64-ps3-elf/7.2.0/../../../../powerpc64-ps3-elf/lib/libm.a(lib_a-sf_floor.o)
 .debug_info    0x00000000000062f4      0xb3d /home/louis/Documents/ps3/ps3toolchain/bin/ppu/lib/gcc/powerpc64-ps3-elf/7.2.0/../../../../powerpc64-ps3-elf/lib/libm.a(lib_a-sf_frexp.o)
 .debug_info    0x0000000000006e31      0xa9d /home/louis/Documents/ps3/ps3toolchain/bin/ppu/lib/gcc/powerpc64-ps3-elf/7.2.0/../../../../powerpc64-ps3-elf/lib/libm.a(lib_a-sf_ispos.o)
 .debug_info    0x00000000000078ce      0xb81 /home/louis/Documents/ps3/ps3toolchain/bin/ppu/lib/gcc/powerpc64-ps3-elf/7.2.0/../../../../powerpc64-ps3-elf/lib/libm.a(lib_a-sf_ldexp.o)
 .debug_info    0x000000000000844f      0xacf /home/louis/Documents/ps3/ps3toolchain/bin/ppu/lib/gcc/powerpc64-ps3-elf/7.2.0/../../../../powerpc64-ps3-elf/lib/libm.a(lib_a-sf_modf.o)
 .debug_info    0x0000000000008f1e      0xab5 /home/louis/Documents/ps3/ps3toolchain/bin/ppu/lib/gcc/powerpc64-ps3-elf/7.2.0/../../../../powerpc64-ps3-elf/lib/libm.a(lib_a-sf_numtest.o)
 .debug_info    0x00000000000099d3      0xb54 /home/louis/Documents/ps3/ps3toolchain/bin/ppu/lib/gcc/powerpc64-ps3-elf/7.2.0/../../../../powerpc64-ps3-elf/lib/libm.a(lib_a-s_frexp.o)
 .debug_info    0x000000000000a527      0xac2 /home/louis/Documents/ps3/ps3toolchain/bin/ppu/lib/gcc/powerpc64-ps3-elf/7.2.0/../../../../powerpc64-ps3-elf/lib/libm.a(lib_a-s_ispos.o)
 .debug_info    0x000000000000afe9      0xb5f /home/louis/Documents/ps3/ps3toolchain/bin/ppu/lib/gcc/powerpc64-ps3-elf/7.2.0/../../../../powerpc64-ps3-elf/lib/libm.a(lib_a-s_ldexp.o)
 .debug_info    0x000000000000bb48      0xaee /home/louis/Documents/ps3/ps3toolchain/bin/ppu/lib/gcc/powerpc64-ps3-elf/7.2.0/../../../../powerpc64-ps3-elf/lib/libm.a(lib_a-s_numtest.o)
 .debug_info    0x000000000000c636     0x13ed /home/louis/Documents/ps3/ps3toolchain/bin/ppu/lib/gcc/powerpc64-ps3-elf/7.2.0/../../../../powerpc64-ps3-elf/lib/libsysbase.a(syscalls.o)
 .debug_info    0x000000000000da23     0x14d7 /home/louis/Documents/ps3/ps3toolchain/bin/ppu/lib/gcc/powerpc64-ps3-elf/7.2.0/../../../../powerpc64-ps3-elf/lib/libsysbase.a(sleep.o)
 .debug_info    0x000000000000eefa      0x96d /home/louis/Documents/ps3/ps3toolchain/bin/ppu/lib/gcc/powerpc64-ps3-elf/7.2.0/../../../../powerpc64-ps3-elf/lib/libc.a(lib_a-atexit.o)
 .debug_info    0x000000000000f867      0x971 /home/louis/Documents/ps3/ps3toolchain/bin/ppu/lib/gcc/powerpc64-ps3-elf/7.2.0/../../../../powerpc64-ps3-elf/lib/libc.a(lib_a-calloc.o)
 .debug_info    0x00000000000101d8      0xbc9 /home/louis/Documents/ps3/ps3toolchain/bin/ppu/lib/gcc/powerpc64-ps3-elf/7.2.0/../../../../powerpc64-ps3-elf/lib/libc.a(lib_a-callocr.o)
 .debug_info    0x0000000000010da1      0x94b /home/louis/Documents/ps3/ps3toolchain/bin/ppu/lib/gcc/powerpc64-ps3-elf/7.2.0/../../../../powerpc64-ps3-elf/lib/libc.a(lib_a-errno.o)
 .debug_info    0x00000000000116ec      0x9ad /home/louis/Documents/ps3/ps3toolchain/bin/ppu/lib/gcc/powerpc64-ps3-elf/7.2.0/../../../../powerpc64-ps3-elf/lib/libc.a(lib_a-exit.o)
 .debug_info    0x0000000000012099      0xa4d /home/louis/Documents/ps3/ps3toolchain/bin/ppu/lib/gcc/powerpc64-ps3-elf/7.2.0/../../../../powerpc64-ps3-elf/lib/libc.a(lib_a-fprintf.o)
 .debug_info    0x0000000000012ae6      0x9bd /home/louis/Documents/ps3/ps3toolchain/bin/ppu/lib/gcc/powerpc64-ps3-elf/7.2.0/../../../../powerpc64-ps3-elf/lib/libc.a(lib_a-getreent.o)
 .debug_info    0x00000000000134a3      0x906 /home/louis/Documents/ps3/ps3toolchain/bin/ppu/lib/gcc/powerpc64-ps3-elf/7.2.0/../../../../powerpc64-ps3-elf/lib/libc.a(lib_a-impure.o)
 .debug_info    0x0000000000013da9      0x973 /home/louis/Documents/ps3/ps3toolchain/bin/ppu/lib/gcc/powerpc64-ps3-elf/7.2.0/../../../../powerpc64-ps3-elf/lib/libc.a(lib_a-malign.o)
 .debug_info    0x000000000001471c      0xc63 /home/louis/Documents/ps3/ps3toolchain/bin/ppu/lib/gcc/powerpc64-ps3-elf/7.2.0/../../../../powerpc64-ps3-elf/lib/libc.a(lib_a-malignr.o)
 .debug_info    0x000000000001537f      0x9b7 /home/louis/Documents/ps3/ps3toolchain/bin/ppu/lib/gcc/powerpc64-ps3-elf/7.2.0/../../../../powerpc64-ps3-elf/lib/libc.a(lib_a-malloc.o)
 .debug_info    0x0000000000015d36      0xeac /home/louis/Documents/ps3/ps3toolchain/bin/ppu/lib/gcc/powerpc64-ps3-elf/7.2.0/../../../../powerpc64-ps3-elf/lib/libc.a(lib_a-mallocr.o)
 .debug_info    0x0000000000016be2      0x98b /home/louis/Documents/ps3/ps3toolchain/bin/ppu/lib/gcc/powerpc64-ps3-elf/7.2.0/../../../../powerpc64-ps3-elf/lib/libc.a(lib_a-memcpy.o)
 .debug_info    0x000000000001756d      0x97c /home/louis/Documents/ps3/ps3toolchain/bin/ppu/lib/gcc/powerpc64-ps3-elf/7.2.0/../../../../powerpc64-ps3-elf/lib/libc.a(lib_a-memset.o)
 .debug_info    0x0000000000017ee9      0x99a /home/louis/Documents/ps3/ps3toolchain/bin/ppu/lib/gcc/powerpc64-ps3-elf/7.2.0/../../../../powerpc64-ps3-elf/lib/libc.a(lib_a-mlock.o)
 .debug_info    0x0000000000018883      0xc0c /home/louis/Documents/ps3/ps3toolchain/bin/ppu/lib/gcc/powerpc64-ps3-elf/7.2.0/../../../../powerpc64-ps3-elf/lib/libc.a(lib_a-perror.o)
 .debug_info    0x000000000001948f      0x972 /home/louis/Documents/ps3/ps3toolchain/bin/ppu/lib/gcc/powerpc64-ps3-elf/7.2.0/../../../../powerpc64-ps3-elf/lib/libc.a(lib_a-realloc.o)
 .debug_info    0x0000000000019e01      0xe68 /home/louis/Documents/ps3/ps3toolchain/bin/ppu/lib/gcc/powerpc64-ps3-elf/7.2.0/../../../../powerpc64-ps3-elf/lib/libc.a(lib_a-reallocr.o)
 .debug_info    0x000000000001ac69      0xc83 /home/louis/Documents/ps3/ps3toolchain/bin/ppu/lib/gcc/powerpc64-ps3-elf/7.2.0/../../../../powerpc64-ps3-elf/lib/libc.a(lib_a-sscanf.o)
 .debug_info    0x000000000001b8ec      0xdd2 /home/louis/Documents/ps3/ps3toolchain/bin/ppu/lib/gcc/powerpc64-ps3-elf/7.2.0/../../../../powerpc64-ps3-elf/lib/libc.a(lib_a-stdio.o)
 .debug_info    0x000000000001c6be      0x9ea /home/louis/Documents/ps3/ps3toolchain/bin/ppu/lib/gcc/powerpc64-ps3-elf/7.2.0/../../../../powerpc64-ps3-elf/lib/libc.a(lib_a-strcasecmp.o)
 .debug_info    0x000000000001d0a8      0x970 /home/louis/Documents/ps3/ps3toolchain/bin/ppu/lib/gcc/powerpc64-ps3-elf/7.2.0/../../../../powerpc64-ps3-elf/lib/libc.a(lib_a-strchr.o)
 .debug_info    0x000000000001da18      0x96a /home/louis/Documents/ps3/ps3toolchain/bin/ppu/lib/gcc/powerpc64-ps3-elf/7.2.0/../../../../powerpc64-ps3-elf/lib/libc.a(lib_a-strcpy.o)
 .debug_info    0x000000000001e382      0x953 /home/louis/Documents/ps3/ps3toolchain/bin/ppu/lib/gcc/powerpc64-ps3-elf/7.2.0/../../../../powerpc64-ps3-elf/lib/libc.a(lib_a-strdup.o)
 .debug_info    0x000000000001ecd5      0x9ca /home/louis/Documents/ps3/ps3toolchain/bin/ppu/lib/gcc/powerpc64-ps3-elf/7.2.0/../../../../powerpc64-ps3-elf/lib/libc.a(lib_a-strdup_r.o)
 .debug_info    0x000000000001f69f      0xa1e /home/louis/Documents/ps3/ps3toolchain/bin/ppu/lib/gcc/powerpc64-ps3-elf/7.2.0/../../../../powerpc64-ps3-elf/lib/libc.a(lib_a-strerror.o)
 .debug_info    0x00000000000200bd      0x93f /home/louis/Documents/ps3/ps3toolchain/bin/ppu/lib/gcc/powerpc64-ps3-elf/7.2.0/../../../../powerpc64-ps3-elf/lib/libc.a(lib_a-strlen.o)
 .debug_info    0x00000000000209fc      0x967 /home/louis/Documents/ps3/ps3toolchain/bin/ppu/lib/gcc/powerpc64-ps3-elf/7.2.0/../../../../powerpc64-ps3-elf/lib/libc.a(lib_a-strncat.o)
 .debug_info    0x0000000000021363      0x980 /home/louis/Documents/ps3/ps3toolchain/bin/ppu/lib/gcc/powerpc64-ps3-elf/7.2.0/../../../../powerpc64-ps3-elf/lib/libc.a(lib_a-strncpy.o)
 .debug_info    0x0000000000021ce3     0x161b /home/louis/Documents/ps3/ps3toolchain/bin/ppu/lib/gcc/powerpc64-ps3-elf/7.2.0/../../../../powerpc64-ps3-elf/lib/libc.a(lib_a-svfscanf.o)
 .debug_info    0x00000000000232fe      0x9a2 /home/louis/Documents/ps3/ps3toolchain/bin/ppu/lib/gcc/powerpc64-ps3-elf/7.2.0/../../../../powerpc64-ps3-elf/lib/libc.a(lib_a-time.o)
 .debug_info    0x0000000000023ca0       0x8f /home/louis/Documents/ps3/ps3toolchain/bin/ppu/lib/gcc/powerpc64-ps3-elf/7.2.0/../../../../powerpc64-ps3-elf/lib/libc.a(lib_a-u_strerr.o)
 .debug_info    0x0000000000023d2f     0x1be0 /home/louis/Documents/ps3/ps3toolchain/bin/ppu/lib/gcc/powerpc64-ps3-elf/7.2.0/../../../../powerpc64-ps3-elf/lib/libc.a(lib_a-vfprintf.o)
 .debug_info    0x000000000002590f      0xbd1 /home/louis/Documents/ps3/ps3toolchain/bin/ppu/lib/gcc/powerpc64-ps3-elf/7.2.0/../../../../powerpc64-ps3-elf/lib/libc.a(lib_a-wsetup.o)
 .debug_info    0x00000000000264e0      0xa25 /home/louis/Documents/ps3/ps3toolchain/bin/ppu/lib/gcc/powerpc64-ps3-elf/7.2.0/../../../../powerpc64-ps3-elf/lib/libc.a(lib_a-__atexit.o)
 .debug_info    0x0000000000026f05      0xa23 /home/louis/Documents/ps3/ps3toolchain/bin/ppu/lib/gcc/powerpc64-ps3-elf/7.2.0/../../../../powerpc64-ps3-elf/lib/libc.a(lib_a-__call_atexit.o)
 .debug_info    0x0000000000027928       0x7b /home/louis/Documents/ps3/ps3toolchain/bin/ppu/lib/gcc/powerpc64-ps3-elf/7.2.0/../../../../powerpc64-ps3-elf/lib/libc.a(lib_a-ctype_.o)
 .debug_info    0x00000000000279a3     0x143a /home/louis/Documents/ps3/ps3toolchain/bin/ppu/lib/gcc/powerpc64-ps3-elf/7.2.0/../../../../powerpc64-ps3-elf/lib/libc.a(lib_a-dtoa.o)
 .debug_info    0x0000000000028ddd      0xdc4 /home/louis/Documents/ps3/ps3toolchain/bin/ppu/lib/gcc/powerpc64-ps3-elf/7.2.0/../../../../powerpc64-ps3-elf/lib/libc.a(lib_a-fflush.o)
 .debug_info    0x0000000000029ba1     0x128a /home/louis/Documents/ps3/ps3toolchain/bin/ppu/lib/gcc/powerpc64-ps3-elf/7.2.0/../../../../powerpc64-ps3-elf/lib/libc.a(lib_a-findfp.o)
 .debug_info    0x000000000002ae2b      0xc9f /home/louis/Documents/ps3/ps3toolchain/bin/ppu/lib/gcc/powerpc64-ps3-elf/7.2.0/../../../../powerpc64-ps3-elf/lib/libc.a(lib_a-fputc.o)
 .debug_info    0x000000000002baca      0xce2 /home/louis/Documents/ps3/ps3toolchain/bin/ppu/lib/gcc/powerpc64-ps3-elf/7.2.0/../../../../powerpc64-ps3-elf/lib/libc.a(lib_a-fputs.o)
 .debug_info    0x000000000002c7ac      0xd57 /home/louis/Documents/ps3/ps3toolchain/bin/ppu/lib/gcc/powerpc64-ps3-elf/7.2.0/../../../../powerpc64-ps3-elf/lib/libc.a(lib_a-freer.o)
 .debug_info    0x000000000002d503      0xe9d /home/louis/Documents/ps3/ps3toolchain/bin/ppu/lib/gcc/powerpc64-ps3-elf/7.2.0/../../../../powerpc64-ps3-elf/lib/libc.a(lib_a-fvwrite.o)
 .debug_info    0x000000000002e3a0      0xc3e /home/louis/Documents/ps3/ps3toolchain/bin/ppu/lib/gcc/powerpc64-ps3-elf/7.2.0/../../../../powerpc64-ps3-elf/lib/libc.a(lib_a-fwalk.o)
 .debug_info    0x000000000002efde      0x930 /home/louis/Documents/ps3/ps3toolchain/bin/ppu/lib/gcc/powerpc64-ps3-elf/7.2.0/../../../../powerpc64-ps3-elf/lib/libc.a(lib_a-iswspace.o)
 .debug_info    0x000000000002f90e      0xe27 /home/louis/Documents/ps3/ps3toolchain/bin/ppu/lib/gcc/powerpc64-ps3-elf/7.2.0/../../../../powerpc64-ps3-elf/lib/libc.a(lib_a-locale.o)
 .debug_info    0x0000000000030735      0xb4f /home/louis/Documents/ps3/ps3toolchain/bin/ppu/lib/gcc/powerpc64-ps3-elf/7.2.0/../../../../powerpc64-ps3-elf/lib/libc.a(lib_a-lock_recursive.o)
 .debug_info    0x0000000000031284      0xd77 /home/louis/Documents/ps3/ps3toolchain/bin/ppu/lib/gcc/powerpc64-ps3-elf/7.2.0/../../../../powerpc64-ps3-elf/lib/libc.a(lib_a-makebuf.o)
 .debug_info    0x0000000000031ffb      0xbfd /home/louis/Documents/ps3/ps3toolchain/bin/ppu/lib/gcc/powerpc64-ps3-elf/7.2.0/../../../../powerpc64-ps3-elf/lib/libc.a(lib_a-mbrtowc.o)
 .debug_info    0x0000000000032bf8      0xb2f /home/louis/Documents/ps3/ps3toolchain/bin/ppu/lib/gcc/powerpc64-ps3-elf/7.2.0/../../../../powerpc64-ps3-elf/lib/libc.a(lib_a-mbtowc_r.o)
 .debug_info    0x0000000000033727      0x994 /home/louis/Documents/ps3/ps3toolchain/bin/ppu/lib/gcc/powerpc64-ps3-elf/7.2.0/../../../../powerpc64-ps3-elf/lib/libc.a(lib_a-memchr.o)
 .debug_info    0x00000000000340bb      0x992 /home/louis/Documents/ps3/ps3toolchain/bin/ppu/lib/gcc/powerpc64-ps3-elf/7.2.0/../../../../powerpc64-ps3-elf/lib/libc.a(lib_a-memmove.o)
 .debug_info    0x0000000000034a4d     0x18d9 /home/louis/Documents/ps3/ps3toolchain/bin/ppu/lib/gcc/powerpc64-ps3-elf/7.2.0/../../../../powerpc64-ps3-elf/lib/libc.a(lib_a-mprec.o)
 .debug_info    0x0000000000036326      0xcea /home/louis/Documents/ps3/ps3toolchain/bin/ppu/lib/gcc/powerpc64-ps3-elf/7.2.0/../../../../powerpc64-ps3-elf/lib/libc.a(lib_a-putc.o)
 .debug_info    0x0000000000037010      0xb46 /home/louis/Documents/ps3/ps3toolchain/bin/ppu/lib/gcc/powerpc64-ps3-elf/7.2.0/../../../../powerpc64-ps3-elf/lib/libc.a(lib_a-sccl.o)
 .debug_info    0x0000000000037b56      0x9ab /home/louis/Documents/ps3/ps3toolchain/bin/ppu/lib/gcc/powerpc64-ps3-elf/7.2.0/../../../../powerpc64-ps3-elf/lib/libc.a(lib_a-sf_nan.o)
 .debug_info    0x0000000000038501      0x9dc /home/louis/Documents/ps3/ps3toolchain/bin/ppu/lib/gcc/powerpc64-ps3-elf/7.2.0/../../../../powerpc64-ps3-elf/lib/libc.a(lib_a-s_fpclassify.o)
 .debug_info    0x0000000000038edd      0xc47 /home/louis/Documents/ps3/ps3toolchain/bin/ppu/lib/gcc/powerpc64-ps3-elf/7.2.0/../../../../powerpc64-ps3-elf/lib/libc.a(lib_a-sprintf.o)
 .debug_info    0x0000000000039b24      0x93f /home/louis/Documents/ps3/ps3toolchain/bin/ppu/lib/gcc/powerpc64-ps3-elf/7.2.0/../../../../powerpc64-ps3-elf/lib/libc.a(lib_a-strcmp.o)
 .debug_info    0x000000000003a463     0x16ed /home/louis/Documents/ps3/ps3toolchain/bin/ppu/lib/gcc/powerpc64-ps3-elf/7.2.0/../../../../powerpc64-ps3-elf/lib/libc.a(lib_a-strtod.o)
 .debug_info    0x000000000003bb50      0xa0d /home/louis/Documents/ps3/ps3toolchain/bin/ppu/lib/gcc/powerpc64-ps3-elf/7.2.0/../../../../powerpc64-ps3-elf/lib/libc.a(lib_a-strtoll_r.o)
 .debug_info    0x000000000003c55d      0xa8f /home/louis/Documents/ps3/ps3toolchain/bin/ppu/lib/gcc/powerpc64-ps3-elf/7.2.0/../../../../powerpc64-ps3-elf/lib/libc.a(lib_a-strtol.o)
 .debug_info    0x000000000003cfec      0xa0d /home/louis/Documents/ps3/ps3toolchain/bin/ppu/lib/gcc/powerpc64-ps3-elf/7.2.0/../../../../powerpc64-ps3-elf/lib/libc.a(lib_a-strtoull_r.o)
 .debug_info    0x000000000003d9f9      0xa8f /home/louis/Documents/ps3/ps3toolchain/bin/ppu/lib/gcc/powerpc64-ps3-elf/7.2.0/../../../../powerpc64-ps3-elf/lib/libc.a(lib_a-strtoul.o)
 .debug_info    0x000000000003e488     0x1511 /home/louis/Documents/ps3/ps3toolchain/bin/ppu/lib/gcc/powerpc64-ps3-elf/7.2.0/../../../../powerpc64-ps3-elf/lib/libc.a(lib_a-svfiscanf.o)
 .debug_info    0x000000000003f999     0x191f /home/louis/Documents/ps3/ps3toolchain/bin/ppu/lib/gcc/powerpc64-ps3-elf/7.2.0/../../../../powerpc64-ps3-elf/lib/libc.a(lib_a-svfprintf.o)
 .debug_info    0x00000000000412b8      0xd6f /home/louis/Documents/ps3/ps3toolchain/bin/ppu/lib/gcc/powerpc64-ps3-elf/7.2.0/../../../../powerpc64-ps3-elf/lib/libc.a(lib_a-ungetc.o)
 .debug_info    0x0000000000042027     0x1986 /home/louis/Documents/ps3/ps3toolchain/bin/ppu/lib/gcc/powerpc64-ps3-elf/7.2.0/../../../../powerpc64-ps3-elf/lib/libc.a(lib_a-vfiprintf.o)
 .debug_info    0x00000000000439ad      0xc49 /home/louis/Documents/ps3/ps3toolchain/bin/ppu/lib/gcc/powerpc64-ps3-elf/7.2.0/../../../../powerpc64-ps3-elf/lib/libc.a(lib_a-wbuf.o)
 .debug_info    0x00000000000445f6      0xd16 /home/louis/Documents/ps3/ps3toolchain/bin/ppu/lib/gcc/powerpc64-ps3-elf/7.2.0/../../../../powerpc64-ps3-elf/lib/libc.a(lib_a-fclose.o)
 .debug_info    0x000000000004530c      0xd9d /home/louis/Documents/ps3/ps3toolchain/bin/ppu/lib/gcc/powerpc64-ps3-elf/7.2.0/../../../../powerpc64-ps3-elf/lib/libc.a(lib_a-fputwc.o)
 .debug_info    0x00000000000460a9     0x11a9 /home/louis/Documents/ps3/ps3toolchain/bin/ppu/lib/gcc/powerpc64-ps3-elf/7.2.0/../../../../powerpc64-ps3-elf/lib/libc.a(lib_a-gdtoa-gethex.o)
 .debug_info    0x0000000000047252      0xc30 /home/louis/Documents/ps3/ps3toolchain/bin/ppu/lib/gcc/powerpc64-ps3-elf/7.2.0/../../../../powerpc64-ps3-elf/lib/libc.a(lib_a-gdtoa-hexnan.o)
 .debug_info    0x0000000000047e82      0xa84 /home/louis/Documents/ps3/ps3toolchain/bin/ppu/lib/gcc/powerpc64-ps3-elf/7.2.0/../../../../powerpc64-ps3-elf/lib/libc.a(lib_a-lock_internal.o)
 .debug_info    0x0000000000048906      0x957 /home/louis/Documents/ps3/ps3toolchain/bin/ppu/lib/gcc/powerpc64-ps3-elf/7.2.0/../../../../powerpc64-ps3-elf/lib/libc.a(lib_a-strncmp.o)
 .debug_info    0x000000000004925d     0x1382 /home/louis/Documents/ps3/ps3toolchain/bin/ppu/lib/gcc/powerpc64-ps3-elf/7.2.0/../../../../powerpc64-ps3-elf/lib/libc.a(lib_a-svfiprintf.o)
 .debug_info    0x000000000004a5df      0xbe9 /home/louis/Documents/ps3/ps3toolchain/bin/ppu/lib/gcc/powerpc64-ps3-elf/7.2.0/../../../../powerpc64-ps3-elf/lib/libc.a(lib_a-wcrtomb.o)
 .debug_info    0x000000000004b1c8      0xb03 /home/louis/Documents/ps3/ps3toolchain/bin/ppu/lib/gcc/powerpc64-ps3-elf/7.2.0/../../../../powerpc64-ps3-elf/lib/libc.a(lib_a-wctomb_r.o)
 .debug_info    0x000000000004bccb      0x997 /home/louis/Documents/ps3/ps3toolchain/bin/ppu/lib/gcc/powerpc64-ps3-elf/7.2.0/../../../../powerpc64-ps3-elf/lib/libc.a(lib_a-abort.o)
 .debug_info    0x000000000004c662      0xe73 /home/louis/Documents/ps3/ps3toolchain/bin/ppu/lib/gcc/powerpc64-ps3-elf/7.2.0/../../../../powerpc64-ps3-elf/lib/libc.a(lib_a-signal.o)
 .debug_info    0x000000000004d4d5     0x1461 /home/louis/Documents/ps3/ps3toolchain/bin/ppu/lib/gcc/powerpc64-ps3-elf/7.2.0/../../../../powerpc64-ps3-elf/lib/libsysbase.a(close.o)
 .debug_info    0x000000000004e936     0x1469 /home/louis/Documents/ps3/ps3toolchain/bin/ppu/lib/gcc/powerpc64-ps3-elf/7.2.0/../../../../powerpc64-ps3-elf/lib/libsysbase.a(sbrk.o)
 .debug_info    0x000000000004fd9f     0x1412 /home/louis/Documents/ps3/ps3toolchain/bin/ppu/lib/gcc/powerpc64-ps3-elf/7.2.0/../../../../powerpc64-ps3-elf/lib/libsysbase.a(_exit.o)
 .debug_info    0x00000000000511b1     0x1474 /home/louis/Documents/ps3/ps3toolchain/bin/ppu/lib/gcc/powerpc64-ps3-elf/7.2.0/../../../../powerpc64-ps3-elf/lib/libsysbase.a(fstat.o)
 .debug_info    0x0000000000052625     0x1461 /home/louis/Documents/ps3/ps3toolchain/bin/ppu/lib/gcc/powerpc64-ps3-elf/7.2.0/../../../../powerpc64-ps3-elf/lib/libsysbase.a(isatty.o)
 .debug_info    0x0000000000053a86     0x1484 /home/louis/Documents/ps3/ps3toolchain/bin/ppu/lib/gcc/powerpc64-ps3-elf/7.2.0/../../../../powerpc64-ps3-elf/lib/libsysbase.a(lseek.o)
 .debug_info    0x0000000000054f0a     0x148b /home/louis/Documents/ps3/ps3toolchain/bin/ppu/lib/gcc/powerpc64-ps3-elf/7.2.0/../../../../powerpc64-ps3-elf/lib/libsysbase.a(read.o)
 .debug_info    0x0000000000056395     0x148b /home/louis/Documents/ps3/ps3toolchain/bin/ppu/lib/gcc/powerpc64-ps3-elf/7.2.0/../../../../powerpc64-ps3-elf/lib/libsysbase.a(write.o)
 .debug_info    0x0000000000057820     0x1612 /home/louis/Documents/ps3/ps3toolchain/bin/ppu/lib/gcc/powerpc64-ps3-elf/7.2.0/../../../../powerpc64-ps3-elf/lib/libsysbase.a(lock.o)
 .debug_info    0x0000000000058e32     0x1453 /home/louis/Documents/ps3/ps3toolchain/bin/ppu/lib/gcc/powerpc64-ps3-elf/7.2.0/../../../../powerpc64-ps3-elf/lib/libsysbase.a(getpid.o)
 .debug_info    0x000000000005a285      0x94f /home/louis/Documents/ps3/ps3toolchain/bin/ppu/lib/gcc/powerpc64-ps3-elf/7.2.0/../../../../powerpc64-ps3-elf/lib/libsysbase.a(kill.o)
 .debug_info    0x000000000005abd4     0x147d /home/louis/Documents/ps3/ps3toolchain/bin/ppu/lib/gcc/powerpc64-ps3-elf/7.2.0/../../../../powerpc64-ps3-elf/lib/libsysbase.a(gettod.o)

.debug_abbrev   0x0000000000000000    0x101d7
 *(.debug_abbrev)
 .debug_abbrev  0x0000000000000000      0x21d /home/louis/Documents/ps3/ps3toolchain/bin/ppu/lib/gcc/powerpc64-ps3-elf/7.2.0/../../../../powerpc64-ps3-elf/lib/libm.a(lib_a-sf_cos.o)
 .debug_abbrev  0x000000000000021d      0x28d /home/louis/Documents/ps3/ps3toolchain/bin/ppu/lib/gcc/powerpc64-ps3-elf/7.2.0/../../../../powerpc64-ps3-elf/lib/libm.a(lib_a-sf_sine.o)
 .debug_abbrev  0x00000000000004aa      0x21d /home/louis/Documents/ps3/ps3toolchain/bin/ppu/lib/gcc/powerpc64-ps3-elf/7.2.0/../../../../powerpc64-ps3-elf/lib/libm.a(lib_a-sf_sin.o)
 .debug_abbrev  0x00000000000006c7      0x27a /home/louis/Documents/ps3/ps3toolchain/bin/ppu/lib/gcc/powerpc64-ps3-elf/7.2.0/../../../../powerpc64-ps3-elf/lib/libm.a(lib_a-sf_sqrt.o)
 .debug_abbrev  0x0000000000000941      0x277 /home/louis/Documents/ps3/ps3toolchain/bin/ppu/lib/gcc/powerpc64-ps3-elf/7.2.0/../../../../powerpc64-ps3-elf/lib/libm.a(lib_a-sf_tan.o)
 .debug_abbrev  0x0000000000000bb8      0x1e4 /home/louis/Documents/ps3/ps3toolchain/bin/ppu/lib/gcc/powerpc64-ps3-elf/7.2.0/../../../../powerpc64-ps3-elf/lib/libm.a(lib_a-s_mathcnst.o)
 .debug_abbrev  0x0000000000000d9c      0x269 /home/louis/Documents/ps3/ps3toolchain/bin/ppu/lib/gcc/powerpc64-ps3-elf/7.2.0/../../../../powerpc64-ps3-elf/lib/libm.a(lib_a-s_sqrt.o)
 .debug_abbrev  0x0000000000001005      0x22a /home/louis/Documents/ps3/ps3toolchain/bin/ppu/lib/gcc/powerpc64-ps3-elf/7.2.0/../../../../powerpc64-ps3-elf/lib/libm.a(lib_a-sf_fabs.o)
 .debug_abbrev  0x000000000000122f      0x23b /home/louis/Documents/ps3/ps3toolchain/bin/ppu/lib/gcc/powerpc64-ps3-elf/7.2.0/../../../../powerpc64-ps3-elf/lib/libm.a(lib_a-sf_floor.o)
 .debug_abbrev  0x000000000000146a      0x285 /home/louis/Documents/ps3/ps3toolchain/bin/ppu/lib/gcc/powerpc64-ps3-elf/7.2.0/../../../../powerpc64-ps3-elf/lib/libm.a(lib_a-sf_frexp.o)
 .debug_abbrev  0x00000000000016ef      0x221 /home/louis/Documents/ps3/ps3toolchain/bin/ppu/lib/gcc/powerpc64-ps3-elf/7.2.0/../../../../powerpc64-ps3-elf/lib/libm.a(lib_a-sf_ispos.o)
 .debug_abbrev  0x0000000000001910      0x26d /home/louis/Documents/ps3/ps3toolchain/bin/ppu/lib/gcc/powerpc64-ps3-elf/7.2.0/../../../../powerpc64-ps3-elf/lib/libm.a(lib_a-sf_ldexp.o)
 .debug_abbrev  0x0000000000001b7d      0x253 /home/louis/Documents/ps3/ps3toolchain/bin/ppu/lib/gcc/powerpc64-ps3-elf/7.2.0/../../../../powerpc64-ps3-elf/lib/libm.a(lib_a-sf_modf.o)
 .debug_abbrev  0x0000000000001dd0      0x221 /home/louis/Documents/ps3/ps3toolchain/bin/ppu/lib/gcc/powerpc64-ps3-elf/7.2.0/../../../../powerpc64-ps3-elf/lib/libm.a(lib_a-sf_numtest.o)
 .debug_abbrev  0x0000000000001ff1      0x272 /home/louis/Documents/ps3/ps3toolchain/bin/ppu/lib/gcc/powerpc64-ps3-elf/7.2.0/../../../../powerpc64-ps3-elf/lib/libm.a(lib_a-s_frexp.o)
 .debug_abbrev  0x0000000000002263      0x223 /home/louis/Documents/ps3/ps3toolchain/bin/ppu/lib/gcc/powerpc64-ps3-elf/7.2.0/../../../../powerpc64-ps3-elf/lib/libm.a(lib_a-s_ispos.o)
 .debug_abbrev  0x0000000000002486      0x267 /home/louis/Documents/ps3/ps3toolchain/bin/ppu/lib/gcc/powerpc64-ps3-elf/7.2.0/../../../../powerpc64-ps3-elf/lib/libm.a(lib_a-s_ldexp.o)
 .debug_abbrev  0x00000000000026ed      0x230 /home/louis/Documents/ps3/ps3toolchain/bin/ppu/lib/gcc/powerpc64-ps3-elf/7.2.0/../../../../powerpc64-ps3-elf/lib/libm.a(lib_a-s_numtest.o)
 .debug_abbrev  0x000000000000291d      0x1d4 /home/louis/Documents/ps3/ps3toolchain/bin/ppu/lib/gcc/powerpc64-ps3-elf/7.2.0/../../../../powerpc64-ps3-elf/lib/libsysbase.a(syscalls.o)
 .debug_abbrev  0x0000000000002af1      0x24e /home/louis/Documents/ps3/ps3toolchain/bin/ppu/lib/gcc/powerpc64-ps3-elf/7.2.0/../../../../powerpc64-ps3-elf/lib/libsysbase.a(sleep.o)
 .debug_abbrev  0x0000000000002d3f      0x202 /home/louis/Documents/ps3/ps3toolchain/bin/ppu/lib/gcc/powerpc64-ps3-elf/7.2.0/../../../../powerpc64-ps3-elf/lib/libc.a(lib_a-atexit.o)
 .debug_abbrev  0x0000000000002f41      0x211 /home/louis/Documents/ps3/ps3toolchain/bin/ppu/lib/gcc/powerpc64-ps3-elf/7.2.0/../../../../powerpc64-ps3-elf/lib/libc.a(lib_a-calloc.o)
 .debug_abbrev  0x0000000000003152      0x239 /home/louis/Documents/ps3/ps3toolchain/bin/ppu/lib/gcc/powerpc64-ps3-elf/7.2.0/../../../../powerpc64-ps3-elf/lib/libc.a(lib_a-callocr.o)
 .debug_abbrev  0x000000000000338b      0x1d0 /home/louis/Documents/ps3/ps3toolchain/bin/ppu/lib/gcc/powerpc64-ps3-elf/7.2.0/../../../../powerpc64-ps3-elf/lib/libc.a(lib_a-errno.o)
 .debug_abbrev  0x000000000000355b      0x1f4 /home/louis/Documents/ps3/ps3toolchain/bin/ppu/lib/gcc/powerpc64-ps3-elf/7.2.0/../../../../powerpc64-ps3-elf/lib/libc.a(lib_a-exit.o)
 .debug_abbrev  0x000000000000374f      0x22a /home/louis/Documents/ps3/ps3toolchain/bin/ppu/lib/gcc/powerpc64-ps3-elf/7.2.0/../../../../powerpc64-ps3-elf/lib/libc.a(lib_a-fprintf.o)
 .debug_abbrev  0x0000000000003979      0x210 /home/louis/Documents/ps3/ps3toolchain/bin/ppu/lib/gcc/powerpc64-ps3-elf/7.2.0/../../../../powerpc64-ps3-elf/lib/libc.a(lib_a-getreent.o)
 .debug_abbrev  0x0000000000003b89      0x196 /home/louis/Documents/ps3/ps3toolchain/bin/ppu/lib/gcc/powerpc64-ps3-elf/7.2.0/../../../../powerpc64-ps3-elf/lib/libc.a(lib_a-impure.o)
 .debug_abbrev  0x0000000000003d1f      0x202 /home/louis/Documents/ps3/ps3toolchain/bin/ppu/lib/gcc/powerpc64-ps3-elf/7.2.0/../../../../powerpc64-ps3-elf/lib/libc.a(lib_a-malign.o)
 .debug_abbrev  0x0000000000003f21      0x22e /home/louis/Documents/ps3/ps3toolchain/bin/ppu/lib/gcc/powerpc64-ps3-elf/7.2.0/../../../../powerpc64-ps3-elf/lib/libc.a(lib_a-malignr.o)
 .debug_abbrev  0x000000000000414f      0x21c /home/louis/Documents/ps3/ps3toolchain/bin/ppu/lib/gcc/powerpc64-ps3-elf/7.2.0/../../../../powerpc64-ps3-elf/lib/libc.a(lib_a-malloc.o)
 .debug_abbrev  0x000000000000436b      0x2d1 /home/louis/Documents/ps3/ps3toolchain/bin/ppu/lib/gcc/powerpc64-ps3-elf/7.2.0/../../../../powerpc64-ps3-elf/lib/libc.a(lib_a-mallocr.o)
 .debug_abbrev  0x000000000000463c      0x1df /home/louis/Documents/ps3/ps3toolchain/bin/ppu/lib/gcc/powerpc64-ps3-elf/7.2.0/../../../../powerpc64-ps3-elf/lib/libc.a(lib_a-memcpy.o)
 .debug_abbrev  0x000000000000481b      0x1da /home/louis/Documents/ps3/ps3toolchain/bin/ppu/lib/gcc/powerpc64-ps3-elf/7.2.0/../../../../powerpc64-ps3-elf/lib/libc.a(lib_a-memset.o)
 .debug_abbrev  0x00000000000049f5      0x1e0 /home/louis/Documents/ps3/ps3toolchain/bin/ppu/lib/gcc/powerpc64-ps3-elf/7.2.0/../../../../powerpc64-ps3-elf/lib/libc.a(lib_a-mlock.o)
 .debug_abbrev  0x0000000000004bd5      0x276 /home/louis/Documents/ps3/ps3toolchain/bin/ppu/lib/gcc/powerpc64-ps3-elf/7.2.0/../../../../powerpc64-ps3-elf/lib/libc.a(lib_a-perror.o)
 .debug_abbrev  0x0000000000004e4b      0x211 /home/louis/Documents/ps3/ps3toolchain/bin/ppu/lib/gcc/powerpc64-ps3-elf/7.2.0/../../../../powerpc64-ps3-elf/lib/libc.a(lib_a-realloc.o)
 .debug_abbrev  0x000000000000505c      0x256 /home/louis/Documents/ps3/ps3toolchain/bin/ppu/lib/gcc/powerpc64-ps3-elf/7.2.0/../../../../powerpc64-ps3-elf/lib/libc.a(lib_a-reallocr.o)
 .debug_abbrev  0x00000000000052b2      0x27c /home/louis/Documents/ps3/ps3toolchain/bin/ppu/lib/gcc/powerpc64-ps3-elf/7.2.0/../../../../powerpc64-ps3-elf/lib/libc.a(lib_a-sscanf.o)
 .debug_abbrev  0x000000000000552e      0x261 /home/louis/Documents/ps3/ps3toolchain/bin/ppu/lib/gcc/powerpc64-ps3-elf/7.2.0/../../../../powerpc64-ps3-elf/lib/libc.a(lib_a-stdio.o)
 .debug_abbrev  0x000000000000578f      0x20b /home/louis/Documents/ps3/ps3toolchain/bin/ppu/lib/gcc/powerpc64-ps3-elf/7.2.0/../../../../powerpc64-ps3-elf/lib/libc.a(lib_a-strcasecmp.o)
 .debug_abbrev  0x000000000000599a      0x1da /home/louis/Documents/ps3/ps3toolchain/bin/ppu/lib/gcc/powerpc64-ps3-elf/7.2.0/../../../../powerpc64-ps3-elf/lib/libc.a(lib_a-strchr.o)
 .debug_abbrev  0x0000000000005b74      0x1da /home/louis/Documents/ps3/ps3toolchain/bin/ppu/lib/gcc/powerpc64-ps3-elf/7.2.0/../../../../powerpc64-ps3-elf/lib/libc.a(lib_a-strcpy.o)
 .debug_abbrev  0x0000000000005d4e      0x202 /home/louis/Documents/ps3/ps3toolchain/bin/ppu/lib/gcc/powerpc64-ps3-elf/7.2.0/../../../../powerpc64-ps3-elf/lib/libc.a(lib_a-strdup.o)
 .debug_abbrev  0x0000000000005f50      0x220 /home/louis/Documents/ps3/ps3toolchain/bin/ppu/lib/gcc/powerpc64-ps3-elf/7.2.0/../../../../powerpc64-ps3-elf/lib/libc.a(lib_a-strdup_r.o)
 .debug_abbrev  0x0000000000006170      0x22c /home/louis/Documents/ps3/ps3toolchain/bin/ppu/lib/gcc/powerpc64-ps3-elf/7.2.0/../../../../powerpc64-ps3-elf/lib/libc.a(lib_a-strerror.o)
 .debug_abbrev  0x000000000000639c      0x1bc /home/louis/Documents/ps3/ps3toolchain/bin/ppu/lib/gcc/powerpc64-ps3-elf/7.2.0/../../../../powerpc64-ps3-elf/lib/libc.a(lib_a-strlen.o)
 .debug_abbrev  0x0000000000006558      0x1d4 /home/louis/Documents/ps3/ps3toolchain/bin/ppu/lib/gcc/powerpc64-ps3-elf/7.2.0/../../../../powerpc64-ps3-elf/lib/libc.a(lib_a-strncat.o)
 .debug_abbrev  0x000000000000672c      0x1e7 /home/louis/Documents/ps3/ps3toolchain/bin/ppu/lib/gcc/powerpc64-ps3-elf/7.2.0/../../../../powerpc64-ps3-elf/lib/libc.a(lib_a-strncpy.o)
 .debug_abbrev  0x0000000000006913      0x329 /home/louis/Documents/ps3/ps3toolchain/bin/ppu/lib/gcc/powerpc64-ps3-elf/7.2.0/../../../../powerpc64-ps3-elf/lib/libc.a(lib_a-svfscanf.o)
 .debug_abbrev  0x0000000000006c3c      0x200 /home/louis/Documents/ps3/ps3toolchain/bin/ppu/lib/gcc/powerpc64-ps3-elf/7.2.0/../../../../powerpc64-ps3-elf/lib/libc.a(lib_a-time.o)
 .debug_abbrev  0x0000000000006e3c       0x6d /home/louis/Documents/ps3/ps3toolchain/bin/ppu/lib/gcc/powerpc64-ps3-elf/7.2.0/../../../../powerpc64-ps3-elf/lib/libc.a(lib_a-u_strerr.o)
 .debug_abbrev  0x0000000000006ea9      0x400 /home/louis/Documents/ps3/ps3toolchain/bin/ppu/lib/gcc/powerpc64-ps3-elf/7.2.0/../../../../powerpc64-ps3-elf/lib/libc.a(lib_a-vfprintf.o)
 .debug_abbrev  0x00000000000072a9      0x22c /home/louis/Documents/ps3/ps3toolchain/bin/ppu/lib/gcc/powerpc64-ps3-elf/7.2.0/../../../../powerpc64-ps3-elf/lib/libc.a(lib_a-wsetup.o)
 .debug_abbrev  0x00000000000074d5      0x24d /home/louis/Documents/ps3/ps3toolchain/bin/ppu/lib/gcc/powerpc64-ps3-elf/7.2.0/../../../../powerpc64-ps3-elf/lib/libc.a(lib_a-__atexit.o)
 .debug_abbrev  0x0000000000007722      0x23b /home/louis/Documents/ps3/ps3toolchain/bin/ppu/lib/gcc/powerpc64-ps3-elf/7.2.0/../../../../powerpc64-ps3-elf/lib/libc.a(lib_a-__call_atexit.o)
 .debug_abbrev  0x000000000000795d       0x53 /home/louis/Documents/ps3/ps3toolchain/bin/ppu/lib/gcc/powerpc64-ps3-elf/7.2.0/../../../../powerpc64-ps3-elf/lib/libc.a(lib_a-ctype_.o)
 .debug_abbrev  0x00000000000079b0      0x2d4 /home/louis/Documents/ps3/ps3toolchain/bin/ppu/lib/gcc/powerpc64-ps3-elf/7.2.0/../../../../powerpc64-ps3-elf/lib/libc.a(lib_a-dtoa.o)
 .debug_abbrev  0x0000000000007c84      0x2ee /home/louis/Documents/ps3/ps3toolchain/bin/ppu/lib/gcc/powerpc64-ps3-elf/7.2.0/../../../../powerpc64-ps3-elf/lib/libc.a(lib_a-fflush.o)
 .debug_abbrev  0x0000000000007f72      0x3ab /home/louis/Documents/ps3/ps3toolchain/bin/ppu/lib/gcc/powerpc64-ps3-elf/7.2.0/../../../../powerpc64-ps3-elf/lib/libc.a(lib_a-findfp.o)
 .debug_abbrev  0x000000000000831d      0x26c /home/louis/Documents/ps3/ps3toolchain/bin/ppu/lib/gcc/powerpc64-ps3-elf/7.2.0/../../../../powerpc64-ps3-elf/lib/libc.a(lib_a-fputc.o)
 .debug_abbrev  0x0000000000008589      0x27f /home/louis/Documents/ps3/ps3toolchain/bin/ppu/lib/gcc/powerpc64-ps3-elf/7.2.0/../../../../powerpc64-ps3-elf/lib/libc.a(lib_a-fputs.o)
 .debug_abbrev  0x0000000000008808      0x277 /home/louis/Documents/ps3/ps3toolchain/bin/ppu/lib/gcc/powerpc64-ps3-elf/7.2.0/../../../../powerpc64-ps3-elf/lib/libc.a(lib_a-freer.o)
 .debug_abbrev  0x0000000000008a7f      0x270 /home/louis/Documents/ps3/ps3toolchain/bin/ppu/lib/gcc/powerpc64-ps3-elf/7.2.0/../../../../powerpc64-ps3-elf/lib/libc.a(lib_a-fvwrite.o)
 .debug_abbrev  0x0000000000008cef      0x219 /home/louis/Documents/ps3/ps3toolchain/bin/ppu/lib/gcc/powerpc64-ps3-elf/7.2.0/../../../../powerpc64-ps3-elf/lib/libc.a(lib_a-fwalk.o)
 .debug_abbrev  0x0000000000008f08      0x1c1 /home/louis/Documents/ps3/ps3toolchain/bin/ppu/lib/gcc/powerpc64-ps3-elf/7.2.0/../../../../powerpc64-ps3-elf/lib/libc.a(lib_a-iswspace.o)
 .debug_abbrev  0x00000000000090c9      0x2e7 /home/louis/Documents/ps3/ps3toolchain/bin/ppu/lib/gcc/powerpc64-ps3-elf/7.2.0/../../../../powerpc64-ps3-elf/lib/libc.a(lib_a-locale.o)
 .debug_abbrev  0x00000000000093b0      0x202 /home/louis/Documents/ps3/ps3toolchain/bin/ppu/lib/gcc/powerpc64-ps3-elf/7.2.0/../../../../powerpc64-ps3-elf/lib/libc.a(lib_a-lock_recursive.o)
 .debug_abbrev  0x00000000000095b2      0x241 /home/louis/Documents/ps3/ps3toolchain/bin/ppu/lib/gcc/powerpc64-ps3-elf/7.2.0/../../../../powerpc64-ps3-elf/lib/libc.a(lib_a-makebuf.o)
 .debug_abbrev  0x00000000000097f3      0x21f /home/louis/Documents/ps3/ps3toolchain/bin/ppu/lib/gcc/powerpc64-ps3-elf/7.2.0/../../../../powerpc64-ps3-elf/lib/libc.a(lib_a-mbrtowc.o)
 .debug_abbrev  0x0000000000009a12      0x24c /home/louis/Documents/ps3/ps3toolchain/bin/ppu/lib/gcc/powerpc64-ps3-elf/7.2.0/../../../../powerpc64-ps3-elf/lib/libc.a(lib_a-mbtowc_r.o)
 .debug_abbrev  0x0000000000009c5e      0x1ee /home/louis/Documents/ps3/ps3toolchain/bin/ppu/lib/gcc/powerpc64-ps3-elf/7.2.0/../../../../powerpc64-ps3-elf/lib/libc.a(lib_a-memchr.o)
 .debug_abbrev  0x0000000000009e4c      0x1df /home/louis/Documents/ps3/ps3toolchain/bin/ppu/lib/gcc/powerpc64-ps3-elf/7.2.0/../../../../powerpc64-ps3-elf/lib/libc.a(lib_a-memmove.o)
 .debug_abbrev  0x000000000000a02b      0x3a3 /home/louis/Documents/ps3/ps3toolchain/bin/ppu/lib/gcc/powerpc64-ps3-elf/7.2.0/../../../../powerpc64-ps3-elf/lib/libc.a(lib_a-mprec.o)
 .debug_abbrev  0x000000000000a3ce      0x25d /home/louis/Documents/ps3/ps3toolchain/bin/ppu/lib/gcc/powerpc64-ps3-elf/7.2.0/../../../../powerpc64-ps3-elf/lib/libc.a(lib_a-putc.o)
 .debug_abbrev  0x000000000000a62b      0x1fd /home/louis/Documents/ps3/ps3toolchain/bin/ppu/lib/gcc/powerpc64-ps3-elf/7.2.0/../../../../powerpc64-ps3-elf/lib/libc.a(lib_a-sccl.o)
 .debug_abbrev  0x000000000000a828      0x1fe /home/louis/Documents/ps3/ps3toolchain/bin/ppu/lib/gcc/powerpc64-ps3-elf/7.2.0/../../../../powerpc64-ps3-elf/lib/libc.a(lib_a-sf_nan.o)
 .debug_abbrev  0x000000000000aa26      0x200 /home/louis/Documents/ps3/ps3toolchain/bin/ppu/lib/gcc/powerpc64-ps3-elf/7.2.0/../../../../powerpc64-ps3-elf/lib/libc.a(lib_a-s_fpclassify.o)
 .debug_abbrev  0x000000000000ac26      0x26f /home/louis/Documents/ps3/ps3toolchain/bin/ppu/lib/gcc/powerpc64-ps3-elf/7.2.0/../../../../powerpc64-ps3-elf/lib/libc.a(lib_a-sprintf.o)
 .debug_abbrev  0x000000000000ae95      0x1bc /home/louis/Documents/ps3/ps3toolchain/bin/ppu/lib/gcc/powerpc64-ps3-elf/7.2.0/../../../../powerpc64-ps3-elf/lib/libc.a(lib_a-strcmp.o)
 .debug_abbrev  0x000000000000b051      0x3c3 /home/louis/Documents/ps3/ps3toolchain/bin/ppu/lib/gcc/powerpc64-ps3-elf/7.2.0/../../../../powerpc64-ps3-elf/lib/libc.a(lib_a-strtod.o)
 .debug_abbrev  0x000000000000b414      0x1f0 /home/louis/Documents/ps3/ps3toolchain/bin/ppu/lib/gcc/powerpc64-ps3-elf/7.2.0/../../../../powerpc64-ps3-elf/lib/libc.a(lib_a-strtoll_r.o)
 .debug_abbrev  0x000000000000b604      0x235 /home/louis/Documents/ps3/ps3toolchain/bin/ppu/lib/gcc/powerpc64-ps3-elf/7.2.0/../../../../powerpc64-ps3-elf/lib/libc.a(lib_a-strtol.o)
 .debug_abbrev  0x000000000000b839      0x1f0 /home/louis/Documents/ps3/ps3toolchain/bin/ppu/lib/gcc/powerpc64-ps3-elf/7.2.0/../../../../powerpc64-ps3-elf/lib/libc.a(lib_a-strtoull_r.o)
 .debug_abbrev  0x000000000000ba29      0x235 /home/louis/Documents/ps3/ps3toolchain/bin/ppu/lib/gcc/powerpc64-ps3-elf/7.2.0/../../../../powerpc64-ps3-elf/lib/libc.a(lib_a-strtoul.o)
 .debug_abbrev  0x000000000000bc5e      0x33d /home/louis/Documents/ps3/ps3toolchain/bin/ppu/lib/gcc/powerpc64-ps3-elf/7.2.0/../../../../powerpc64-ps3-elf/lib/libc.a(lib_a-svfiscanf.o)
 .debug_abbrev  0x000000000000bf9b      0x3c2 /home/louis/Documents/ps3/ps3toolchain/bin/ppu/lib/gcc/powerpc64-ps3-elf/7.2.0/../../../../powerpc64-ps3-elf/lib/libc.a(lib_a-svfprintf.o)
 .debug_abbrev  0x000000000000c35d      0x2eb /home/louis/Documents/ps3/ps3toolchain/bin/ppu/lib/gcc/powerpc64-ps3-elf/7.2.0/../../../../powerpc64-ps3-elf/lib/libc.a(lib_a-ungetc.o)
 .debug_abbrev  0x000000000000c648      0x410 /home/louis/Documents/ps3/ps3toolchain/bin/ppu/lib/gcc/powerpc64-ps3-elf/7.2.0/../../../../powerpc64-ps3-elf/lib/libc.a(lib_a-vfiprintf.o)
 .debug_abbrev  0x000000000000ca58      0x265 /home/louis/Documents/ps3/ps3toolchain/bin/ppu/lib/gcc/powerpc64-ps3-elf/7.2.0/../../../../powerpc64-ps3-elf/lib/libc.a(lib_a-wbuf.o)
 .debug_abbrev  0x000000000000ccbd      0x2c4 /home/louis/Documents/ps3/ps3toolchain/bin/ppu/lib/gcc/powerpc64-ps3-elf/7.2.0/../../../../powerpc64-ps3-elf/lib/libc.a(lib_a-fclose.o)
 .debug_abbrev  0x000000000000cf81      0x2b5 /home/louis/Documents/ps3/ps3toolchain/bin/ppu/lib/gcc/powerpc64-ps3-elf/7.2.0/../../../../powerpc64-ps3-elf/lib/libc.a(lib_a-fputwc.o)
 .debug_abbrev  0x000000000000d236      0x3b5 /home/louis/Documents/ps3/ps3toolchain/bin/ppu/lib/gcc/powerpc64-ps3-elf/7.2.0/../../../../powerpc64-ps3-elf/lib/libc.a(lib_a-gdtoa-gethex.o)
 .debug_abbrev  0x000000000000d5eb      0x2b8 /home/louis/Documents/ps3/ps3toolchain/bin/ppu/lib/gcc/powerpc64-ps3-elf/7.2.0/../../../../powerpc64-ps3-elf/lib/libc.a(lib_a-gdtoa-hexnan.o)
 .debug_abbrev  0x000000000000d8a3      0x218 /home/louis/Documents/ps3/ps3toolchain/bin/ppu/lib/gcc/powerpc64-ps3-elf/7.2.0/../../../../powerpc64-ps3-elf/lib/libc.a(lib_a-lock_internal.o)
 .debug_abbrev  0x000000000000dabb      0x1bc /home/louis/Documents/ps3/ps3toolchain/bin/ppu/lib/gcc/powerpc64-ps3-elf/7.2.0/../../../../powerpc64-ps3-elf/lib/libc.a(lib_a-strncmp.o)
 .debug_abbrev  0x000000000000dc77      0x329 /home/louis/Documents/ps3/ps3toolchain/bin/ppu/lib/gcc/powerpc64-ps3-elf/7.2.0/../../../../powerpc64-ps3-elf/lib/libc.a(lib_a-svfiprintf.o)
 .debug_abbrev  0x000000000000dfa0      0x22e /home/louis/Documents/ps3/ps3toolchain/bin/ppu/lib/gcc/powerpc64-ps3-elf/7.2.0/../../../../powerpc64-ps3-elf/lib/libc.a(lib_a-wcrtomb.o)
 .debug_abbrev  0x000000000000e1ce      0x23d /home/louis/Documents/ps3/ps3toolchain/bin/ppu/lib/gcc/powerpc64-ps3-elf/7.2.0/../../../../powerpc64-ps3-elf/lib/libc.a(lib_a-wctomb_r.o)
 .debug_abbrev  0x000000000000e40b      0x1e5 /home/louis/Documents/ps3/ps3toolchain/bin/ppu/lib/gcc/powerpc64-ps3-elf/7.2.0/../../../../powerpc64-ps3-elf/lib/libc.a(lib_a-abort.o)
 .debug_abbrev  0x000000000000e5f0      0x31f /home/louis/Documents/ps3/ps3toolchain/bin/ppu/lib/gcc/powerpc64-ps3-elf/7.2.0/../../../../powerpc64-ps3-elf/lib/libc.a(lib_a-signal.o)
 .debug_abbrev  0x000000000000e90f      0x212 /home/louis/Documents/ps3/ps3toolchain/bin/ppu/lib/gcc/powerpc64-ps3-elf/7.2.0/../../../../powerpc64-ps3-elf/lib/libsysbase.a(close.o)
 .debug_abbrev  0x000000000000eb21      0x221 /home/louis/Documents/ps3/ps3toolchain/bin/ppu/lib/gcc/powerpc64-ps3-elf/7.2.0/../../../../powerpc64-ps3-elf/lib/libsysbase.a(sbrk.o)
 .debug_abbrev  0x000000000000ed42      0x1f9 /home/louis/Documents/ps3/ps3toolchain/bin/ppu/lib/gcc/powerpc64-ps3-elf/7.2.0/../../../../powerpc64-ps3-elf/lib/libsysbase.a(_exit.o)
 .debug_abbrev  0x000000000000ef3b      0x212 /home/louis/Documents/ps3/ps3toolchain/bin/ppu/lib/gcc/powerpc64-ps3-elf/7.2.0/../../../../powerpc64-ps3-elf/lib/libsysbase.a(fstat.o)
 .debug_abbrev  0x000000000000f14d      0x212 /home/louis/Documents/ps3/ps3toolchain/bin/ppu/lib/gcc/powerpc64-ps3-elf/7.2.0/../../../../powerpc64-ps3-elf/lib/libsysbase.a(isatty.o)
 .debug_abbrev  0x000000000000f35f      0x212 /home/louis/Documents/ps3/ps3toolchain/bin/ppu/lib/gcc/powerpc64-ps3-elf/7.2.0/../../../../powerpc64-ps3-elf/lib/libsysbase.a(lseek.o)
 .debug_abbrev  0x000000000000f571      0x212 /home/louis/Documents/ps3/ps3toolchain/bin/ppu/lib/gcc/powerpc64-ps3-elf/7.2.0/../../../../powerpc64-ps3-elf/lib/libsysbase.a(read.o)
 .debug_abbrev  0x000000000000f783      0x212 /home/louis/Documents/ps3/ps3toolchain/bin/ppu/lib/gcc/powerpc64-ps3-elf/7.2.0/../../../../powerpc64-ps3-elf/lib/libsysbase.a(write.o)
 .debug_abbrev  0x000000000000f995      0x23f /home/louis/Documents/ps3/ps3toolchain/bin/ppu/lib/gcc/powerpc64-ps3-elf/7.2.0/../../../../powerpc64-ps3-elf/lib/libsysbase.a(lock.o)
 .debug_abbrev  0x000000000000fbd4      0x212 /home/louis/Documents/ps3/ps3toolchain/bin/ppu/lib/gcc/powerpc64-ps3-elf/7.2.0/../../../../powerpc64-ps3-elf/lib/libsysbase.a(getpid.o)
 .debug_abbrev  0x000000000000fde6      0x1d0 /home/louis/Documents/ps3/ps3toolchain/bin/ppu/lib/gcc/powerpc64-ps3-elf/7.2.0/../../../../powerpc64-ps3-elf/lib/libsysbase.a(kill.o)
 .debug_abbrev  0x000000000000ffb6      0x221 /home/louis/Documents/ps3/ps3toolchain/bin/ppu/lib/gcc/powerpc64-ps3-elf/7.2.0/../../../../powerpc64-ps3-elf/lib/libsysbase.a(gettod.o)

.debug_line     0x0000000000000000    0x17c25
 *(.debug_line)
 .debug_line    0x0000000000000000      0x288 /home/louis/Documents/ps3/ps3toolchain/bin/ppu/lib/gcc/powerpc64-ps3-elf/7.2.0/../../../../powerpc64-ps3-elf/lib/libm.a(lib_a-sf_cos.o)
 .debug_line    0x0000000000000288      0x2f6 /home/louis/Documents/ps3/ps3toolchain/bin/ppu/lib/gcc/powerpc64-ps3-elf/7.2.0/../../../../powerpc64-ps3-elf/lib/libm.a(lib_a-sf_sine.o)
 .debug_line    0x000000000000057e      0x288 /home/louis/Documents/ps3/ps3toolchain/bin/ppu/lib/gcc/powerpc64-ps3-elf/7.2.0/../../../../powerpc64-ps3-elf/lib/libm.a(lib_a-sf_sin.o)
 .debug_line    0x0000000000000806      0x2d5 /home/louis/Documents/ps3/ps3toolchain/bin/ppu/lib/gcc/powerpc64-ps3-elf/7.2.0/../../../../powerpc64-ps3-elf/lib/libm.a(lib_a-sf_sqrt.o)
 .debug_line    0x0000000000000adb      0x2ea /home/louis/Documents/ps3/ps3toolchain/bin/ppu/lib/gcc/powerpc64-ps3-elf/7.2.0/../../../../powerpc64-ps3-elf/lib/libm.a(lib_a-sf_tan.o)
 .debug_line    0x0000000000000dc5      0x275 /home/louis/Documents/ps3/ps3toolchain/bin/ppu/lib/gcc/powerpc64-ps3-elf/7.2.0/../../../../powerpc64-ps3-elf/lib/libm.a(lib_a-s_mathcnst.o)
 .debug_line    0x000000000000103a      0x2d5 /home/louis/Documents/ps3/ps3toolchain/bin/ppu/lib/gcc/powerpc64-ps3-elf/7.2.0/../../../../powerpc64-ps3-elf/lib/libm.a(lib_a-s_sqrt.o)
 .debug_line    0x000000000000130f      0x2b2 /home/louis/Documents/ps3/ps3toolchain/bin/ppu/lib/gcc/powerpc64-ps3-elf/7.2.0/../../../../powerpc64-ps3-elf/lib/libm.a(lib_a-sf_fabs.o)
 .debug_line    0x00000000000015c1      0x2af /home/louis/Documents/ps3/ps3toolchain/bin/ppu/lib/gcc/powerpc64-ps3-elf/7.2.0/../../../../powerpc64-ps3-elf/lib/libm.a(lib_a-sf_floor.o)
 .debug_line    0x0000000000001870      0x340 /home/louis/Documents/ps3/ps3toolchain/bin/ppu/lib/gcc/powerpc64-ps3-elf/7.2.0/../../../../powerpc64-ps3-elf/lib/libm.a(lib_a-sf_frexp.o)
 .debug_line    0x0000000000001bb0      0x328 /home/louis/Documents/ps3/ps3toolchain/bin/ppu/lib/gcc/powerpc64-ps3-elf/7.2.0/../../../../powerpc64-ps3-elf/lib/libm.a(lib_a-sf_ispos.o)
 .debug_line    0x0000000000001ed8      0x35a /home/louis/Documents/ps3/ps3toolchain/bin/ppu/lib/gcc/powerpc64-ps3-elf/7.2.0/../../../../powerpc64-ps3-elf/lib/libm.a(lib_a-sf_ldexp.o)
 .debug_line    0x0000000000002232      0x308 /home/louis/Documents/ps3/ps3toolchain/bin/ppu/lib/gcc/powerpc64-ps3-elf/7.2.0/../../../../powerpc64-ps3-elf/lib/libm.a(lib_a-sf_modf.o)
 .debug_line    0x000000000000253a      0x330 /home/louis/Documents/ps3/ps3toolchain/bin/ppu/lib/gcc/powerpc64-ps3-elf/7.2.0/../../../../powerpc64-ps3-elf/lib/libm.a(lib_a-sf_numtest.o)
 .debug_line    0x000000000000286a      0x341 /home/louis/Documents/ps3/ps3toolchain/bin/ppu/lib/gcc/powerpc64-ps3-elf/7.2.0/../../../../powerpc64-ps3-elf/lib/libm.a(lib_a-s_frexp.o)
 .debug_line    0x0000000000002bab      0x326 /home/louis/Documents/ps3/ps3toolchain/bin/ppu/lib/gcc/powerpc64-ps3-elf/7.2.0/../../../../powerpc64-ps3-elf/lib/libm.a(lib_a-s_ispos.o)
 .debug_line    0x0000000000002ed1      0x360 /home/louis/Documents/ps3/ps3toolchain/bin/ppu/lib/gcc/powerpc64-ps3-elf/7.2.0/../../../../powerpc64-ps3-elf/lib/libm.a(lib_a-s_ldexp.o)
 .debug_line    0x0000000000003231      0x337 /home/louis/Documents/ps3/ps3toolchain/bin/ppu/lib/gcc/powerpc64-ps3-elf/7.2.0/../../../../powerpc64-ps3-elf/lib/libm.a(lib_a-s_numtest.o)
 .debug_line    0x0000000000003568      0x296 /home/louis/Documents/ps3/ps3toolchain/bin/ppu/lib/gcc/powerpc64-ps3-elf/7.2.0/../../../../powerpc64-ps3-elf/lib/libsysbase.a(syscalls.o)
 .debug_line    0x00000000000037fe      0x302 /home/louis/Documents/ps3/ps3toolchain/bin/ppu/lib/gcc/powerpc64-ps3-elf/7.2.0/../../../../powerpc64-ps3-elf/lib/libsysbase.a(sleep.o)
 .debug_line    0x0000000000003b00      0x284 /home/louis/Documents/ps3/ps3toolchain/bin/ppu/lib/gcc/powerpc64-ps3-elf/7.2.0/../../../../powerpc64-ps3-elf/lib/libc.a(lib_a-atexit.o)
 .debug_line    0x0000000000003d84      0x272 /home/louis/Documents/ps3/ps3toolchain/bin/ppu/lib/gcc/powerpc64-ps3-elf/7.2.0/../../../../powerpc64-ps3-elf/lib/libc.a(lib_a-calloc.o)
 .debug_line    0x0000000000003ff6      0x2b4 /home/louis/Documents/ps3/ps3toolchain/bin/ppu/lib/gcc/powerpc64-ps3-elf/7.2.0/../../../../powerpc64-ps3-elf/lib/libc.a(lib_a-callocr.o)
 .debug_line    0x00000000000042aa      0x26f /home/louis/Documents/ps3/ps3toolchain/bin/ppu/lib/gcc/powerpc64-ps3-elf/7.2.0/../../../../powerpc64-ps3-elf/lib/libc.a(lib_a-errno.o)
 .debug_line    0x0000000000004519      0x28c /home/louis/Documents/ps3/ps3toolchain/bin/ppu/lib/gcc/powerpc64-ps3-elf/7.2.0/../../../../powerpc64-ps3-elf/lib/libc.a(lib_a-exit.o)
 .debug_line    0x00000000000047a5      0x296 /home/louis/Documents/ps3/ps3toolchain/bin/ppu/lib/gcc/powerpc64-ps3-elf/7.2.0/../../../../powerpc64-ps3-elf/lib/libc.a(lib_a-fprintf.o)
 .debug_line    0x0000000000004a3b      0x1f9 /home/louis/Documents/ps3/ps3toolchain/bin/ppu/lib/gcc/powerpc64-ps3-elf/7.2.0/../../../../powerpc64-ps3-elf/lib/libc.a(lib_a-getreent.o)
 .debug_line    0x0000000000004c34      0x250 /home/louis/Documents/ps3/ps3toolchain/bin/ppu/lib/gcc/powerpc64-ps3-elf/7.2.0/../../../../powerpc64-ps3-elf/lib/libc.a(lib_a-impure.o)
 .debug_line    0x0000000000004e84      0x27e /home/louis/Documents/ps3/ps3toolchain/bin/ppu/lib/gcc/powerpc64-ps3-elf/7.2.0/../../../../powerpc64-ps3-elf/lib/libc.a(lib_a-malign.o)
 .debug_line    0x0000000000005102      0x306 /home/louis/Documents/ps3/ps3toolchain/bin/ppu/lib/gcc/powerpc64-ps3-elf/7.2.0/../../../../powerpc64-ps3-elf/lib/libc.a(lib_a-malignr.o)
 .debug_line    0x0000000000005408      0x295 /home/louis/Documents/ps3/ps3toolchain/bin/ppu/lib/gcc/powerpc64-ps3-elf/7.2.0/../../../../powerpc64-ps3-elf/lib/libc.a(lib_a-malloc.o)
 .debug_line    0x000000000000569d      0x4fb /home/louis/Documents/ps3/ps3toolchain/bin/ppu/lib/gcc/powerpc64-ps3-elf/7.2.0/../../../../powerpc64-ps3-elf/lib/libc.a(lib_a-mallocr.o)
 .debug_line    0x0000000000005b98      0x29a /home/louis/Documents/ps3/ps3toolchain/bin/ppu/lib/gcc/powerpc64-ps3-elf/7.2.0/../../../../powerpc64-ps3-elf/lib/libc.a(lib_a-memcpy.o)
 .debug_line    0x0000000000005e32      0x2a7 /home/louis/Documents/ps3/ps3toolchain/bin/ppu/lib/gcc/powerpc64-ps3-elf/7.2.0/../../../../powerpc64-ps3-elf/lib/libc.a(lib_a-memset.o)
 .debug_line    0x00000000000060d9      0x27e /home/louis/Documents/ps3/ps3toolchain/bin/ppu/lib/gcc/powerpc64-ps3-elf/7.2.0/../../../../powerpc64-ps3-elf/lib/libc.a(lib_a-mlock.o)
 .debug_line    0x0000000000006357      0x2c9 /home/louis/Documents/ps3/ps3toolchain/bin/ppu/lib/gcc/powerpc64-ps3-elf/7.2.0/../../../../powerpc64-ps3-elf/lib/libc.a(lib_a-perror.o)
 .debug_line    0x0000000000006620      0x27f /home/louis/Documents/ps3/ps3toolchain/bin/ppu/lib/gcc/powerpc64-ps3-elf/7.2.0/../../../../powerpc64-ps3-elf/lib/libc.a(lib_a-realloc.o)
 .debug_line    0x000000000000689f      0x428 /home/louis/Documents/ps3/ps3toolchain/bin/ppu/lib/gcc/powerpc64-ps3-elf/7.2.0/../../../../powerpc64-ps3-elf/lib/libc.a(lib_a-reallocr.o)
 .debug_line    0x0000000000006cc7      0x2f6 /home/louis/Documents/ps3/ps3toolchain/bin/ppu/lib/gcc/powerpc64-ps3-elf/7.2.0/../../../../powerpc64-ps3-elf/lib/libc.a(lib_a-sscanf.o)
 .debug_line    0x0000000000006fbd      0x32e /home/louis/Documents/ps3/ps3toolchain/bin/ppu/lib/gcc/powerpc64-ps3-elf/7.2.0/../../../../powerpc64-ps3-elf/lib/libc.a(lib_a-stdio.o)
 .debug_line    0x00000000000072eb      0x2c1 /home/louis/Documents/ps3/ps3toolchain/bin/ppu/lib/gcc/powerpc64-ps3-elf/7.2.0/../../../../powerpc64-ps3-elf/lib/libc.a(lib_a-strcasecmp.o)
 .debug_line    0x00000000000075ac      0x2a7 /home/louis/Documents/ps3/ps3toolchain/bin/ppu/lib/gcc/powerpc64-ps3-elf/7.2.0/../../../../powerpc64-ps3-elf/lib/libc.a(lib_a-strchr.o)
 .debug_line    0x0000000000007853      0x283 /home/louis/Documents/ps3/ps3toolchain/bin/ppu/lib/gcc/powerpc64-ps3-elf/7.2.0/../../../../powerpc64-ps3-elf/lib/libc.a(lib_a-strcpy.o)
 .debug_line    0x0000000000007ad6      0x27c /home/louis/Documents/ps3/ps3toolchain/bin/ppu/lib/gcc/powerpc64-ps3-elf/7.2.0/../../../../powerpc64-ps3-elf/lib/libc.a(lib_a-strdup.o)
 .debug_line    0x0000000000007d52      0x283 /home/louis/Documents/ps3/ps3toolchain/bin/ppu/lib/gcc/powerpc64-ps3-elf/7.2.0/../../../../powerpc64-ps3-elf/lib/libc.a(lib_a-strdup_r.o)
 .debug_line    0x0000000000007fd5      0x3d7 /home/louis/Documents/ps3/ps3toolchain/bin/ppu/lib/gcc/powerpc64-ps3-elf/7.2.0/../../../../powerpc64-ps3-elf/lib/libc.a(lib_a-strerror.o)
 .debug_line    0x00000000000083ac      0x281 /home/louis/Documents/ps3/ps3toolchain/bin/ppu/lib/gcc/powerpc64-ps3-elf/7.2.0/../../../../powerpc64-ps3-elf/lib/libc.a(lib_a-strlen.o)
 .debug_line    0x000000000000862d      0x28f /home/louis/Documents/ps3/ps3toolchain/bin/ppu/lib/gcc/powerpc64-ps3-elf/7.2.0/../../../../powerpc64-ps3-elf/lib/libc.a(lib_a-strncat.o)
 .debug_line    0x00000000000088bc      0x2a5 /home/louis/Documents/ps3/ps3toolchain/bin/ppu/lib/gcc/powerpc64-ps3-elf/7.2.0/../../../../powerpc64-ps3-elf/lib/libc.a(lib_a-strncpy.o)
 .debug_line    0x0000000000008b61      0x77f /home/louis/Documents/ps3/ps3toolchain/bin/ppu/lib/gcc/powerpc64-ps3-elf/7.2.0/../../../../powerpc64-ps3-elf/lib/libc.a(lib_a-svfscanf.o)
 .debug_line    0x00000000000092e0      0x285 /home/louis/Documents/ps3/ps3toolchain/bin/ppu/lib/gcc/powerpc64-ps3-elf/7.2.0/../../../../powerpc64-ps3-elf/lib/libc.a(lib_a-time.o)
 .debug_line    0x0000000000009565       0x5f /home/louis/Documents/ps3/ps3toolchain/bin/ppu/lib/gcc/powerpc64-ps3-elf/7.2.0/../../../../powerpc64-ps3-elf/lib/libc.a(lib_a-u_strerr.o)
 .debug_line    0x00000000000095c4      0xaea /home/louis/Documents/ps3/ps3toolchain/bin/ppu/lib/gcc/powerpc64-ps3-elf/7.2.0/../../../../powerpc64-ps3-elf/lib/libc.a(lib_a-vfprintf.o)
 .debug_line    0x000000000000a0ae      0x311 /home/louis/Documents/ps3/ps3toolchain/bin/ppu/lib/gcc/powerpc64-ps3-elf/7.2.0/../../../../powerpc64-ps3-elf/lib/libc.a(lib_a-wsetup.o)
 .debug_line    0x000000000000a3bf      0x2b5 /home/louis/Documents/ps3/ps3toolchain/bin/ppu/lib/gcc/powerpc64-ps3-elf/7.2.0/../../../../powerpc64-ps3-elf/lib/libc.a(lib_a-__atexit.o)
 .debug_line    0x000000000000a674      0x2e4 /home/louis/Documents/ps3/ps3toolchain/bin/ppu/lib/gcc/powerpc64-ps3-elf/7.2.0/../../../../powerpc64-ps3-elf/lib/libc.a(lib_a-__call_atexit.o)
 .debug_line    0x000000000000a958       0x73 /home/louis/Documents/ps3/ps3toolchain/bin/ppu/lib/gcc/powerpc64-ps3-elf/7.2.0/../../../../powerpc64-ps3-elf/lib/libc.a(lib_a-ctype_.o)
 .debug_line    0x000000000000a9cb      0x86c /home/louis/Documents/ps3/ps3toolchain/bin/ppu/lib/gcc/powerpc64-ps3-elf/7.2.0/../../../../powerpc64-ps3-elf/lib/libc.a(lib_a-dtoa.o)
 .debug_line    0x000000000000b237      0x3fd /home/louis/Documents/ps3/ps3toolchain/bin/ppu/lib/gcc/powerpc64-ps3-elf/7.2.0/../../../../powerpc64-ps3-elf/lib/libc.a(lib_a-fflush.o)
 .debug_line    0x000000000000b634      0x502 /home/louis/Documents/ps3/ps3toolchain/bin/ppu/lib/gcc/powerpc64-ps3-elf/7.2.0/../../../../powerpc64-ps3-elf/lib/libc.a(lib_a-findfp.o)
 .debug_line    0x000000000000bb36      0x2f9 /home/louis/Documents/ps3/ps3toolchain/bin/ppu/lib/gcc/powerpc64-ps3-elf/7.2.0/../../../../powerpc64-ps3-elf/lib/libc.a(lib_a-fputc.o)
 .debug_line    0x000000000000be2f      0x2ff /home/louis/Documents/ps3/ps3toolchain/bin/ppu/lib/gcc/powerpc64-ps3-elf/7.2.0/../../../../powerpc64-ps3-elf/lib/libc.a(lib_a-fputs.o)
 .debug_line    0x000000000000c12e      0x3ac /home/louis/Documents/ps3/ps3toolchain/bin/ppu/lib/gcc/powerpc64-ps3-elf/7.2.0/../../../../powerpc64-ps3-elf/lib/libc.a(lib_a-freer.o)
 .debug_line    0x000000000000c4da      0x41f /home/louis/Documents/ps3/ps3toolchain/bin/ppu/lib/gcc/powerpc64-ps3-elf/7.2.0/../../../../powerpc64-ps3-elf/lib/libc.a(lib_a-fvwrite.o)
 .debug_line    0x000000000000c8f9      0x2fc /home/louis/Documents/ps3/ps3toolchain/bin/ppu/lib/gcc/powerpc64-ps3-elf/7.2.0/../../../../powerpc64-ps3-elf/lib/libc.a(lib_a-fwalk.o)
 .debug_line    0x000000000000cbf5      0x289 /home/louis/Documents/ps3/ps3toolchain/bin/ppu/lib/gcc/powerpc64-ps3-elf/7.2.0/../../../../powerpc64-ps3-elf/lib/libc.a(lib_a-iswspace.o)
 .debug_line    0x000000000000ce7e      0x385 /home/louis/Documents/ps3/ps3toolchain/bin/ppu/lib/gcc/powerpc64-ps3-elf/7.2.0/../../../../powerpc64-ps3-elf/lib/libc.a(lib_a-locale.o)
 .debug_line    0x000000000000d203      0x26f /home/louis/Documents/ps3/ps3toolchain/bin/ppu/lib/gcc/powerpc64-ps3-elf/7.2.0/../../../../powerpc64-ps3-elf/lib/libc.a(lib_a-lock_recursive.o)
 .debug_line    0x000000000000d472      0x342 /home/louis/Documents/ps3/ps3toolchain/bin/ppu/lib/gcc/powerpc64-ps3-elf/7.2.0/../../../../powerpc64-ps3-elf/lib/libc.a(lib_a-makebuf.o)
 .debug_line    0x000000000000d7b4      0x2e9 /home/louis/Documents/ps3/ps3toolchain/bin/ppu/lib/gcc/powerpc64-ps3-elf/7.2.0/../../../../powerpc64-ps3-elf/lib/libc.a(lib_a-mbrtowc.o)
 .debug_line    0x000000000000da9d      0x2c1 /home/louis/Documents/ps3/ps3toolchain/bin/ppu/lib/gcc/powerpc64-ps3-elf/7.2.0/../../../../powerpc64-ps3-elf/lib/libc.a(lib_a-mbtowc_r.o)
 .debug_line    0x000000000000dd5e      0x2ad /home/louis/Documents/ps3/ps3toolchain/bin/ppu/lib/gcc/powerpc64-ps3-elf/7.2.0/../../../../powerpc64-ps3-elf/lib/libc.a(lib_a-memchr.o)
 .debug_line    0x000000000000e00b      0x2a5 /home/louis/Documents/ps3/ps3toolchain/bin/ppu/lib/gcc/powerpc64-ps3-elf/7.2.0/../../../../powerpc64-ps3-elf/lib/libc.a(lib_a-memmove.o)
 .debug_line    0x000000000000e2b0      0x9ab /home/louis/Documents/ps3/ps3toolchain/bin/ppu/lib/gcc/powerpc64-ps3-elf/7.2.0/../../../../powerpc64-ps3-elf/lib/libc.a(lib_a-mprec.o)
 .debug_line    0x000000000000ec5b      0x337 /home/louis/Documents/ps3/ps3toolchain/bin/ppu/lib/gcc/powerpc64-ps3-elf/7.2.0/../../../../powerpc64-ps3-elf/lib/libc.a(lib_a-putc.o)
 .debug_line    0x000000000000ef92      0x2d1 /home/louis/Documents/ps3/ps3toolchain/bin/ppu/lib/gcc/powerpc64-ps3-elf/7.2.0/../../../../powerpc64-ps3-elf/lib/libc.a(lib_a-sccl.o)
 .debug_line    0x000000000000f263      0x2e1 /home/louis/Documents/ps3/ps3toolchain/bin/ppu/lib/gcc/powerpc64-ps3-elf/7.2.0/../../../../powerpc64-ps3-elf/lib/libc.a(lib_a-sf_nan.o)
 .debug_line    0x000000000000f544      0x321 /home/louis/Documents/ps3/ps3toolchain/bin/ppu/lib/gcc/powerpc64-ps3-elf/7.2.0/../../../../powerpc64-ps3-elf/lib/libc.a(lib_a-s_fpclassify.o)
 .debug_line    0x000000000000f865      0x2f5 /home/louis/Documents/ps3/ps3toolchain/bin/ppu/lib/gcc/powerpc64-ps3-elf/7.2.0/../../../../powerpc64-ps3-elf/lib/libc.a(lib_a-sprintf.o)
 .debug_line    0x000000000000fb5a      0x290 /home/louis/Documents/ps3/ps3toolchain/bin/ppu/lib/gcc/powerpc64-ps3-elf/7.2.0/../../../../powerpc64-ps3-elf/lib/libc.a(lib_a-strcmp.o)
 .debug_line    0x000000000000fdea      0x740 /home/louis/Documents/ps3/ps3toolchain/bin/ppu/lib/gcc/powerpc64-ps3-elf/7.2.0/../../../../powerpc64-ps3-elf/lib/libc.a(lib_a-strtod.o)
 .debug_line    0x000000000001052a      0x353 /home/louis/Documents/ps3/ps3toolchain/bin/ppu/lib/gcc/powerpc64-ps3-elf/7.2.0/../../../../powerpc64-ps3-elf/lib/libc.a(lib_a-strtoll_r.o)
 .debug_line    0x000000000001087d      0x36a /home/louis/Documents/ps3/ps3toolchain/bin/ppu/lib/gcc/powerpc64-ps3-elf/7.2.0/../../../../powerpc64-ps3-elf/lib/libc.a(lib_a-strtol.o)
 .debug_line    0x0000000000010be7      0x323 /home/louis/Documents/ps3/ps3toolchain/bin/ppu/lib/gcc/powerpc64-ps3-elf/7.2.0/../../../../powerpc64-ps3-elf/lib/libc.a(lib_a-strtoull_r.o)
 .debug_line    0x0000000000010f0a      0x339 /home/louis/Documents/ps3/ps3toolchain/bin/ppu/lib/gcc/powerpc64-ps3-elf/7.2.0/../../../../powerpc64-ps3-elf/lib/libc.a(lib_a-strtoul.o)
 .debug_line    0x0000000000011243      0x710 /home/louis/Documents/ps3/ps3toolchain/bin/ppu/lib/gcc/powerpc64-ps3-elf/7.2.0/../../../../powerpc64-ps3-elf/lib/libc.a(lib_a-svfiscanf.o)
 .debug_line    0x0000000000011953      0xa6e /home/louis/Documents/ps3/ps3toolchain/bin/ppu/lib/gcc/powerpc64-ps3-elf/7.2.0/../../../../powerpc64-ps3-elf/lib/libc.a(lib_a-svfprintf.o)
 .debug_line    0x00000000000123c1      0x397 /home/louis/Documents/ps3/ps3toolchain/bin/ppu/lib/gcc/powerpc64-ps3-elf/7.2.0/../../../../powerpc64-ps3-elf/lib/libc.a(lib_a-ungetc.o)
 .debug_line    0x0000000000012758      0x7f7 /home/louis/Documents/ps3/ps3toolchain/bin/ppu/lib/gcc/powerpc64-ps3-elf/7.2.0/../../../../powerpc64-ps3-elf/lib/libc.a(lib_a-vfiprintf.o)
 .debug_line    0x0000000000012f4f      0x334 /home/louis/Documents/ps3/ps3toolchain/bin/ppu/lib/gcc/powerpc64-ps3-elf/7.2.0/../../../../powerpc64-ps3-elf/lib/libc.a(lib_a-wbuf.o)
 .debug_line    0x0000000000013283      0x2fe /home/louis/Documents/ps3/ps3toolchain/bin/ppu/lib/gcc/powerpc64-ps3-elf/7.2.0/../../../../powerpc64-ps3-elf/lib/libc.a(lib_a-fclose.o)
 .debug_line    0x0000000000013581      0x328 /home/louis/Documents/ps3/ps3toolchain/bin/ppu/lib/gcc/powerpc64-ps3-elf/7.2.0/../../../../powerpc64-ps3-elf/lib/libc.a(lib_a-fputwc.o)
 .debug_line    0x00000000000138a9      0x4f9 /home/louis/Documents/ps3/ps3toolchain/bin/ppu/lib/gcc/powerpc64-ps3-elf/7.2.0/../../../../powerpc64-ps3-elf/lib/libc.a(lib_a-gdtoa-gethex.o)
 .debug_line    0x0000000000013da2      0x348 /home/louis/Documents/ps3/ps3toolchain/bin/ppu/lib/gcc/powerpc64-ps3-elf/7.2.0/../../../../powerpc64-ps3-elf/lib/libc.a(lib_a-gdtoa-hexnan.o)
 .debug_line    0x00000000000140ea      0x232 /home/louis/Documents/ps3/ps3toolchain/bin/ppu/lib/gcc/powerpc64-ps3-elf/7.2.0/../../../../powerpc64-ps3-elf/lib/libc.a(lib_a-lock_internal.o)
 .debug_line    0x000000000001431c      0x2bc /home/louis/Documents/ps3/ps3toolchain/bin/ppu/lib/gcc/powerpc64-ps3-elf/7.2.0/../../../../powerpc64-ps3-elf/lib/libc.a(lib_a-strncmp.o)
 .debug_line    0x00000000000145d8      0x730 /home/louis/Documents/ps3/ps3toolchain/bin/ppu/lib/gcc/powerpc64-ps3-elf/7.2.0/../../../../powerpc64-ps3-elf/lib/libc.a(lib_a-svfiprintf.o)
 .debug_line    0x0000000000014d08      0x2e8 /home/louis/Documents/ps3/ps3toolchain/bin/ppu/lib/gcc/powerpc64-ps3-elf/7.2.0/../../../../powerpc64-ps3-elf/lib/libc.a(lib_a-wcrtomb.o)
 .debug_line    0x0000000000014ff0      0x2ba /home/louis/Documents/ps3/ps3toolchain/bin/ppu/lib/gcc/powerpc64-ps3-elf/7.2.0/../../../../powerpc64-ps3-elf/lib/libc.a(lib_a-wctomb_r.o)
 .debug_line    0x00000000000152aa      0x28d /home/louis/Documents/ps3/ps3toolchain/bin/ppu/lib/gcc/powerpc64-ps3-elf/7.2.0/../../../../powerpc64-ps3-elf/lib/libc.a(lib_a-abort.o)
 .debug_line    0x0000000000015537      0x406 /home/louis/Documents/ps3/ps3toolchain/bin/ppu/lib/gcc/powerpc64-ps3-elf/7.2.0/../../../../powerpc64-ps3-elf/lib/libc.a(lib_a-signal.o)
 .debug_line    0x000000000001593d      0x2eb /home/louis/Documents/ps3/ps3toolchain/bin/ppu/lib/gcc/powerpc64-ps3-elf/7.2.0/../../../../powerpc64-ps3-elf/lib/libsysbase.a(close.o)
 .debug_line    0x0000000000015c28      0x2ea /home/louis/Documents/ps3/ps3toolchain/bin/ppu/lib/gcc/powerpc64-ps3-elf/7.2.0/../../../../powerpc64-ps3-elf/lib/libsysbase.a(sbrk.o)
 .debug_line    0x0000000000015f12      0x2d9 /home/louis/Documents/ps3/ps3toolchain/bin/ppu/lib/gcc/powerpc64-ps3-elf/7.2.0/../../../../powerpc64-ps3-elf/lib/libsysbase.a(_exit.o)
 .debug_line    0x00000000000161eb      0x2eb /home/louis/Documents/ps3/ps3toolchain/bin/ppu/lib/gcc/powerpc64-ps3-elf/7.2.0/../../../../powerpc64-ps3-elf/lib/libsysbase.a(fstat.o)
 .debug_line    0x00000000000164d6      0x2ec /home/louis/Documents/ps3/ps3toolchain/bin/ppu/lib/gcc/powerpc64-ps3-elf/7.2.0/../../../../powerpc64-ps3-elf/lib/libsysbase.a(isatty.o)
 .debug_line    0x00000000000167c2      0x2ef /home/louis/Documents/ps3/ps3toolchain/bin/ppu/lib/gcc/powerpc64-ps3-elf/7.2.0/../../../../powerpc64-ps3-elf/lib/libsysbase.a(lseek.o)
 .debug_line    0x0000000000016ab1      0x2ee /home/louis/Documents/ps3/ps3toolchain/bin/ppu/lib/gcc/powerpc64-ps3-elf/7.2.0/../../../../powerpc64-ps3-elf/lib/libsysbase.a(read.o)
 .debug_line    0x0000000000016d9f      0x2ef /home/louis/Documents/ps3/ps3toolchain/bin/ppu/lib/gcc/powerpc64-ps3-elf/7.2.0/../../../../powerpc64-ps3-elf/lib/libsysbase.a(write.o)
 .debug_line    0x000000000001708e      0x352 /home/louis/Documents/ps3/ps3toolchain/bin/ppu/lib/gcc/powerpc64-ps3-elf/7.2.0/../../../../powerpc64-ps3-elf/lib/libsysbase.a(lock.o)
 .debug_line    0x00000000000173e0      0x2ec /home/louis/Documents/ps3/ps3toolchain/bin/ppu/lib/gcc/powerpc64-ps3-elf/7.2.0/../../../../powerpc64-ps3-elf/lib/libsysbase.a(getpid.o)
 .debug_line    0x00000000000176cc      0x26d /home/louis/Documents/ps3/ps3toolchain/bin/ppu/lib/gcc/powerpc64-ps3-elf/7.2.0/../../../../powerpc64-ps3-elf/lib/libsysbase.a(kill.o)
 .debug_line    0x0000000000017939      0x2ec /home/louis/Documents/ps3/ps3toolchain/bin/ppu/lib/gcc/powerpc64-ps3-elf/7.2.0/../../../../powerpc64-ps3-elf/lib/libsysbase.a(gettod.o)

.debug_frame    0x0000000000000000     0x3c80
 *(.debug_frame)
 .debug_frame   0x0000000000000000       0x38 /home/louis/Documents/ps3/ps3toolchain/bin/ppu/lib/gcc/powerpc64-ps3-elf/7.2.0/../../../../powerpc64-ps3-elf/lib/libm.a(lib_a-sf_cos.o)
 .debug_frame   0x0000000000000038       0x88 /home/louis/Documents/ps3/ps3toolchain/bin/ppu/lib/gcc/powerpc64-ps3-elf/7.2.0/../../../../powerpc64-ps3-elf/lib/libm.a(lib_a-sf_sine.o)
 .debug_frame   0x00000000000000c0       0x38 /home/louis/Documents/ps3/ps3toolchain/bin/ppu/lib/gcc/powerpc64-ps3-elf/7.2.0/../../../../powerpc64-ps3-elf/lib/libm.a(lib_a-sf_sin.o)
 .debug_frame   0x00000000000000f8       0x58 /home/louis/Documents/ps3/ps3toolchain/bin/ppu/lib/gcc/powerpc64-ps3-elf/7.2.0/../../../../powerpc64-ps3-elf/lib/libm.a(lib_a-sf_sqrt.o)
 .debug_frame   0x0000000000000150       0x60 /home/louis/Documents/ps3/ps3toolchain/bin/ppu/lib/gcc/powerpc64-ps3-elf/7.2.0/../../../../powerpc64-ps3-elf/lib/libm.a(lib_a-sf_tan.o)
 .debug_frame   0x00000000000001b0       0x58 /home/louis/Documents/ps3/ps3toolchain/bin/ppu/lib/gcc/powerpc64-ps3-elf/7.2.0/../../../../powerpc64-ps3-elf/lib/libm.a(lib_a-s_sqrt.o)
 .debug_frame   0x0000000000000208       0x50 /home/louis/Documents/ps3/ps3toolchain/bin/ppu/lib/gcc/powerpc64-ps3-elf/7.2.0/../../../../powerpc64-ps3-elf/lib/libm.a(lib_a-sf_fabs.o)
 .debug_frame   0x0000000000000258       0x50 /home/louis/Documents/ps3/ps3toolchain/bin/ppu/lib/gcc/powerpc64-ps3-elf/7.2.0/../../../../powerpc64-ps3-elf/lib/libm.a(lib_a-sf_floor.o)
 .debug_frame   0x00000000000002a8       0x48 /home/louis/Documents/ps3/ps3toolchain/bin/ppu/lib/gcc/powerpc64-ps3-elf/7.2.0/../../../../powerpc64-ps3-elf/lib/libm.a(lib_a-sf_frexp.o)
 .debug_frame   0x00000000000002f0       0x28 /home/louis/Documents/ps3/ps3toolchain/bin/ppu/lib/gcc/powerpc64-ps3-elf/7.2.0/../../../../powerpc64-ps3-elf/lib/libm.a(lib_a-sf_ispos.o)
 .debug_frame   0x0000000000000318       0x58 /home/louis/Documents/ps3/ps3toolchain/bin/ppu/lib/gcc/powerpc64-ps3-elf/7.2.0/../../../../powerpc64-ps3-elf/lib/libm.a(lib_a-sf_ldexp.o)
 .debug_frame   0x0000000000000370       0x28 /home/louis/Documents/ps3/ps3toolchain/bin/ppu/lib/gcc/powerpc64-ps3-elf/7.2.0/../../../../powerpc64-ps3-elf/lib/libm.a(lib_a-sf_modf.o)
 .debug_frame   0x0000000000000398       0x28 /home/louis/Documents/ps3/ps3toolchain/bin/ppu/lib/gcc/powerpc64-ps3-elf/7.2.0/../../../../powerpc64-ps3-elf/lib/libm.a(lib_a-sf_numtest.o)
 .debug_frame   0x00000000000003c0       0x50 /home/louis/Documents/ps3/ps3toolchain/bin/ppu/lib/gcc/powerpc64-ps3-elf/7.2.0/../../../../powerpc64-ps3-elf/lib/libm.a(lib_a-s_frexp.o)
 .debug_frame   0x0000000000000410       0x28 /home/louis/Documents/ps3/ps3toolchain/bin/ppu/lib/gcc/powerpc64-ps3-elf/7.2.0/../../../../powerpc64-ps3-elf/lib/libm.a(lib_a-s_ispos.o)
 .debug_frame   0x0000000000000438       0x58 /home/louis/Documents/ps3/ps3toolchain/bin/ppu/lib/gcc/powerpc64-ps3-elf/7.2.0/../../../../powerpc64-ps3-elf/lib/libm.a(lib_a-s_ldexp.o)
 .debug_frame   0x0000000000000490       0x28 /home/louis/Documents/ps3/ps3toolchain/bin/ppu/lib/gcc/powerpc64-ps3-elf/7.2.0/../../../../powerpc64-ps3-elf/lib/libm.a(lib_a-s_numtest.o)
 .debug_frame   0x00000000000004b8       0x70 /home/louis/Documents/ps3/ps3toolchain/bin/ppu/lib/gcc/powerpc64-ps3-elf/7.2.0/../../../../powerpc64-ps3-elf/lib/libsysbase.a(sleep.o)
 .debug_frame   0x0000000000000528       0x38 /home/louis/Documents/ps3/ps3toolchain/bin/ppu/lib/gcc/powerpc64-ps3-elf/7.2.0/../../../../powerpc64-ps3-elf/lib/libc.a(lib_a-atexit.o)
 .debug_frame   0x0000000000000560       0x40 /home/louis/Documents/ps3/ps3toolchain/bin/ppu/lib/gcc/powerpc64-ps3-elf/7.2.0/../../../../powerpc64-ps3-elf/lib/libc.a(lib_a-calloc.o)
 .debug_frame   0x00000000000005a0       0x48 /home/louis/Documents/ps3/ps3toolchain/bin/ppu/lib/gcc/powerpc64-ps3-elf/7.2.0/../../../../powerpc64-ps3-elf/lib/libc.a(lib_a-callocr.o)
 .debug_frame   0x00000000000005e8       0x38 /home/louis/Documents/ps3/ps3toolchain/bin/ppu/lib/gcc/powerpc64-ps3-elf/7.2.0/../../../../powerpc64-ps3-elf/lib/libc.a(lib_a-errno.o)
 .debug_frame   0x0000000000000620       0x38 /home/louis/Documents/ps3/ps3toolchain/bin/ppu/lib/gcc/powerpc64-ps3-elf/7.2.0/../../../../powerpc64-ps3-elf/lib/libc.a(lib_a-exit.o)
 .debug_frame   0x0000000000000658       0x68 /home/louis/Documents/ps3/ps3toolchain/bin/ppu/lib/gcc/powerpc64-ps3-elf/7.2.0/../../../../powerpc64-ps3-elf/lib/libc.a(lib_a-fprintf.o)
 .debug_frame   0x00000000000006c0       0x58 /home/louis/Documents/ps3/ps3toolchain/bin/ppu/lib/gcc/powerpc64-ps3-elf/7.2.0/../../../../powerpc64-ps3-elf/lib/libc.a(lib_a-getreent.o)
 .debug_frame   0x0000000000000718       0x40 /home/louis/Documents/ps3/ps3toolchain/bin/ppu/lib/gcc/powerpc64-ps3-elf/7.2.0/../../../../powerpc64-ps3-elf/lib/libc.a(lib_a-malign.o)
 .debug_frame   0x0000000000000758       0xa0 /home/louis/Documents/ps3/ps3toolchain/bin/ppu/lib/gcc/powerpc64-ps3-elf/7.2.0/../../../../powerpc64-ps3-elf/lib/libc.a(lib_a-malignr.o)
 .debug_frame   0x00000000000007f8       0x70 /home/louis/Documents/ps3/ps3toolchain/bin/ppu/lib/gcc/powerpc64-ps3-elf/7.2.0/../../../../powerpc64-ps3-elf/lib/libc.a(lib_a-malloc.o)
 .debug_frame   0x0000000000000868      0x118 /home/louis/Documents/ps3/ps3toolchain/bin/ppu/lib/gcc/powerpc64-ps3-elf/7.2.0/../../../../powerpc64-ps3-elf/lib/libc.a(lib_a-mallocr.o)
 .debug_frame   0x0000000000000980       0x28 /home/louis/Documents/ps3/ps3toolchain/bin/ppu/lib/gcc/powerpc64-ps3-elf/7.2.0/../../../../powerpc64-ps3-elf/lib/libc.a(lib_a-memcpy.o)
 .debug_frame   0x00000000000009a8       0x28 /home/louis/Documents/ps3/ps3toolchain/bin/ppu/lib/gcc/powerpc64-ps3-elf/7.2.0/../../../../powerpc64-ps3-elf/lib/libc.a(lib_a-memset.o)
 .debug_frame   0x00000000000009d0       0x60 /home/louis/Documents/ps3/ps3toolchain/bin/ppu/lib/gcc/powerpc64-ps3-elf/7.2.0/../../../../powerpc64-ps3-elf/lib/libc.a(lib_a-mlock.o)
 .debug_frame   0x0000000000000a30       0x70 /home/louis/Documents/ps3/ps3toolchain/bin/ppu/lib/gcc/powerpc64-ps3-elf/7.2.0/../../../../powerpc64-ps3-elf/lib/libc.a(lib_a-perror.o)
 .debug_frame   0x0000000000000aa0       0x40 /home/louis/Documents/ps3/ps3toolchain/bin/ppu/lib/gcc/powerpc64-ps3-elf/7.2.0/../../../../powerpc64-ps3-elf/lib/libc.a(lib_a-realloc.o)
 .debug_frame   0x0000000000000ae0       0xe0 /home/louis/Documents/ps3/ps3toolchain/bin/ppu/lib/gcc/powerpc64-ps3-elf/7.2.0/../../../../powerpc64-ps3-elf/lib/libc.a(lib_a-reallocr.o)
 .debug_frame   0x0000000000000bc0       0x70 /home/louis/Documents/ps3/ps3toolchain/bin/ppu/lib/gcc/powerpc64-ps3-elf/7.2.0/../../../../powerpc64-ps3-elf/lib/libc.a(lib_a-sscanf.o)
 .debug_frame   0x0000000000000c30       0xf8 /home/louis/Documents/ps3/ps3toolchain/bin/ppu/lib/gcc/powerpc64-ps3-elf/7.2.0/../../../../powerpc64-ps3-elf/lib/libc.a(lib_a-stdio.o)
 .debug_frame   0x0000000000000d28       0x28 /home/louis/Documents/ps3/ps3toolchain/bin/ppu/lib/gcc/powerpc64-ps3-elf/7.2.0/../../../../powerpc64-ps3-elf/lib/libc.a(lib_a-strcasecmp.o)
 .debug_frame   0x0000000000000d50       0x28 /home/louis/Documents/ps3/ps3toolchain/bin/ppu/lib/gcc/powerpc64-ps3-elf/7.2.0/../../../../powerpc64-ps3-elf/lib/libc.a(lib_a-strchr.o)
 .debug_frame   0x0000000000000d78       0x28 /home/louis/Documents/ps3/ps3toolchain/bin/ppu/lib/gcc/powerpc64-ps3-elf/7.2.0/../../../../powerpc64-ps3-elf/lib/libc.a(lib_a-strcpy.o)
 .debug_frame   0x0000000000000da0       0x40 /home/louis/Documents/ps3/ps3toolchain/bin/ppu/lib/gcc/powerpc64-ps3-elf/7.2.0/../../../../powerpc64-ps3-elf/lib/libc.a(lib_a-strdup.o)
 .debug_frame   0x0000000000000de0       0x48 /home/louis/Documents/ps3/ps3toolchain/bin/ppu/lib/gcc/powerpc64-ps3-elf/7.2.0/../../../../powerpc64-ps3-elf/lib/libc.a(lib_a-strdup_r.o)
 .debug_frame   0x0000000000000e28       0x78 /home/louis/Documents/ps3/ps3toolchain/bin/ppu/lib/gcc/powerpc64-ps3-elf/7.2.0/../../../../powerpc64-ps3-elf/lib/libc.a(lib_a-strerror.o)
 .debug_frame   0x0000000000000ea0       0x28 /home/louis/Documents/ps3/ps3toolchain/bin/ppu/lib/gcc/powerpc64-ps3-elf/7.2.0/../../../../powerpc64-ps3-elf/lib/libc.a(lib_a-strlen.o)
 .debug_frame   0x0000000000000ec8       0x28 /home/louis/Documents/ps3/ps3toolchain/bin/ppu/lib/gcc/powerpc64-ps3-elf/7.2.0/../../../../powerpc64-ps3-elf/lib/libc.a(lib_a-strncat.o)
 .debug_frame   0x0000000000000ef0       0x28 /home/louis/Documents/ps3/ps3toolchain/bin/ppu/lib/gcc/powerpc64-ps3-elf/7.2.0/../../../../powerpc64-ps3-elf/lib/libc.a(lib_a-strncpy.o)
 .debug_frame   0x0000000000000f18      0x158 /home/louis/Documents/ps3/ps3toolchain/bin/ppu/lib/gcc/powerpc64-ps3-elf/7.2.0/../../../../powerpc64-ps3-elf/lib/libc.a(lib_a-svfscanf.o)
 .debug_frame   0x0000000000001070       0x40 /home/louis/Documents/ps3/ps3toolchain/bin/ppu/lib/gcc/powerpc64-ps3-elf/7.2.0/../../../../powerpc64-ps3-elf/lib/libc.a(lib_a-time.o)
 .debug_frame   0x00000000000010b0       0x28 /home/louis/Documents/ps3/ps3toolchain/bin/ppu/lib/gcc/powerpc64-ps3-elf/7.2.0/../../../../powerpc64-ps3-elf/lib/libc.a(lib_a-u_strerr.o)
 .debug_frame   0x00000000000010d8      0x188 /home/louis/Documents/ps3/ps3toolchain/bin/ppu/lib/gcc/powerpc64-ps3-elf/7.2.0/../../../../powerpc64-ps3-elf/lib/libc.a(lib_a-vfprintf.o)
 .debug_frame   0x0000000000001260       0x48 /home/louis/Documents/ps3/ps3toolchain/bin/ppu/lib/gcc/powerpc64-ps3-elf/7.2.0/../../../../powerpc64-ps3-elf/lib/libc.a(lib_a-wsetup.o)
 .debug_frame   0x00000000000012a8       0x58 /home/louis/Documents/ps3/ps3toolchain/bin/ppu/lib/gcc/powerpc64-ps3-elf/7.2.0/../../../../powerpc64-ps3-elf/lib/libc.a(lib_a-__atexit.o)
 .debug_frame   0x0000000000001300       0x70 /home/louis/Documents/ps3/ps3toolchain/bin/ppu/lib/gcc/powerpc64-ps3-elf/7.2.0/../../../../powerpc64-ps3-elf/lib/libc.a(lib_a-__call_atexit.o)
 .debug_frame   0x0000000000001370      0x168 /home/louis/Documents/ps3/ps3toolchain/bin/ppu/lib/gcc/powerpc64-ps3-elf/7.2.0/../../../../powerpc64-ps3-elf/lib/libc.a(lib_a-dtoa.o)
 .debug_frame   0x00000000000014d8      0x158 /home/louis/Documents/ps3/ps3toolchain/bin/ppu/lib/gcc/powerpc64-ps3-elf/7.2.0/../../../../powerpc64-ps3-elf/lib/libc.a(lib_a-fflush.o)
 .debug_frame   0x0000000000001630      0x278 /home/louis/Documents/ps3/ps3toolchain/bin/ppu/lib/gcc/powerpc64-ps3-elf/7.2.0/../../../../powerpc64-ps3-elf/lib/libc.a(lib_a-findfp.o)
 .debug_frame   0x00000000000018a8       0x80 /home/louis/Documents/ps3/ps3toolchain/bin/ppu/lib/gcc/powerpc64-ps3-elf/7.2.0/../../../../powerpc64-ps3-elf/lib/libc.a(lib_a-fputc.o)
 .debug_frame   0x0000000000001928       0x78 /home/louis/Documents/ps3/ps3toolchain/bin/ppu/lib/gcc/powerpc64-ps3-elf/7.2.0/../../../../powerpc64-ps3-elf/lib/libc.a(lib_a-fputs.o)
 .debug_frame   0x00000000000019a0       0xa0 /home/louis/Documents/ps3/ps3toolchain/bin/ppu/lib/gcc/powerpc64-ps3-elf/7.2.0/../../../../powerpc64-ps3-elf/lib/libc.a(lib_a-freer.o)
 .debug_frame   0x0000000000001a40       0xf0 /home/louis/Documents/ps3/ps3toolchain/bin/ppu/lib/gcc/powerpc64-ps3-elf/7.2.0/../../../../powerpc64-ps3-elf/lib/libc.a(lib_a-fvwrite.o)
 .debug_frame   0x0000000000001b30       0xb8 /home/louis/Documents/ps3/ps3toolchain/bin/ppu/lib/gcc/powerpc64-ps3-elf/7.2.0/../../../../powerpc64-ps3-elf/lib/libc.a(lib_a-fwalk.o)
 .debug_frame   0x0000000000001be8       0x28 /home/louis/Documents/ps3/ps3toolchain/bin/ppu/lib/gcc/powerpc64-ps3-elf/7.2.0/../../../../powerpc64-ps3-elf/lib/libc.a(lib_a-iswspace.o)
 .debug_frame   0x0000000000001c10      0x128 /home/louis/Documents/ps3/ps3toolchain/bin/ppu/lib/gcc/powerpc64-ps3-elf/7.2.0/../../../../powerpc64-ps3-elf/lib/libc.a(lib_a-locale.o)
 .debug_frame   0x0000000000001d38       0xf0 /home/louis/Documents/ps3/ps3toolchain/bin/ppu/lib/gcc/powerpc64-ps3-elf/7.2.0/../../../../powerpc64-ps3-elf/lib/libc.a(lib_a-lock_recursive.o)
 .debug_frame   0x0000000000001e28       0x60 /home/louis/Documents/ps3/ps3toolchain/bin/ppu/lib/gcc/powerpc64-ps3-elf/7.2.0/../../../../powerpc64-ps3-elf/lib/libc.a(lib_a-makebuf.o)
 .debug_frame   0x0000000000001e88       0xa8 /home/louis/Documents/ps3/ps3toolchain/bin/ppu/lib/gcc/powerpc64-ps3-elf/7.2.0/../../../../powerpc64-ps3-elf/lib/libc.a(lib_a-mbrtowc.o)
 .debug_frame   0x0000000000001f30       0x60 /home/louis/Documents/ps3/ps3toolchain/bin/ppu/lib/gcc/powerpc64-ps3-elf/7.2.0/../../../../powerpc64-ps3-elf/lib/libc.a(lib_a-mbtowc_r.o)
 .debug_frame   0x0000000000001f90       0x28 /home/louis/Documents/ps3/ps3toolchain/bin/ppu/lib/gcc/powerpc64-ps3-elf/7.2.0/../../../../powerpc64-ps3-elf/lib/libc.a(lib_a-memchr.o)
 .debug_frame   0x0000000000001fb8       0x28 /home/louis/Documents/ps3/ps3toolchain/bin/ppu/lib/gcc/powerpc64-ps3-elf/7.2.0/../../../../powerpc64-ps3-elf/lib/libc.a(lib_a-memmove.o)
 .debug_frame   0x0000000000001fe0      0x408 /home/louis/Documents/ps3/ps3toolchain/bin/ppu/lib/gcc/powerpc64-ps3-elf/7.2.0/../../../../powerpc64-ps3-elf/lib/libc.a(lib_a-mprec.o)
 .debug_frame   0x00000000000023e8       0x80 /home/louis/Documents/ps3/ps3toolchain/bin/ppu/lib/gcc/powerpc64-ps3-elf/7.2.0/../../../../powerpc64-ps3-elf/lib/libc.a(lib_a-putc.o)
 .debug_frame   0x0000000000002468       0x28 /home/louis/Documents/ps3/ps3toolchain/bin/ppu/lib/gcc/powerpc64-ps3-elf/7.2.0/../../../../powerpc64-ps3-elf/lib/libc.a(lib_a-sccl.o)
 .debug_frame   0x0000000000002490       0x28 /home/louis/Documents/ps3/ps3toolchain/bin/ppu/lib/gcc/powerpc64-ps3-elf/7.2.0/../../../../powerpc64-ps3-elf/lib/libc.a(lib_a-sf_nan.o)
 .debug_frame   0x00000000000024b8       0x28 /home/louis/Documents/ps3/ps3toolchain/bin/ppu/lib/gcc/powerpc64-ps3-elf/7.2.0/../../../../powerpc64-ps3-elf/lib/libc.a(lib_a-s_fpclassify.o)
 .debug_frame   0x00000000000024e0       0x68 /home/louis/Documents/ps3/ps3toolchain/bin/ppu/lib/gcc/powerpc64-ps3-elf/7.2.0/../../../../powerpc64-ps3-elf/lib/libc.a(lib_a-sprintf.o)
 .debug_frame   0x0000000000002548       0x28 /home/louis/Documents/ps3/ps3toolchain/bin/ppu/lib/gcc/powerpc64-ps3-elf/7.2.0/../../../../powerpc64-ps3-elf/lib/libc.a(lib_a-strcmp.o)
 .debug_frame   0x0000000000002570      0x288 /home/louis/Documents/ps3/ps3toolchain/bin/ppu/lib/gcc/powerpc64-ps3-elf/7.2.0/../../../../powerpc64-ps3-elf/lib/libc.a(lib_a-strtod.o)
 .debug_frame   0x00000000000027f8       0x40 /home/louis/Documents/ps3/ps3toolchain/bin/ppu/lib/gcc/powerpc64-ps3-elf/7.2.0/../../../../powerpc64-ps3-elf/lib/libc.a(lib_a-strtoll_r.o)
 .debug_frame   0x0000000000002838       0x78 /home/louis/Documents/ps3/ps3toolchain/bin/ppu/lib/gcc/powerpc64-ps3-elf/7.2.0/../../../../powerpc64-ps3-elf/lib/libc.a(lib_a-strtol.o)
 .debug_frame   0x00000000000028b0       0x40 /home/louis/Documents/ps3/ps3toolchain/bin/ppu/lib/gcc/powerpc64-ps3-elf/7.2.0/../../../../powerpc64-ps3-elf/lib/libc.a(lib_a-strtoull_r.o)
 .debug_frame   0x00000000000028f0       0x78 /home/louis/Documents/ps3/ps3toolchain/bin/ppu/lib/gcc/powerpc64-ps3-elf/7.2.0/../../../../powerpc64-ps3-elf/lib/libc.a(lib_a-strtoul.o)
 .debug_frame   0x0000000000002968      0x1b0 /home/louis/Documents/ps3/ps3toolchain/bin/ppu/lib/gcc/powerpc64-ps3-elf/7.2.0/../../../../powerpc64-ps3-elf/lib/libc.a(lib_a-svfiscanf.o)
 .debug_frame   0x0000000000002b18      0x130 /home/louis/Documents/ps3/ps3toolchain/bin/ppu/lib/gcc/powerpc64-ps3-elf/7.2.0/../../../../powerpc64-ps3-elf/lib/libc.a(lib_a-svfprintf.o)
 .debug_frame   0x0000000000002c48      0x100 /home/louis/Documents/ps3/ps3toolchain/bin/ppu/lib/gcc/powerpc64-ps3-elf/7.2.0/../../../../powerpc64-ps3-elf/lib/libc.a(lib_a-ungetc.o)
 .debug_frame   0x0000000000002d48      0x278 /home/louis/Documents/ps3/ps3toolchain/bin/ppu/lib/gcc/powerpc64-ps3-elf/7.2.0/../../../../powerpc64-ps3-elf/lib/libc.a(lib_a-vfiprintf.o)
 .debug_frame   0x0000000000002fc0       0x88 /home/louis/Documents/ps3/ps3toolchain/bin/ppu/lib/gcc/powerpc64-ps3-elf/7.2.0/../../../../powerpc64-ps3-elf/lib/libc.a(lib_a-wbuf.o)
 .debug_frame   0x0000000000003048       0xa0 /home/louis/Documents/ps3/ps3toolchain/bin/ppu/lib/gcc/powerpc64-ps3-elf/7.2.0/../../../../powerpc64-ps3-elf/lib/libc.a(lib_a-fclose.o)
 .debug_frame   0x00000000000030e8       0xb8 /home/louis/Documents/ps3/ps3toolchain/bin/ppu/lib/gcc/powerpc64-ps3-elf/7.2.0/../../../../powerpc64-ps3-elf/lib/libc.a(lib_a-fputwc.o)
 .debug_frame   0x00000000000031a0      0x110 /home/louis/Documents/ps3/ps3toolchain/bin/ppu/lib/gcc/powerpc64-ps3-elf/7.2.0/../../../../powerpc64-ps3-elf/lib/libc.a(lib_a-gdtoa-gethex.o)
 .debug_frame   0x00000000000032b0       0x78 /home/louis/Documents/ps3/ps3toolchain/bin/ppu/lib/gcc/powerpc64-ps3-elf/7.2.0/../../../../powerpc64-ps3-elf/lib/libc.a(lib_a-gdtoa-hexnan.o)
 .debug_frame   0x0000000000003328       0x70 /home/louis/Documents/ps3/ps3toolchain/bin/ppu/lib/gcc/powerpc64-ps3-elf/7.2.0/../../../../powerpc64-ps3-elf/lib/libc.a(lib_a-lock_internal.o)
 .debug_frame   0x0000000000003398       0x28 /home/louis/Documents/ps3/ps3toolchain/bin/ppu/lib/gcc/powerpc64-ps3-elf/7.2.0/../../../../powerpc64-ps3-elf/lib/libc.a(lib_a-strncmp.o)
 .debug_frame   0x00000000000033c0      0x1c0 /home/louis/Documents/ps3/ps3toolchain/bin/ppu/lib/gcc/powerpc64-ps3-elf/7.2.0/../../../../powerpc64-ps3-elf/lib/libc.a(lib_a-svfiprintf.o)
 .debug_frame   0x0000000000003580       0xa0 /home/louis/Documents/ps3/ps3toolchain/bin/ppu/lib/gcc/powerpc64-ps3-elf/7.2.0/../../../../powerpc64-ps3-elf/lib/libc.a(lib_a-wcrtomb.o)
 .debug_frame   0x0000000000003620       0x60 /home/louis/Documents/ps3/ps3toolchain/bin/ppu/lib/gcc/powerpc64-ps3-elf/7.2.0/../../../../powerpc64-ps3-elf/lib/libc.a(lib_a-wctomb_r.o)
 .debug_frame   0x0000000000003680       0x30 /home/louis/Documents/ps3/ps3toolchain/bin/ppu/lib/gcc/powerpc64-ps3-elf/7.2.0/../../../../powerpc64-ps3-elf/lib/libc.a(lib_a-abort.o)
 .debug_frame   0x00000000000036b0      0x220 /home/louis/Documents/ps3/ps3toolchain/bin/ppu/lib/gcc/powerpc64-ps3-elf/7.2.0/../../../../powerpc64-ps3-elf/lib/libc.a(lib_a-signal.o)
 .debug_frame   0x00000000000038d0       0x40 /home/louis/Documents/ps3/ps3toolchain/bin/ppu/lib/gcc/powerpc64-ps3-elf/7.2.0/../../../../powerpc64-ps3-elf/lib/libsysbase.a(close.o)
 .debug_frame   0x0000000000003910       0x40 /home/louis/Documents/ps3/ps3toolchain/bin/ppu/lib/gcc/powerpc64-ps3-elf/7.2.0/../../../../powerpc64-ps3-elf/lib/libsysbase.a(sbrk.o)
 .debug_frame   0x0000000000003950       0x38 /home/louis/Documents/ps3/ps3toolchain/bin/ppu/lib/gcc/powerpc64-ps3-elf/7.2.0/../../../../powerpc64-ps3-elf/lib/libsysbase.a(_exit.o)
 .debug_frame   0x0000000000003988       0x40 /home/louis/Documents/ps3/ps3toolchain/bin/ppu/lib/gcc/powerpc64-ps3-elf/7.2.0/../../../../powerpc64-ps3-elf/lib/libsysbase.a(fstat.o)
 .debug_frame   0x00000000000039c8       0x40 /home/louis/Documents/ps3/ps3toolchain/bin/ppu/lib/gcc/powerpc64-ps3-elf/7.2.0/../../../../powerpc64-ps3-elf/lib/libsysbase.a(isatty.o)
 .debug_frame   0x0000000000003a08       0x40 /home/louis/Documents/ps3/ps3toolchain/bin/ppu/lib/gcc/powerpc64-ps3-elf/7.2.0/../../../../powerpc64-ps3-elf/lib/libsysbase.a(lseek.o)
 .debug_frame   0x0000000000003a48       0x40 /home/louis/Documents/ps3/ps3toolchain/bin/ppu/lib/gcc/powerpc64-ps3-elf/7.2.0/../../../../powerpc64-ps3-elf/lib/libsysbase.a(read.o)
 .debug_frame   0x0000000000003a88       0x40 /home/louis/Documents/ps3/ps3toolchain/bin/ppu/lib/gcc/powerpc64-ps3-elf/7.2.0/../../../../powerpc64-ps3-elf/lib/libsysbase.a(write.o)
 .debug_frame   0x0000000000003ac8      0x110 /home/louis/Documents/ps3/ps3toolchain/bin/ppu/lib/gcc/powerpc64-ps3-elf/7.2.0/../../../../powerpc64-ps3-elf/lib/libsysbase.a(lock.o)
 .debug_frame   0x0000000000003bd8       0x40 /home/louis/Documents/ps3/ps3toolchain/bin/ppu/lib/gcc/powerpc64-ps3-elf/7.2.0/../../../../powerpc64-ps3-elf/lib/libsysbase.a(getpid.o)
 .debug_frame   0x0000000000003c18       0x28 /home/louis/Documents/ps3/ps3toolchain/bin/ppu/lib/gcc/powerpc64-ps3-elf/7.2.0/../../../../powerpc64-ps3-elf/lib/libsysbase.a(kill.o)
 .debug_frame   0x0000000000003c40       0x40 /home/louis/Documents/ps3/ps3toolchain/bin/ppu/lib/gcc/powerpc64-ps3-elf/7.2.0/../../../../powerpc64-ps3-elf/lib/libsysbase.a(gettod.o)

.debug_str      0x0000000000000000     0x3638
 *(.debug_str)
 .debug_str     0x0000000000000000      0x5e9 /home/louis/Documents/ps3/ps3toolchain/bin/ppu/lib/gcc/powerpc64-ps3-elf/7.2.0/../../../../powerpc64-ps3-elf/lib/libm.a(lib_a-sf_cos.o)
                                        0x699 (size before relaxing)
 .debug_str     0x00000000000005e9       0x77 /home/louis/Documents/ps3/ps3toolchain/bin/ppu/lib/gcc/powerpc64-ps3-elf/7.2.0/../../../../powerpc64-ps3-elf/lib/libm.a(lib_a-sf_sine.o)
                                        0x6e0 (size before relaxing)
 .debug_str     0x0000000000000660       0x30 /home/louis/Documents/ps3/ps3toolchain/bin/ppu/lib/gcc/powerpc64-ps3-elf/7.2.0/../../../../powerpc64-ps3-elf/lib/libm.a(lib_a-sf_sin.o)
                                        0x699 (size before relaxing)
 .debug_str     0x0000000000000690       0x47 /home/louis/Documents/ps3/ps3toolchain/bin/ppu/lib/gcc/powerpc64-ps3-elf/7.2.0/../../../../powerpc64-ps3-elf/lib/libm.a(lib_a-sf_sqrt.o)
                                        0x6bb (size before relaxing)
 .debug_str     0x00000000000006d7       0x46 /home/louis/Documents/ps3/ps3toolchain/bin/ppu/lib/gcc/powerpc64-ps3-elf/7.2.0/../../../../powerpc64-ps3-elf/lib/libm.a(lib_a-sf_tan.o)
                                        0x6c0 (size before relaxing)
 .debug_str     0x000000000000071d       0x45 /home/louis/Documents/ps3/ps3toolchain/bin/ppu/lib/gcc/powerpc64-ps3-elf/7.2.0/../../../../powerpc64-ps3-elf/lib/libm.a(lib_a-s_mathcnst.o)
                                        0x6a8 (size before relaxing)
 .debug_str     0x0000000000000762       0x4a /home/louis/Documents/ps3/ps3toolchain/bin/ppu/lib/gcc/powerpc64-ps3-elf/7.2.0/../../../../powerpc64-ps3-elf/lib/libm.a(lib_a-s_sqrt.o)
                                        0x6b5 (size before relaxing)
 .debug_str     0x00000000000007ac       0x2c /home/louis/Documents/ps3/ps3toolchain/bin/ppu/lib/gcc/powerpc64-ps3-elf/7.2.0/../../../../powerpc64-ps3-elf/lib/libm.a(lib_a-sf_fabs.o)
                                        0x6a6 (size before relaxing)
 .debug_str     0x00000000000007d8       0x33 /home/louis/Documents/ps3/ps3toolchain/bin/ppu/lib/gcc/powerpc64-ps3-elf/7.2.0/../../../../powerpc64-ps3-elf/lib/libm.a(lib_a-sf_floor.o)
                                        0x69d (size before relaxing)
 .debug_str     0x000000000000080b       0x67 /home/louis/Documents/ps3/ps3toolchain/bin/ppu/lib/gcc/powerpc64-ps3-elf/7.2.0/../../../../powerpc64-ps3-elf/lib/libm.a(lib_a-sf_frexp.o)
                                        0x6e8 (size before relaxing)
 .debug_str     0x0000000000000872       0x2d /home/louis/Documents/ps3/ps3toolchain/bin/ppu/lib/gcc/powerpc64-ps3-elf/7.2.0/../../../../powerpc64-ps3-elf/lib/libm.a(lib_a-sf_ispos.o)
                                        0x6d2 (size before relaxing)
 .debug_str     0x000000000000089f       0x2d /home/louis/Documents/ps3/ps3toolchain/bin/ppu/lib/gcc/powerpc64-ps3-elf/7.2.0/../../../../powerpc64-ps3-elf/lib/libm.a(lib_a-sf_ldexp.o)
                                        0x6e8 (size before relaxing)
 .debug_str     0x00000000000008cc       0x97 /home/louis/Documents/ps3/ps3toolchain/bin/ppu/lib/gcc/powerpc64-ps3-elf/7.2.0/../../../../powerpc64-ps3-elf/lib/libm.a(lib_a-sf_modf.o)
                                        0x664 (size before relaxing)
 .debug_str     0x0000000000000963       0x2f /home/louis/Documents/ps3/ps3toolchain/bin/ppu/lib/gcc/powerpc64-ps3-elf/7.2.0/../../../../powerpc64-ps3-elf/lib/libm.a(lib_a-sf_numtest.o)
                                        0x6d6 (size before relaxing)
 .debug_str     0x0000000000000992       0x53 /home/louis/Documents/ps3/ps3toolchain/bin/ppu/lib/gcc/powerpc64-ps3-elf/7.2.0/../../../../powerpc64-ps3-elf/lib/libm.a(lib_a-s_frexp.o)
                                        0x6dd (size before relaxing)
 .debug_str     0x00000000000009e5       0x31 /home/louis/Documents/ps3/ps3toolchain/bin/ppu/lib/gcc/powerpc64-ps3-elf/7.2.0/../../../../powerpc64-ps3-elf/lib/libm.a(lib_a-s_ispos.o)
                                        0x6c8 (size before relaxing)
 .debug_str     0x0000000000000a16       0x31 /home/louis/Documents/ps3/ps3toolchain/bin/ppu/lib/gcc/powerpc64-ps3-elf/7.2.0/../../../../powerpc64-ps3-elf/lib/libm.a(lib_a-s_ldexp.o)
                                        0x6dd (size before relaxing)
 .debug_str     0x0000000000000a47       0x2e /home/louis/Documents/ps3/ps3toolchain/bin/ppu/lib/gcc/powerpc64-ps3-elf/7.2.0/../../../../powerpc64-ps3-elf/lib/libm.a(lib_a-s_numtest.o)
                                        0x6cc (size before relaxing)
 .debug_str     0x0000000000000a75      0x4fc /home/louis/Documents/ps3/ps3toolchain/bin/ppu/lib/gcc/powerpc64-ps3-elf/7.2.0/../../../../powerpc64-ps3-elf/lib/libsysbase.a(syscalls.o)
                                        0xa83 (size before relaxing)
 .debug_str     0x0000000000000f71       0x3a /home/louis/Documents/ps3/ps3toolchain/bin/ppu/lib/gcc/powerpc64-ps3-elf/7.2.0/../../../../powerpc64-ps3-elf/lib/libsysbase.a(sleep.o)
                                        0xab4 (size before relaxing)
 .debug_str     0x0000000000000fab       0xdf /home/louis/Documents/ps3/ps3toolchain/bin/ppu/lib/gcc/powerpc64-ps3-elf/7.2.0/../../../../powerpc64-ps3-elf/lib/libc.a(lib_a-atexit.o)
                                        0x5f9 (size before relaxing)
 .debug_str     0x000000000000108a       0x3c /home/louis/Documents/ps3/ps3toolchain/bin/ppu/lib/gcc/powerpc64-ps3-elf/7.2.0/../../../../powerpc64-ps3-elf/lib/libc.a(lib_a-calloc.o)
                                        0x5d6 (size before relaxing)
 .debug_str     0x00000000000010c6      0x14f /home/louis/Documents/ps3/ps3toolchain/bin/ppu/lib/gcc/powerpc64-ps3-elf/7.2.0/../../../../powerpc64-ps3-elf/lib/libc.a(lib_a-callocr.o)
                                        0x746 (size before relaxing)
 .debug_str     0x0000000000001215       0x8e /home/louis/Documents/ps3/ps3toolchain/bin/ppu/lib/gcc/powerpc64-ps3-elf/7.2.0/../../../../powerpc64-ps3-elf/lib/libc.a(lib_a-errno.o)
                                        0x5cb (size before relaxing)
 .debug_str     0x00000000000012a3       0x45 /home/louis/Documents/ps3/ps3toolchain/bin/ppu/lib/gcc/powerpc64-ps3-elf/7.2.0/../../../../powerpc64-ps3-elf/lib/libc.a(lib_a-exit.o)
                                        0x606 (size before relaxing)
 .debug_str     0x00000000000012e8       0xc8 /home/louis/Documents/ps3/ps3toolchain/bin/ppu/lib/gcc/powerpc64-ps3-elf/7.2.0/../../../../powerpc64-ps3-elf/lib/libc.a(lib_a-fprintf.o)
                                        0x607 (size before relaxing)
 .debug_str     0x00000000000013b0       0xa9 /home/louis/Documents/ps3/ps3toolchain/bin/ppu/lib/gcc/powerpc64-ps3-elf/7.2.0/../../../../powerpc64-ps3-elf/lib/libc.a(lib_a-getreent.o)
                                        0x5ce (size before relaxing)
 .debug_str     0x0000000000001459       0x9b /home/louis/Documents/ps3/ps3toolchain/bin/ppu/lib/gcc/powerpc64-ps3-elf/7.2.0/../../../../powerpc64-ps3-elf/lib/libc.a(lib_a-impure.o)
                                        0x5ae (size before relaxing)
 .debug_str     0x00000000000014f4       0x47 /home/louis/Documents/ps3/ps3toolchain/bin/ppu/lib/gcc/powerpc64-ps3-elf/7.2.0/../../../../powerpc64-ps3-elf/lib/libc.a(lib_a-malign.o)
                                        0x5e2 (size before relaxing)
 .debug_str     0x000000000000153b       0x5f /home/louis/Documents/ps3/ps3toolchain/bin/ppu/lib/gcc/powerpc64-ps3-elf/7.2.0/../../../../powerpc64-ps3-elf/lib/libc.a(lib_a-malignr.o)
                                        0x797 (size before relaxing)
 .debug_str     0x000000000000159a       0x30 /home/louis/Documents/ps3/ps3toolchain/bin/ppu/lib/gcc/powerpc64-ps3-elf/7.2.0/../../../../powerpc64-ps3-elf/lib/libc.a(lib_a-malloc.o)
                                        0x5ea (size before relaxing)
 .debug_str     0x00000000000015ca       0xae /home/louis/Documents/ps3/ps3toolchain/bin/ppu/lib/gcc/powerpc64-ps3-elf/7.2.0/../../../../powerpc64-ps3-elf/lib/libc.a(lib_a-mallocr.o)
                                        0x822 (size before relaxing)
 .debug_str     0x0000000000001678       0xbf /home/louis/Documents/ps3/ps3toolchain/bin/ppu/lib/gcc/powerpc64-ps3-elf/7.2.0/../../../../powerpc64-ps3-elf/lib/libc.a(lib_a-memcpy.o)
                                        0x5d9 (size before relaxing)
 .debug_str     0x0000000000001737       0x3f /home/louis/Documents/ps3/ps3toolchain/bin/ppu/lib/gcc/powerpc64-ps3-elf/7.2.0/../../../../powerpc64-ps3-elf/lib/libc.a(lib_a-memset.o)
                                        0x5c6 (size before relaxing)
 .debug_str     0x0000000000001776       0x7b /home/louis/Documents/ps3/ps3toolchain/bin/ppu/lib/gcc/powerpc64-ps3-elf/7.2.0/../../../../powerpc64-ps3-elf/lib/libc.a(lib_a-mlock.o)
                                        0x612 (size before relaxing)
 .debug_str     0x00000000000017f1      0x153 /home/louis/Documents/ps3/ps3toolchain/bin/ppu/lib/gcc/powerpc64-ps3-elf/7.2.0/../../../../powerpc64-ps3-elf/lib/libc.a(lib_a-perror.o)
                                        0x729 (size before relaxing)
 .debug_str     0x0000000000001944       0x3f /home/louis/Documents/ps3/ps3toolchain/bin/ppu/lib/gcc/powerpc64-ps3-elf/7.2.0/../../../../powerpc64-ps3-elf/lib/libc.a(lib_a-realloc.o)
                                        0x5db (size before relaxing)
 .debug_str     0x0000000000001983       0x51 /home/louis/Documents/ps3/ps3toolchain/bin/ppu/lib/gcc/powerpc64-ps3-elf/7.2.0/../../../../powerpc64-ps3-elf/lib/libc.a(lib_a-reallocr.o)
                                        0x7d9 (size before relaxing)
 .debug_str     0x00000000000019d4       0x50 /home/louis/Documents/ps3/ps3toolchain/bin/ppu/lib/gcc/powerpc64-ps3-elf/7.2.0/../../../../powerpc64-ps3-elf/lib/libc.a(lib_a-sscanf.o)
                                        0x748 (size before relaxing)
 .debug_str     0x0000000000001a24       0x80 /home/louis/Documents/ps3/ps3toolchain/bin/ppu/lib/gcc/powerpc64-ps3-elf/7.2.0/../../../../powerpc64-ps3-elf/lib/libc.a(lib_a-stdio.o)
                                        0x77a (size before relaxing)
 .debug_str     0x0000000000001aa4       0x5a /home/louis/Documents/ps3/ps3toolchain/bin/ppu/lib/gcc/powerpc64-ps3-elf/7.2.0/../../../../powerpc64-ps3-elf/lib/libc.a(lib_a-strcasecmp.o)
                                        0x5df (size before relaxing)
 .debug_str     0x0000000000001afe       0x32 /home/louis/Documents/ps3/ps3toolchain/bin/ppu/lib/gcc/powerpc64-ps3-elf/7.2.0/../../../../powerpc64-ps3-elf/lib/libc.a(lib_a-strchr.o)
                                        0x5bd (size before relaxing)
 .debug_str     0x0000000000001b30       0x32 /home/louis/Documents/ps3/ps3toolchain/bin/ppu/lib/gcc/powerpc64-ps3-elf/7.2.0/../../../../powerpc64-ps3-elf/lib/libc.a(lib_a-strcpy.o)
                                        0x5cd (size before relaxing)
 .debug_str     0x0000000000001b62       0x3c /home/louis/Documents/ps3/ps3toolchain/bin/ppu/lib/gcc/powerpc64-ps3-elf/7.2.0/../../../../powerpc64-ps3-elf/lib/libc.a(lib_a-strdup.o)
                                        0x5ca (size before relaxing)
 .debug_str     0x0000000000001b9e       0x32 /home/louis/Documents/ps3/ps3toolchain/bin/ppu/lib/gcc/powerpc64-ps3-elf/7.2.0/../../../../powerpc64-ps3-elf/lib/libc.a(lib_a-strdup_r.o)
                                        0x5e8 (size before relaxing)
 .debug_str     0x0000000000001bd0       0x53 /home/louis/Documents/ps3/ps3toolchain/bin/ppu/lib/gcc/powerpc64-ps3-elf/7.2.0/../../../../powerpc64-ps3-elf/lib/libc.a(lib_a-strerror.o)
                                        0x609 (size before relaxing)
 .debug_str     0x0000000000001c23       0x2b /home/louis/Documents/ps3/ps3toolchain/bin/ppu/lib/gcc/powerpc64-ps3-elf/7.2.0/../../../../powerpc64-ps3-elf/lib/libc.a(lib_a-strlen.o)
                                        0x5c5 (size before relaxing)
 .debug_str     0x0000000000001c4e       0x3f /home/louis/Documents/ps3/ps3toolchain/bin/ppu/lib/gcc/powerpc64-ps3-elf/7.2.0/../../../../powerpc64-ps3-elf/lib/libc.a(lib_a-strncat.o)
                                        0x5bf (size before relaxing)
 .debug_str     0x0000000000001c8d       0x34 /home/louis/Documents/ps3/ps3toolchain/bin/ppu/lib/gcc/powerpc64-ps3-elf/7.2.0/../../../../powerpc64-ps3-elf/lib/libc.a(lib_a-strncpy.o)
                                        0x5dc (size before relaxing)
 .debug_str     0x0000000000001cc1      0x1d5 /home/louis/Documents/ps3/ps3toolchain/bin/ppu/lib/gcc/powerpc64-ps3-elf/7.2.0/../../../../powerpc64-ps3-elf/lib/libc.a(lib_a-svfscanf.o)
                                        0x9a6 (size before relaxing)
 .debug_str     0x0000000000001e96       0x9b /home/louis/Documents/ps3/ps3toolchain/bin/ppu/lib/gcc/powerpc64-ps3-elf/7.2.0/../../../../powerpc64-ps3-elf/lib/libc.a(lib_a-time.o)
                                        0x5f4 (size before relaxing)
 .debug_str     0x0000000000001f31       0x2d /home/louis/Documents/ps3/ps3toolchain/bin/ppu/lib/gcc/powerpc64-ps3-elf/7.2.0/../../../../powerpc64-ps3-elf/lib/libc.a(lib_a-u_strerr.o)
                                        0x10f (size before relaxing)
 .debug_str     0x0000000000001f5e      0x24c /home/louis/Documents/ps3/ps3toolchain/bin/ppu/lib/gcc/powerpc64-ps3-elf/7.2.0/../../../../powerpc64-ps3-elf/lib/libc.a(lib_a-vfprintf.o)
                                        0xa91 (size before relaxing)
 .debug_str     0x00000000000021aa       0x37 /home/louis/Documents/ps3/ps3toolchain/bin/ppu/lib/gcc/powerpc64-ps3-elf/7.2.0/../../../../powerpc64-ps3-elf/lib/libc.a(lib_a-wsetup.o)
                                        0x739 (size before relaxing)
 .debug_str     0x00000000000021e1       0x3b /home/louis/Documents/ps3/ps3toolchain/bin/ppu/lib/gcc/powerpc64-ps3-elf/7.2.0/../../../../powerpc64-ps3-elf/lib/libc.a(lib_a-__atexit.o)
                                        0x65b (size before relaxing)
 .debug_str     0x000000000000221c       0x40 /home/louis/Documents/ps3/ps3toolchain/bin/ppu/lib/gcc/powerpc64-ps3-elf/7.2.0/../../../../powerpc64-ps3-elf/lib/libc.a(lib_a-__call_atexit.o)
                                        0x62d (size before relaxing)
 .debug_str     0x000000000000225c       0x8f /home/louis/Documents/ps3/ps3toolchain/bin/ppu/lib/gcc/powerpc64-ps3-elf/7.2.0/../../../../powerpc64-ps3-elf/lib/libc.a(lib_a-ctype_.o)
                                        0x10d (size before relaxing)
 .debug_str     0x00000000000022eb      0x15b /home/louis/Documents/ps3/ps3toolchain/bin/ppu/lib/gcc/powerpc64-ps3-elf/7.2.0/../../../../powerpc64-ps3-elf/lib/libc.a(lib_a-dtoa.o)
                                        0x7ae (size before relaxing)
 .debug_str     0x0000000000002446       0x5a /home/louis/Documents/ps3/ps3toolchain/bin/ppu/lib/gcc/powerpc64-ps3-elf/7.2.0/../../../../powerpc64-ps3-elf/lib/libc.a(lib_a-fflush.o)
                                        0x79d (size before relaxing)
 .debug_str     0x00000000000024a0       0xf1 /home/louis/Documents/ps3/ps3toolchain/bin/ppu/lib/gcc/powerpc64-ps3-elf/7.2.0/../../../../powerpc64-ps3-elf/lib/libc.a(lib_a-findfp.o)
                                        0x87c (size before relaxing)
 .debug_str     0x0000000000002591       0x3a /home/louis/Documents/ps3/ps3toolchain/bin/ppu/lib/gcc/powerpc64-ps3-elf/7.2.0/../../../../powerpc64-ps3-elf/lib/libc.a(lib_a-fputc.o)
                                        0x75f (size before relaxing)
 .debug_str     0x00000000000025cb       0x3f /home/louis/Documents/ps3/ps3toolchain/bin/ppu/lib/gcc/powerpc64-ps3-elf/7.2.0/../../../../powerpc64-ps3-elf/lib/libc.a(lib_a-fputs.o)
                                        0x7a9 (size before relaxing)
 .debug_str     0x000000000000260a       0x34 /home/louis/Documents/ps3/ps3toolchain/bin/ppu/lib/gcc/powerpc64-ps3-elf/7.2.0/../../../../powerpc64-ps3-elf/lib/libc.a(lib_a-freer.o)
                                        0x79b (size before relaxing)
 .debug_str     0x000000000000263e       0x41 /home/louis/Documents/ps3/ps3toolchain/bin/ppu/lib/gcc/powerpc64-ps3-elf/7.2.0/../../../../powerpc64-ps3-elf/lib/libc.a(lib_a-fvwrite.o)
                                        0x7bd (size before relaxing)
 .debug_str     0x000000000000267f       0x38 /home/louis/Documents/ps3/ps3toolchain/bin/ppu/lib/gcc/powerpc64-ps3-elf/7.2.0/../../../../powerpc64-ps3-elf/lib/libc.a(lib_a-fwalk.o)
                                        0x730 (size before relaxing)
 .debug_str     0x00000000000026b7       0x2c /home/louis/Documents/ps3/ps3toolchain/bin/ppu/lib/gcc/powerpc64-ps3-elf/7.2.0/../../../../powerpc64-ps3-elf/lib/libc.a(lib_a-iswspace.o)
                                        0x5c3 (size before relaxing)
 .debug_str     0x00000000000026e3      0x251 /home/louis/Documents/ps3/ps3toolchain/bin/ppu/lib/gcc/powerpc64-ps3-elf/7.2.0/../../../../powerpc64-ps3-elf/lib/libc.a(lib_a-locale.o)
                                        0x88f (size before relaxing)
 .debug_str     0x0000000000002934      0x114 /home/louis/Documents/ps3/ps3toolchain/bin/ppu/lib/gcc/powerpc64-ps3-elf/7.2.0/../../../../powerpc64-ps3-elf/lib/libc.a(lib_a-lock_recursive.o)
                                        0x746 (size before relaxing)
 .debug_str     0x0000000000002a48       0x49 /home/louis/Documents/ps3/ps3toolchain/bin/ppu/lib/gcc/powerpc64-ps3-elf/7.2.0/../../../../powerpc64-ps3-elf/lib/libc.a(lib_a-makebuf.o)
                                        0x839 (size before relaxing)
 .debug_str     0x0000000000002a91       0x3b /home/louis/Documents/ps3/ps3toolchain/bin/ppu/lib/gcc/powerpc64-ps3-elf/7.2.0/../../../../powerpc64-ps3-elf/lib/libc.a(lib_a-mbrtowc.o)
                                        0x64d (size before relaxing)
 .debug_str     0x0000000000002acc       0x46 /home/louis/Documents/ps3/ps3toolchain/bin/ppu/lib/gcc/powerpc64-ps3-elf/7.2.0/../../../../powerpc64-ps3-elf/lib/libc.a(lib_a-mbtowc_r.o)
                                        0x658 (size before relaxing)
 .debug_str     0x0000000000002b12       0x39 /home/louis/Documents/ps3/ps3toolchain/bin/ppu/lib/gcc/powerpc64-ps3-elf/7.2.0/../../../../powerpc64-ps3-elf/lib/libc.a(lib_a-memchr.o)
                                        0x5cc (size before relaxing)
 .debug_str     0x0000000000002b4b       0x35 /home/louis/Documents/ps3/ps3toolchain/bin/ppu/lib/gcc/powerpc64-ps3-elf/7.2.0/../../../../powerpc64-ps3-elf/lib/libc.a(lib_a-memmove.o)
                                        0x5f1 (size before relaxing)
 .debug_str     0x0000000000002b80       0x7a /home/louis/Documents/ps3/ps3toolchain/bin/ppu/lib/gcc/powerpc64-ps3-elf/7.2.0/../../../../powerpc64-ps3-elf/lib/libc.a(lib_a-mprec.o)
                                        0x757 (size before relaxing)
 .debug_str     0x0000000000002bfa       0x32 /home/louis/Documents/ps3/ps3toolchain/bin/ppu/lib/gcc/powerpc64-ps3-elf/7.2.0/../../../../powerpc64-ps3-elf/lib/libc.a(lib_a-putc.o)
                                        0x759 (size before relaxing)
 .debug_str     0x0000000000002c2c       0x38 /home/louis/Documents/ps3/ps3toolchain/bin/ppu/lib/gcc/powerpc64-ps3-elf/7.2.0/../../../../powerpc64-ps3-elf/lib/libc.a(lib_a-sccl.o)
                                        0x6fe (size before relaxing)
 .debug_str     0x0000000000002c64       0x2b /home/louis/Documents/ps3/ps3toolchain/bin/ppu/lib/gcc/powerpc64-ps3-elf/7.2.0/../../../../powerpc64-ps3-elf/lib/libc.a(lib_a-sf_nan.o)
                                        0x655 (size before relaxing)
 .debug_str     0x0000000000002c8f       0x31 /home/louis/Documents/ps3/ps3toolchain/bin/ppu/lib/gcc/powerpc64-ps3-elf/7.2.0/../../../../powerpc64-ps3-elf/lib/libc.a(lib_a-s_fpclassify.o)
                                        0x65f (size before relaxing)
 .debug_str     0x0000000000002cc0       0x43 /home/louis/Documents/ps3/ps3toolchain/bin/ppu/lib/gcc/powerpc64-ps3-elf/7.2.0/../../../../powerpc64-ps3-elf/lib/libc.a(lib_a-sprintf.o)
                                        0x743 (size before relaxing)
 .debug_str     0x0000000000002d03       0x2b /home/louis/Documents/ps3/ps3toolchain/bin/ppu/lib/gcc/powerpc64-ps3-elf/7.2.0/../../../../powerpc64-ps3-elf/lib/libc.a(lib_a-strcmp.o)
                                        0x5ab (size before relaxing)
 .debug_str     0x0000000000002d2e      0x1be /home/louis/Documents/ps3/ps3toolchain/bin/ppu/lib/gcc/powerpc64-ps3-elf/7.2.0/../../../../powerpc64-ps3-elf/lib/libc.a(lib_a-strtod.o)
                                        0x8ef (size before relaxing)
 .debug_str     0x0000000000002eec       0x43 /home/louis/Documents/ps3/ps3toolchain/bin/ppu/lib/gcc/powerpc64-ps3-elf/7.2.0/../../../../powerpc64-ps3-elf/lib/libc.a(lib_a-strtoll_r.o)
                                        0x60d (size before relaxing)
 .debug_str     0x0000000000002f2f       0x32 /home/louis/Documents/ps3/ps3toolchain/bin/ppu/lib/gcc/powerpc64-ps3-elf/7.2.0/../../../../powerpc64-ps3-elf/lib/libc.a(lib_a-strtol.o)
                                        0x61b (size before relaxing)
 .debug_str     0x0000000000002f61       0x2f /home/louis/Documents/ps3/ps3toolchain/bin/ppu/lib/gcc/powerpc64-ps3-elf/7.2.0/../../../../powerpc64-ps3-elf/lib/libc.a(lib_a-strtoull_r.o)
                                        0x60f (size before relaxing)
 .debug_str     0x0000000000002f90       0x3f /home/louis/Documents/ps3/ps3toolchain/bin/ppu/lib/gcc/powerpc64-ps3-elf/7.2.0/../../../../powerpc64-ps3-elf/lib/libc.a(lib_a-strtoul.o)
                                        0x61e (size before relaxing)
 .debug_str     0x0000000000002fcf       0x1f /home/louis/Documents/ps3/ps3toolchain/bin/ppu/lib/gcc/powerpc64-ps3-elf/7.2.0/../../../../powerpc64-ps3-elf/lib/libc.a(lib_a-svfiscanf.o)
                                        0x8fa (size before relaxing)
 .debug_str     0x0000000000002fee        0xc /home/louis/Documents/ps3/ps3toolchain/bin/ppu/lib/gcc/powerpc64-ps3-elf/7.2.0/../../../../powerpc64-ps3-elf/lib/libc.a(lib_a-svfprintf.o)
                                        0x9dc (size before relaxing)
 .debug_str     0x0000000000002ffa       0x3b /home/louis/Documents/ps3/ps3toolchain/bin/ppu/lib/gcc/powerpc64-ps3-elf/7.2.0/../../../../powerpc64-ps3-elf/lib/libc.a(lib_a-ungetc.o)
                                        0x78a (size before relaxing)
 .debug_str     0x0000000000003035       0x21 /home/louis/Documents/ps3/ps3toolchain/bin/ppu/lib/gcc/powerpc64-ps3-elf/7.2.0/../../../../powerpc64-ps3-elf/lib/libc.a(lib_a-vfiprintf.o)
                                        0x9dd (size before relaxing)
 .debug_str     0x0000000000003056       0x30 /home/louis/Documents/ps3/ps3toolchain/bin/ppu/lib/gcc/powerpc64-ps3-elf/7.2.0/../../../../powerpc64-ps3-elf/lib/libc.a(lib_a-wbuf.o)
                                        0x73e (size before relaxing)
 .debug_str     0x0000000000003086       0x3b /home/louis/Documents/ps3/ps3toolchain/bin/ppu/lib/gcc/powerpc64-ps3-elf/7.2.0/../../../../powerpc64-ps3-elf/lib/libc.a(lib_a-fclose.o)
                                        0x7a7 (size before relaxing)
 .debug_str     0x00000000000030c1       0x3e /home/louis/Documents/ps3/ps3toolchain/bin/ppu/lib/gcc/powerpc64-ps3-elf/7.2.0/../../../../powerpc64-ps3-elf/lib/libc.a(lib_a-fputwc.o)
                                        0x7a6 (size before relaxing)
 .debug_str     0x00000000000030ff       0xcc /home/louis/Documents/ps3/ps3toolchain/bin/ppu/lib/gcc/powerpc64-ps3-elf/7.2.0/../../../../powerpc64-ps3-elf/lib/libc.a(lib_a-gdtoa-gethex.o)
                                        0x888 (size before relaxing)
 .debug_str     0x00000000000031cb       0x39 /home/louis/Documents/ps3/ps3toolchain/bin/ppu/lib/gcc/powerpc64-ps3-elf/7.2.0/../../../../powerpc64-ps3-elf/lib/libc.a(lib_a-gdtoa-hexnan.o)
                                        0x787 (size before relaxing)
 .debug_str     0x0000000000003204       0x53 /home/louis/Documents/ps3/ps3toolchain/bin/ppu/lib/gcc/powerpc64-ps3-elf/7.2.0/../../../../powerpc64-ps3-elf/lib/libc.a(lib_a-lock_internal.o)
                                        0x6a8 (size before relaxing)
 .debug_str     0x0000000000003257       0x2c /home/louis/Documents/ps3/ps3toolchain/bin/ppu/lib/gcc/powerpc64-ps3-elf/7.2.0/../../../../powerpc64-ps3-elf/lib/libc.a(lib_a-strncmp.o)
                                        0x5b4 (size before relaxing)
 .debug_str     0x0000000000003283        0xe /home/louis/Documents/ps3/ps3toolchain/bin/ppu/lib/gcc/powerpc64-ps3-elf/7.2.0/../../../../powerpc64-ps3-elf/lib/libc.a(lib_a-svfiprintf.o)
                                        0x941 (size before relaxing)
 .debug_str     0x0000000000003291       0x34 /home/louis/Documents/ps3/ps3toolchain/bin/ppu/lib/gcc/powerpc64-ps3-elf/7.2.0/../../../../powerpc64-ps3-elf/lib/libc.a(lib_a-wcrtomb.o)
                                        0x64d (size before relaxing)
 .debug_str     0x00000000000032c5       0x4d /home/louis/Documents/ps3/ps3toolchain/bin/ppu/lib/gcc/powerpc64-ps3-elf/7.2.0/../../../../powerpc64-ps3-elf/lib/libc.a(lib_a-wctomb_r.o)
                                        0x651 (size before relaxing)
 .debug_str     0x0000000000003312       0x30 /home/louis/Documents/ps3/ps3toolchain/bin/ppu/lib/gcc/powerpc64-ps3-elf/7.2.0/../../../../powerpc64-ps3-elf/lib/libc.a(lib_a-abort.o)
                                        0x5f8 (size before relaxing)
 .debug_str     0x0000000000003342       0xf7 /home/louis/Documents/ps3/ps3toolchain/bin/ppu/lib/gcc/powerpc64-ps3-elf/7.2.0/../../../../powerpc64-ps3-elf/lib/libc.a(lib_a-signal.o)
                                        0x668 (size before relaxing)
 .debug_str     0x0000000000003439       0x28 /home/louis/Documents/ps3/ps3toolchain/bin/ppu/lib/gcc/powerpc64-ps3-elf/7.2.0/../../../../powerpc64-ps3-elf/lib/libsysbase.a(close.o)
                                        0xaa0 (size before relaxing)
 .debug_str     0x0000000000003461       0x2c /home/louis/Documents/ps3/ps3toolchain/bin/ppu/lib/gcc/powerpc64-ps3-elf/7.2.0/../../../../powerpc64-ps3-elf/lib/libsysbase.a(sbrk.o)
                                        0xaa3 (size before relaxing)
 .debug_str     0x000000000000348d       0x28 /home/louis/Documents/ps3/ps3toolchain/bin/ppu/lib/gcc/powerpc64-ps3-elf/7.2.0/../../../../powerpc64-ps3-elf/lib/libsysbase.a(_exit.o)
                                        0xa86 (size before relaxing)
 .debug_str     0x00000000000034b5       0x28 /home/louis/Documents/ps3/ps3toolchain/bin/ppu/lib/gcc/powerpc64-ps3-elf/7.2.0/../../../../powerpc64-ps3-elf/lib/libsysbase.a(fstat.o)
                                        0xaa0 (size before relaxing)
 .debug_str     0x00000000000034dd       0x29 /home/louis/Documents/ps3/ps3toolchain/bin/ppu/lib/gcc/powerpc64-ps3-elf/7.2.0/../../../../powerpc64-ps3-elf/lib/libsysbase.a(isatty.o)
                                        0xaa2 (size before relaxing)
 .debug_str     0x0000000000003506       0x28 /home/louis/Documents/ps3/ps3toolchain/bin/ppu/lib/gcc/powerpc64-ps3-elf/7.2.0/../../../../powerpc64-ps3-elf/lib/libsysbase.a(lseek.o)
                                        0xaa0 (size before relaxing)
 .debug_str     0x000000000000352e       0x27 /home/louis/Documents/ps3/ps3toolchain/bin/ppu/lib/gcc/powerpc64-ps3-elf/7.2.0/../../../../powerpc64-ps3-elf/lib/libsysbase.a(read.o)
                                        0xa9e (size before relaxing)
 .debug_str     0x0000000000003555       0x28 /home/louis/Documents/ps3/ps3toolchain/bin/ppu/lib/gcc/powerpc64-ps3-elf/7.2.0/../../../../powerpc64-ps3-elf/lib/libsysbase.a(write.o)
                                        0xaa0 (size before relaxing)
 .debug_str     0x000000000000357d       0x2f /home/louis/Documents/ps3/ps3toolchain/bin/ppu/lib/gcc/powerpc64-ps3-elf/7.2.0/../../../../powerpc64-ps3-elf/lib/libsysbase.a(lock.o)
                                        0xb15 (size before relaxing)
 .debug_str     0x00000000000035ac       0x29 /home/louis/Documents/ps3/ps3toolchain/bin/ppu/lib/gcc/powerpc64-ps3-elf/7.2.0/../../../../powerpc64-ps3-elf/lib/libsysbase.a(getpid.o)
                                        0xaa2 (size before relaxing)
 .debug_str     0x00000000000035d5       0x27 /home/louis/Documents/ps3/ps3toolchain/bin/ppu/lib/gcc/powerpc64-ps3-elf/7.2.0/../../../../powerpc64-ps3-elf/lib/libsysbase.a(kill.o)
                                        0x5be (size before relaxing)
 .debug_str     0x00000000000035fc       0x3c /home/louis/Documents/ps3/ps3toolchain/bin/ppu/lib/gcc/powerpc64-ps3-elf/7.2.0/../../../../powerpc64-ps3-elf/lib/libsysbase.a(gettod.o)
                                        0xabb (size before relaxing)

.debug_loc      0x0000000000000000    0x2ee7a
 *(.debug_loc)
 .debug_loc     0x0000000000000000       0x3c /home/louis/Documents/ps3/ps3toolchain/bin/ppu/lib/gcc/powerpc64-ps3-elf/7.2.0/../../../../powerpc64-ps3-elf/lib/libm.a(lib_a-sf_cos.o)
 .debug_loc     0x000000000000003c      0x3cd /home/louis/Documents/ps3/ps3toolchain/bin/ppu/lib/gcc/powerpc64-ps3-elf/7.2.0/../../../../powerpc64-ps3-elf/lib/libm.a(lib_a-sf_sine.o)
 .debug_loc     0x0000000000000409       0x3c /home/louis/Documents/ps3/ps3toolchain/bin/ppu/lib/gcc/powerpc64-ps3-elf/7.2.0/../../../../powerpc64-ps3-elf/lib/libm.a(lib_a-sf_sin.o)
 .debug_loc     0x0000000000000445      0x21d /home/louis/Documents/ps3/ps3toolchain/bin/ppu/lib/gcc/powerpc64-ps3-elf/7.2.0/../../../../powerpc64-ps3-elf/lib/libm.a(lib_a-sf_sqrt.o)
 .debug_loc     0x0000000000000662      0x2ef /home/louis/Documents/ps3/ps3toolchain/bin/ppu/lib/gcc/powerpc64-ps3-elf/7.2.0/../../../../powerpc64-ps3-elf/lib/libm.a(lib_a-sf_tan.o)
 .debug_loc     0x0000000000000951      0x1f1 /home/louis/Documents/ps3/ps3toolchain/bin/ppu/lib/gcc/powerpc64-ps3-elf/7.2.0/../../../../powerpc64-ps3-elf/lib/libm.a(lib_a-s_sqrt.o)
 .debug_loc     0x0000000000000b42       0xa0 /home/louis/Documents/ps3/ps3toolchain/bin/ppu/lib/gcc/powerpc64-ps3-elf/7.2.0/../../../../powerpc64-ps3-elf/lib/libm.a(lib_a-sf_fabs.o)
 .debug_loc     0x0000000000000be2       0xdc /home/louis/Documents/ps3/ps3toolchain/bin/ppu/lib/gcc/powerpc64-ps3-elf/7.2.0/../../../../powerpc64-ps3-elf/lib/libm.a(lib_a-sf_floor.o)
 .debug_loc     0x0000000000000cbe      0x197 /home/louis/Documents/ps3/ps3toolchain/bin/ppu/lib/gcc/powerpc64-ps3-elf/7.2.0/../../../../powerpc64-ps3-elf/lib/libm.a(lib_a-sf_frexp.o)
 .debug_loc     0x0000000000000e55       0x39 /home/louis/Documents/ps3/ps3toolchain/bin/ppu/lib/gcc/powerpc64-ps3-elf/7.2.0/../../../../powerpc64-ps3-elf/lib/libm.a(lib_a-sf_ispos.o)
 .debug_loc     0x0000000000000e8e      0x2f5 /home/louis/Documents/ps3/ps3toolchain/bin/ppu/lib/gcc/powerpc64-ps3-elf/7.2.0/../../../../powerpc64-ps3-elf/lib/libm.a(lib_a-sf_ldexp.o)
 .debug_loc     0x0000000000001183      0x2ab /home/louis/Documents/ps3/ps3toolchain/bin/ppu/lib/gcc/powerpc64-ps3-elf/7.2.0/../../../../powerpc64-ps3-elf/lib/libm.a(lib_a-sf_modf.o)
 .debug_loc     0x000000000000142e      0x1d0 /home/louis/Documents/ps3/ps3toolchain/bin/ppu/lib/gcc/powerpc64-ps3-elf/7.2.0/../../../../powerpc64-ps3-elf/lib/libm.a(lib_a-s_frexp.o)
 .debug_loc     0x00000000000015fe      0x377 /home/louis/Documents/ps3/ps3toolchain/bin/ppu/lib/gcc/powerpc64-ps3-elf/7.2.0/../../../../powerpc64-ps3-elf/lib/libm.a(lib_a-s_ldexp.o)
 .debug_loc     0x0000000000001975      0x12a /home/louis/Documents/ps3/ps3toolchain/bin/ppu/lib/gcc/powerpc64-ps3-elf/7.2.0/../../../../powerpc64-ps3-elf/lib/libsysbase.a(sleep.o)
 .debug_loc     0x0000000000001a9f       0x4c /home/louis/Documents/ps3/ps3toolchain/bin/ppu/lib/gcc/powerpc64-ps3-elf/7.2.0/../../../../powerpc64-ps3-elf/lib/libc.a(lib_a-atexit.o)
 .debug_loc     0x0000000000001aeb       0x98 /home/louis/Documents/ps3/ps3toolchain/bin/ppu/lib/gcc/powerpc64-ps3-elf/7.2.0/../../../../powerpc64-ps3-elf/lib/libc.a(lib_a-calloc.o)
 .debug_loc     0x0000000000001b83      0x373 /home/louis/Documents/ps3/ps3toolchain/bin/ppu/lib/gcc/powerpc64-ps3-elf/7.2.0/../../../../powerpc64-ps3-elf/lib/libc.a(lib_a-callocr.o)
 .debug_loc     0x0000000000001ef6       0x39 /home/louis/Documents/ps3/ps3toolchain/bin/ppu/lib/gcc/powerpc64-ps3-elf/7.2.0/../../../../powerpc64-ps3-elf/lib/libc.a(lib_a-exit.o)
 .debug_loc     0x0000000000001f2f      0x1fb /home/louis/Documents/ps3/ps3toolchain/bin/ppu/lib/gcc/powerpc64-ps3-elf/7.2.0/../../../../powerpc64-ps3-elf/lib/libc.a(lib_a-fprintf.o)
 .debug_loc     0x000000000000212a       0x5c /home/louis/Documents/ps3/ps3toolchain/bin/ppu/lib/gcc/powerpc64-ps3-elf/7.2.0/../../../../powerpc64-ps3-elf/lib/libc.a(lib_a-getreent.o)
 .debug_loc     0x0000000000002186       0x98 /home/louis/Documents/ps3/ps3toolchain/bin/ppu/lib/gcc/powerpc64-ps3-elf/7.2.0/../../../../powerpc64-ps3-elf/lib/libc.a(lib_a-malign.o)
 .debug_loc     0x000000000000221e      0x457 /home/louis/Documents/ps3/ps3toolchain/bin/ppu/lib/gcc/powerpc64-ps3-elf/7.2.0/../../../../powerpc64-ps3-elf/lib/libc.a(lib_a-malignr.o)
 .debug_loc     0x0000000000002675       0x98 /home/louis/Documents/ps3/ps3toolchain/bin/ppu/lib/gcc/powerpc64-ps3-elf/7.2.0/../../../../powerpc64-ps3-elf/lib/libc.a(lib_a-malloc.o)
 .debug_loc     0x000000000000270d     0x15a2 /home/louis/Documents/ps3/ps3toolchain/bin/ppu/lib/gcc/powerpc64-ps3-elf/7.2.0/../../../../powerpc64-ps3-elf/lib/libc.a(lib_a-mallocr.o)
 .debug_loc     0x0000000000003caf      0x4a6 /home/louis/Documents/ps3/ps3toolchain/bin/ppu/lib/gcc/powerpc64-ps3-elf/7.2.0/../../../../powerpc64-ps3-elf/lib/libc.a(lib_a-memcpy.o)
 .debug_loc     0x0000000000004155      0x323 /home/louis/Documents/ps3/ps3toolchain/bin/ppu/lib/gcc/powerpc64-ps3-elf/7.2.0/../../../../powerpc64-ps3-elf/lib/libc.a(lib_a-memset.o)
 .debug_loc     0x0000000000004478       0x72 /home/louis/Documents/ps3/ps3toolchain/bin/ppu/lib/gcc/powerpc64-ps3-elf/7.2.0/../../../../powerpc64-ps3-elf/lib/libc.a(lib_a-mlock.o)
 .debug_loc     0x00000000000044ea      0x169 /home/louis/Documents/ps3/ps3toolchain/bin/ppu/lib/gcc/powerpc64-ps3-elf/7.2.0/../../../../powerpc64-ps3-elf/lib/libc.a(lib_a-perror.o)
 .debug_loc     0x0000000000004653       0x98 /home/louis/Documents/ps3/ps3toolchain/bin/ppu/lib/gcc/powerpc64-ps3-elf/7.2.0/../../../../powerpc64-ps3-elf/lib/libc.a(lib_a-realloc.o)
 .debug_loc     0x00000000000046eb     0x1c58 /home/louis/Documents/ps3/ps3toolchain/bin/ppu/lib/gcc/powerpc64-ps3-elf/7.2.0/../../../../powerpc64-ps3-elf/lib/libc.a(lib_a-reallocr.o)
 .debug_loc     0x0000000000006343      0x1f3 /home/louis/Documents/ps3/ps3toolchain/bin/ppu/lib/gcc/powerpc64-ps3-elf/7.2.0/../../../../powerpc64-ps3-elf/lib/libc.a(lib_a-sscanf.o)
 .debug_loc     0x0000000000006536      0x577 /home/louis/Documents/ps3/ps3toolchain/bin/ppu/lib/gcc/powerpc64-ps3-elf/7.2.0/../../../../powerpc64-ps3-elf/lib/libc.a(lib_a-stdio.o)
 .debug_loc     0x0000000000006aad      0x270 /home/louis/Documents/ps3/ps3toolchain/bin/ppu/lib/gcc/powerpc64-ps3-elf/7.2.0/../../../../powerpc64-ps3-elf/lib/libc.a(lib_a-strcasecmp.o)
 .debug_loc     0x0000000000006d1d      0x23e /home/louis/Documents/ps3/ps3toolchain/bin/ppu/lib/gcc/powerpc64-ps3-elf/7.2.0/../../../../powerpc64-ps3-elf/lib/libc.a(lib_a-strchr.o)
 .debug_loc     0x0000000000006f5b      0x1cf /home/louis/Documents/ps3/ps3toolchain/bin/ppu/lib/gcc/powerpc64-ps3-elf/7.2.0/../../../../powerpc64-ps3-elf/lib/libc.a(lib_a-strcpy.o)
 .debug_loc     0x000000000000712a       0x4c /home/louis/Documents/ps3/ps3toolchain/bin/ppu/lib/gcc/powerpc64-ps3-elf/7.2.0/../../../../powerpc64-ps3-elf/lib/libc.a(lib_a-strdup.o)
 .debug_loc     0x0000000000007176      0x104 /home/louis/Documents/ps3/ps3toolchain/bin/ppu/lib/gcc/powerpc64-ps3-elf/7.2.0/../../../../powerpc64-ps3-elf/lib/libc.a(lib_a-strdup_r.o)
 .debug_loc     0x000000000000727a     0x156c /home/louis/Documents/ps3/ps3toolchain/bin/ppu/lib/gcc/powerpc64-ps3-elf/7.2.0/../../../../powerpc64-ps3-elf/lib/libc.a(lib_a-strerror.o)
 .debug_loc     0x00000000000087e6      0x103 /home/louis/Documents/ps3/ps3toolchain/bin/ppu/lib/gcc/powerpc64-ps3-elf/7.2.0/../../../../powerpc64-ps3-elf/lib/libc.a(lib_a-strlen.o)
 .debug_loc     0x00000000000088e9      0x16a /home/louis/Documents/ps3/ps3toolchain/bin/ppu/lib/gcc/powerpc64-ps3-elf/7.2.0/../../../../powerpc64-ps3-elf/lib/libc.a(lib_a-strncat.o)
 .debug_loc     0x0000000000008a53      0x27e /home/louis/Documents/ps3/ps3toolchain/bin/ppu/lib/gcc/powerpc64-ps3-elf/7.2.0/../../../../powerpc64-ps3-elf/lib/libc.a(lib_a-strncpy.o)
 .debug_loc     0x0000000000008cd1     0x2871 /home/louis/Documents/ps3/ps3toolchain/bin/ppu/lib/gcc/powerpc64-ps3-elf/7.2.0/../../../../powerpc64-ps3-elf/lib/libc.a(lib_a-svfscanf.o)
 .debug_loc     0x000000000000b542       0x5f /home/louis/Documents/ps3/ps3toolchain/bin/ppu/lib/gcc/powerpc64-ps3-elf/7.2.0/../../../../powerpc64-ps3-elf/lib/libc.a(lib_a-time.o)
 .debug_loc     0x000000000000b5a1       0x39 /home/louis/Documents/ps3/ps3toolchain/bin/ppu/lib/gcc/powerpc64-ps3-elf/7.2.0/../../../../powerpc64-ps3-elf/lib/libc.a(lib_a-u_strerr.o)
 .debug_loc     0x000000000000b5da     0x364c /home/louis/Documents/ps3/ps3toolchain/bin/ppu/lib/gcc/powerpc64-ps3-elf/7.2.0/../../../../powerpc64-ps3-elf/lib/libc.a(lib_a-vfprintf.o)
 .debug_loc     0x000000000000ec26       0xbe /home/louis/Documents/ps3/ps3toolchain/bin/ppu/lib/gcc/powerpc64-ps3-elf/7.2.0/../../../../powerpc64-ps3-elf/lib/libc.a(lib_a-wsetup.o)
 .debug_loc     0x000000000000ece4      0x1fe /home/louis/Documents/ps3/ps3toolchain/bin/ppu/lib/gcc/powerpc64-ps3-elf/7.2.0/../../../../powerpc64-ps3-elf/lib/libc.a(lib_a-__atexit.o)
 .debug_loc     0x000000000000eee2      0x343 /home/louis/Documents/ps3/ps3toolchain/bin/ppu/lib/gcc/powerpc64-ps3-elf/7.2.0/../../../../powerpc64-ps3-elf/lib/libc.a(lib_a-__call_atexit.o)
 .debug_loc     0x000000000000f225     0x3eda /home/louis/Documents/ps3/ps3toolchain/bin/ppu/lib/gcc/powerpc64-ps3-elf/7.2.0/../../../../powerpc64-ps3-elf/lib/libc.a(lib_a-dtoa.o)
 .debug_loc     0x00000000000130ff      0x8ac /home/louis/Documents/ps3/ps3toolchain/bin/ppu/lib/gcc/powerpc64-ps3-elf/7.2.0/../../../../powerpc64-ps3-elf/lib/libc.a(lib_a-fflush.o)
 .debug_loc     0x00000000000139ab      0x489 /home/louis/Documents/ps3/ps3toolchain/bin/ppu/lib/gcc/powerpc64-ps3-elf/7.2.0/../../../../powerpc64-ps3-elf/lib/libc.a(lib_a-findfp.o)
 .debug_loc     0x0000000000013e34      0x224 /home/louis/Documents/ps3/ps3toolchain/bin/ppu/lib/gcc/powerpc64-ps3-elf/7.2.0/../../../../powerpc64-ps3-elf/lib/libc.a(lib_a-fputc.o)
 .debug_loc     0x0000000000014058      0x1d8 /home/louis/Documents/ps3/ps3toolchain/bin/ppu/lib/gcc/powerpc64-ps3-elf/7.2.0/../../../../powerpc64-ps3-elf/lib/libc.a(lib_a-fputs.o)
 .debug_loc     0x0000000000014230      0x8b3 /home/louis/Documents/ps3/ps3toolchain/bin/ppu/lib/gcc/powerpc64-ps3-elf/7.2.0/../../../../powerpc64-ps3-elf/lib/libc.a(lib_a-freer.o)
 .debug_loc     0x0000000000014ae3      0xa59 /home/louis/Documents/ps3/ps3toolchain/bin/ppu/lib/gcc/powerpc64-ps3-elf/7.2.0/../../../../powerpc64-ps3-elf/lib/libc.a(lib_a-fvwrite.o)
 .debug_loc     0x000000000001553c      0x4cb /home/louis/Documents/ps3/ps3toolchain/bin/ppu/lib/gcc/powerpc64-ps3-elf/7.2.0/../../../../powerpc64-ps3-elf/lib/libc.a(lib_a-fwalk.o)
 .debug_loc     0x0000000000015a07       0x62 /home/louis/Documents/ps3/ps3toolchain/bin/ppu/lib/gcc/powerpc64-ps3-elf/7.2.0/../../../../powerpc64-ps3-elf/lib/libc.a(lib_a-iswspace.o)
 .debug_loc     0x0000000000015a69      0x276 /home/louis/Documents/ps3/ps3toolchain/bin/ppu/lib/gcc/powerpc64-ps3-elf/7.2.0/../../../../powerpc64-ps3-elf/lib/libc.a(lib_a-locale.o)
 .debug_loc     0x0000000000015cdf      0x156 /home/louis/Documents/ps3/ps3toolchain/bin/ppu/lib/gcc/powerpc64-ps3-elf/7.2.0/../../../../powerpc64-ps3-elf/lib/libc.a(lib_a-lock_recursive.o)
 .debug_loc     0x0000000000015e35      0x273 /home/louis/Documents/ps3/ps3toolchain/bin/ppu/lib/gcc/powerpc64-ps3-elf/7.2.0/../../../../powerpc64-ps3-elf/lib/libc.a(lib_a-makebuf.o)
 .debug_loc     0x00000000000160a8      0x514 /home/louis/Documents/ps3/ps3toolchain/bin/ppu/lib/gcc/powerpc64-ps3-elf/7.2.0/../../../../powerpc64-ps3-elf/lib/libc.a(lib_a-mbrtowc.o)
 .debug_loc     0x00000000000165bc      0x211 /home/louis/Documents/ps3/ps3toolchain/bin/ppu/lib/gcc/powerpc64-ps3-elf/7.2.0/../../../../powerpc64-ps3-elf/lib/libc.a(lib_a-mbtowc_r.o)
 .debug_loc     0x00000000000167cd      0x24b /home/louis/Documents/ps3/ps3toolchain/bin/ppu/lib/gcc/powerpc64-ps3-elf/7.2.0/../../../../powerpc64-ps3-elf/lib/libc.a(lib_a-memchr.o)
 .debug_loc     0x0000000000016a18      0x5cf /home/louis/Documents/ps3/ps3toolchain/bin/ppu/lib/gcc/powerpc64-ps3-elf/7.2.0/../../../../powerpc64-ps3-elf/lib/libc.a(lib_a-memmove.o)
 .debug_loc     0x0000000000016fe7     0x377c /home/louis/Documents/ps3/ps3toolchain/bin/ppu/lib/gcc/powerpc64-ps3-elf/7.2.0/../../../../powerpc64-ps3-elf/lib/libc.a(lib_a-mprec.o)
 .debug_loc     0x000000000001a763      0x224 /home/louis/Documents/ps3/ps3toolchain/bin/ppu/lib/gcc/powerpc64-ps3-elf/7.2.0/../../../../powerpc64-ps3-elf/lib/libc.a(lib_a-putc.o)
 .debug_loc     0x000000000001a987      0x311 /home/louis/Documents/ps3/ps3toolchain/bin/ppu/lib/gcc/powerpc64-ps3-elf/7.2.0/../../../../powerpc64-ps3-elf/lib/libc.a(lib_a-sccl.o)
 .debug_loc     0x000000000001ac98       0xcb /home/louis/Documents/ps3/ps3toolchain/bin/ppu/lib/gcc/powerpc64-ps3-elf/7.2.0/../../../../powerpc64-ps3-elf/lib/libc.a(lib_a-s_fpclassify.o)
 .debug_loc     0x000000000001ad63      0x1fc /home/louis/Documents/ps3/ps3toolchain/bin/ppu/lib/gcc/powerpc64-ps3-elf/7.2.0/../../../../powerpc64-ps3-elf/lib/libc.a(lib_a-sprintf.o)
 .debug_loc     0x000000000001af5f      0x224 /home/louis/Documents/ps3/ps3toolchain/bin/ppu/lib/gcc/powerpc64-ps3-elf/7.2.0/../../../../powerpc64-ps3-elf/lib/libc.a(lib_a-strcmp.o)
 .debug_loc     0x000000000001b183     0x3742 /home/louis/Documents/ps3/ps3toolchain/bin/ppu/lib/gcc/powerpc64-ps3-elf/7.2.0/../../../../powerpc64-ps3-elf/lib/libc.a(lib_a-strtod.o)
 .debug_loc     0x000000000001e8c5      0x59c /home/louis/Documents/ps3/ps3toolchain/bin/ppu/lib/gcc/powerpc64-ps3-elf/7.2.0/../../../../powerpc64-ps3-elf/lib/libc.a(lib_a-strtoll_r.o)
 .debug_loc     0x000000000001ee61      0x693 /home/louis/Documents/ps3/ps3toolchain/bin/ppu/lib/gcc/powerpc64-ps3-elf/7.2.0/../../../../powerpc64-ps3-elf/lib/libc.a(lib_a-strtol.o)
 .debug_loc     0x000000000001f4f4      0x577 /home/louis/Documents/ps3/ps3toolchain/bin/ppu/lib/gcc/powerpc64-ps3-elf/7.2.0/../../../../powerpc64-ps3-elf/lib/libc.a(lib_a-strtoull_r.o)
 .debug_loc     0x000000000001fa6b      0x66e /home/louis/Documents/ps3/ps3toolchain/bin/ppu/lib/gcc/powerpc64-ps3-elf/7.2.0/../../../../powerpc64-ps3-elf/lib/libc.a(lib_a-strtoul.o)
 .debug_loc     0x00000000000200d9     0x1f4d /home/louis/Documents/ps3/ps3toolchain/bin/ppu/lib/gcc/powerpc64-ps3-elf/7.2.0/../../../../powerpc64-ps3-elf/lib/libc.a(lib_a-svfiscanf.o)
 .debug_loc     0x0000000000022026     0x320d /home/louis/Documents/ps3/ps3toolchain/bin/ppu/lib/gcc/powerpc64-ps3-elf/7.2.0/../../../../powerpc64-ps3-elf/lib/libc.a(lib_a-svfprintf.o)
 .debug_loc     0x0000000000025233      0x495 /home/louis/Documents/ps3/ps3toolchain/bin/ppu/lib/gcc/powerpc64-ps3-elf/7.2.0/../../../../powerpc64-ps3-elf/lib/libc.a(lib_a-ungetc.o)
 .debug_loc     0x00000000000256c8     0x2b4b /home/louis/Documents/ps3/ps3toolchain/bin/ppu/lib/gcc/powerpc64-ps3-elf/7.2.0/../../../../powerpc64-ps3-elf/lib/libc.a(lib_a-vfiprintf.o)
 .debug_loc     0x0000000000028213      0x28b /home/louis/Documents/ps3/ps3toolchain/bin/ppu/lib/gcc/powerpc64-ps3-elf/7.2.0/../../../../powerpc64-ps3-elf/lib/libc.a(lib_a-wbuf.o)
 .debug_loc     0x000000000002849e      0x237 /home/louis/Documents/ps3/ps3toolchain/bin/ppu/lib/gcc/powerpc64-ps3-elf/7.2.0/../../../../powerpc64-ps3-elf/lib/libc.a(lib_a-fclose.o)
 .debug_loc     0x00000000000286d5      0x435 /home/louis/Documents/ps3/ps3toolchain/bin/ppu/lib/gcc/powerpc64-ps3-elf/7.2.0/../../../../powerpc64-ps3-elf/lib/libc.a(lib_a-fputwc.o)
 .debug_loc     0x0000000000028b0a     0x1e8c /home/louis/Documents/ps3/ps3toolchain/bin/ppu/lib/gcc/powerpc64-ps3-elf/7.2.0/../../../../powerpc64-ps3-elf/lib/libc.a(lib_a-gdtoa-gethex.o)
 .debug_loc     0x000000000002a996      0x98a /home/louis/Documents/ps3/ps3toolchain/bin/ppu/lib/gcc/powerpc64-ps3-elf/7.2.0/../../../../powerpc64-ps3-elf/lib/libc.a(lib_a-gdtoa-hexnan.o)
 .debug_loc     0x000000000002b320       0x5f /home/louis/Documents/ps3/ps3toolchain/bin/ppu/lib/gcc/powerpc64-ps3-elf/7.2.0/../../../../powerpc64-ps3-elf/lib/libc.a(lib_a-lock_internal.o)
 .debug_loc     0x000000000002b37f      0x1b6 /home/louis/Documents/ps3/ps3toolchain/bin/ppu/lib/gcc/powerpc64-ps3-elf/7.2.0/../../../../powerpc64-ps3-elf/lib/libc.a(lib_a-strncmp.o)
 .debug_loc     0x000000000002b535     0x1bfd /home/louis/Documents/ps3/ps3toolchain/bin/ppu/lib/gcc/powerpc64-ps3-elf/7.2.0/../../../../powerpc64-ps3-elf/lib/libc.a(lib_a-svfiprintf.o)
 .debug_loc     0x000000000002d132      0x402 /home/louis/Documents/ps3/ps3toolchain/bin/ppu/lib/gcc/powerpc64-ps3-elf/7.2.0/../../../../powerpc64-ps3-elf/lib/libc.a(lib_a-wcrtomb.o)
 .debug_loc     0x000000000002d534      0x168 /home/louis/Documents/ps3/ps3toolchain/bin/ppu/lib/gcc/powerpc64-ps3-elf/7.2.0/../../../../powerpc64-ps3-elf/lib/libc.a(lib_a-wctomb_r.o)
 .debug_loc     0x000000000002d69c      0xb4f /home/louis/Documents/ps3/ps3toolchain/bin/ppu/lib/gcc/powerpc64-ps3-elf/7.2.0/../../../../powerpc64-ps3-elf/lib/libc.a(lib_a-signal.o)
 .debug_loc     0x000000000002e1eb       0xab /home/louis/Documents/ps3/ps3toolchain/bin/ppu/lib/gcc/powerpc64-ps3-elf/7.2.0/../../../../powerpc64-ps3-elf/lib/libsysbase.a(close.o)
 .debug_loc     0x000000000002e296       0xab /home/louis/Documents/ps3/ps3toolchain/bin/ppu/lib/gcc/powerpc64-ps3-elf/7.2.0/../../../../powerpc64-ps3-elf/lib/libsysbase.a(sbrk.o)
 .debug_loc     0x000000000002e341       0x39 /home/louis/Documents/ps3/ps3toolchain/bin/ppu/lib/gcc/powerpc64-ps3-elf/7.2.0/../../../../powerpc64-ps3-elf/lib/libsysbase.a(_exit.o)
 .debug_loc     0x000000000002e37a       0xf7 /home/louis/Documents/ps3/ps3toolchain/bin/ppu/lib/gcc/powerpc64-ps3-elf/7.2.0/../../../../powerpc64-ps3-elf/lib/libsysbase.a(fstat.o)
 .debug_loc     0x000000000002e471       0xab /home/louis/Documents/ps3/ps3toolchain/bin/ppu/lib/gcc/powerpc64-ps3-elf/7.2.0/../../../../powerpc64-ps3-elf/lib/libsysbase.a(isatty.o)
 .debug_loc     0x000000000002e51c      0x143 /home/louis/Documents/ps3/ps3toolchain/bin/ppu/lib/gcc/powerpc64-ps3-elf/7.2.0/../../../../powerpc64-ps3-elf/lib/libsysbase.a(lseek.o)
 .debug_loc     0x000000000002e65f      0x143 /home/louis/Documents/ps3/ps3toolchain/bin/ppu/lib/gcc/powerpc64-ps3-elf/7.2.0/../../../../powerpc64-ps3-elf/lib/libsysbase.a(read.o)
 .debug_loc     0x000000000002e7a2      0x143 /home/louis/Documents/ps3/ps3toolchain/bin/ppu/lib/gcc/powerpc64-ps3-elf/7.2.0/../../../../powerpc64-ps3-elf/lib/libsysbase.a(write.o)
 .debug_loc     0x000000000002e8e5      0x406 /home/louis/Documents/ps3/ps3toolchain/bin/ppu/lib/gcc/powerpc64-ps3-elf/7.2.0/../../../../powerpc64-ps3-elf/lib/libsysbase.a(lock.o)
 .debug_loc     0x000000000002eceb       0x5f /home/louis/Documents/ps3/ps3toolchain/bin/ppu/lib/gcc/powerpc64-ps3-elf/7.2.0/../../../../powerpc64-ps3-elf/lib/libsysbase.a(getpid.o)
 .debug_loc     0x000000000002ed4a       0x39 /home/louis/Documents/ps3/ps3toolchain/bin/ppu/lib/gcc/powerpc64-ps3-elf/7.2.0/../../../../powerpc64-ps3-elf/lib/libsysbase.a(kill.o)
 .debug_loc     0x000000000002ed83       0xf7 /home/louis/Documents/ps3/ps3toolchain/bin/ppu/lib/gcc/powerpc64-ps3-elf/7.2.0/../../../../powerpc64-ps3-elf/lib/libsysbase.a(gettod.o)

.debug_macinfo
 *(.debug_macinfo)

.debug_weaknames
 *(.debug_weaknames)

.debug_funcnames
 *(.debug_funcnames)

.debug_typenames
 *(.debug_typenames)

.debug_varnames
 *(.debug_varnames)

.debug_pubtypes
 *(.debug_pubtypes)

.debug_ranges   0x0000000000000000     0x3060
 *(.debug_ranges)
 .debug_ranges  0x0000000000000000       0x20 /home/louis/Documents/ps3/ps3toolchain/bin/ppu/lib/gcc/powerpc64-ps3-elf/7.2.0/../../../../powerpc64-ps3-elf/lib/libm.a(lib_a-sf_cos.o)
 .debug_ranges  0x0000000000000020       0x20 /home/louis/Documents/ps3/ps3toolchain/bin/ppu/lib/gcc/powerpc64-ps3-elf/7.2.0/../../../../powerpc64-ps3-elf/lib/libm.a(lib_a-sf_sine.o)
 .debug_ranges  0x0000000000000040       0x20 /home/louis/Documents/ps3/ps3toolchain/bin/ppu/lib/gcc/powerpc64-ps3-elf/7.2.0/../../../../powerpc64-ps3-elf/lib/libm.a(lib_a-sf_sin.o)
 .debug_ranges  0x0000000000000060       0x70 /home/louis/Documents/ps3/ps3toolchain/bin/ppu/lib/gcc/powerpc64-ps3-elf/7.2.0/../../../../powerpc64-ps3-elf/lib/libm.a(lib_a-sf_sqrt.o)
 .debug_ranges  0x00000000000000d0       0x20 /home/louis/Documents/ps3/ps3toolchain/bin/ppu/lib/gcc/powerpc64-ps3-elf/7.2.0/../../../../powerpc64-ps3-elf/lib/libm.a(lib_a-sf_tan.o)
 .debug_ranges  0x00000000000000f0       0x70 /home/louis/Documents/ps3/ps3toolchain/bin/ppu/lib/gcc/powerpc64-ps3-elf/7.2.0/../../../../powerpc64-ps3-elf/lib/libm.a(lib_a-s_sqrt.o)
 .debug_ranges  0x0000000000000160       0x20 /home/louis/Documents/ps3/ps3toolchain/bin/ppu/lib/gcc/powerpc64-ps3-elf/7.2.0/../../../../powerpc64-ps3-elf/lib/libm.a(lib_a-sf_fabs.o)
 .debug_ranges  0x0000000000000180       0x20 /home/louis/Documents/ps3/ps3toolchain/bin/ppu/lib/gcc/powerpc64-ps3-elf/7.2.0/../../../../powerpc64-ps3-elf/lib/libm.a(lib_a-sf_floor.o)
 .debug_ranges  0x00000000000001a0       0x50 /home/louis/Documents/ps3/ps3toolchain/bin/ppu/lib/gcc/powerpc64-ps3-elf/7.2.0/../../../../powerpc64-ps3-elf/lib/libm.a(lib_a-sf_frexp.o)
 .debug_ranges  0x00000000000001f0       0x20 /home/louis/Documents/ps3/ps3toolchain/bin/ppu/lib/gcc/powerpc64-ps3-elf/7.2.0/../../../../powerpc64-ps3-elf/lib/libm.a(lib_a-sf_ispos.o)
 .debug_ranges  0x0000000000000210       0x20 /home/louis/Documents/ps3/ps3toolchain/bin/ppu/lib/gcc/powerpc64-ps3-elf/7.2.0/../../../../powerpc64-ps3-elf/lib/libm.a(lib_a-sf_ldexp.o)
 .debug_ranges  0x0000000000000230       0xe0 /home/louis/Documents/ps3/ps3toolchain/bin/ppu/lib/gcc/powerpc64-ps3-elf/7.2.0/../../../../powerpc64-ps3-elf/lib/libm.a(lib_a-sf_modf.o)
 .debug_ranges  0x0000000000000310       0x20 /home/louis/Documents/ps3/ps3toolchain/bin/ppu/lib/gcc/powerpc64-ps3-elf/7.2.0/../../../../powerpc64-ps3-elf/lib/libm.a(lib_a-sf_numtest.o)
 .debug_ranges  0x0000000000000330       0x50 /home/louis/Documents/ps3/ps3toolchain/bin/ppu/lib/gcc/powerpc64-ps3-elf/7.2.0/../../../../powerpc64-ps3-elf/lib/libm.a(lib_a-s_frexp.o)
 .debug_ranges  0x0000000000000380       0x20 /home/louis/Documents/ps3/ps3toolchain/bin/ppu/lib/gcc/powerpc64-ps3-elf/7.2.0/../../../../powerpc64-ps3-elf/lib/libm.a(lib_a-s_ispos.o)
 .debug_ranges  0x00000000000003a0       0x20 /home/louis/Documents/ps3/ps3toolchain/bin/ppu/lib/gcc/powerpc64-ps3-elf/7.2.0/../../../../powerpc64-ps3-elf/lib/libm.a(lib_a-s_ldexp.o)
 .debug_ranges  0x00000000000003c0       0x20 /home/louis/Documents/ps3/ps3toolchain/bin/ppu/lib/gcc/powerpc64-ps3-elf/7.2.0/../../../../powerpc64-ps3-elf/lib/libm.a(lib_a-s_numtest.o)
 .debug_ranges  0x00000000000003e0       0x30 /home/louis/Documents/ps3/ps3toolchain/bin/ppu/lib/gcc/powerpc64-ps3-elf/7.2.0/../../../../powerpc64-ps3-elf/lib/libsysbase.a(sleep.o)
 .debug_ranges  0x0000000000000410       0x20 /home/louis/Documents/ps3/ps3toolchain/bin/ppu/lib/gcc/powerpc64-ps3-elf/7.2.0/../../../../powerpc64-ps3-elf/lib/libc.a(lib_a-atexit.o)
 .debug_ranges  0x0000000000000430       0x20 /home/louis/Documents/ps3/ps3toolchain/bin/ppu/lib/gcc/powerpc64-ps3-elf/7.2.0/../../../../powerpc64-ps3-elf/lib/libc.a(lib_a-calloc.o)
 .debug_ranges  0x0000000000000450       0x90 /home/louis/Documents/ps3/ps3toolchain/bin/ppu/lib/gcc/powerpc64-ps3-elf/7.2.0/../../../../powerpc64-ps3-elf/lib/libc.a(lib_a-callocr.o)
 .debug_ranges  0x00000000000004e0       0x20 /home/louis/Documents/ps3/ps3toolchain/bin/ppu/lib/gcc/powerpc64-ps3-elf/7.2.0/../../../../powerpc64-ps3-elf/lib/libc.a(lib_a-errno.o)
 .debug_ranges  0x0000000000000500       0x20 /home/louis/Documents/ps3/ps3toolchain/bin/ppu/lib/gcc/powerpc64-ps3-elf/7.2.0/../../../../powerpc64-ps3-elf/lib/libc.a(lib_a-exit.o)
 .debug_ranges  0x0000000000000520       0x30 /home/louis/Documents/ps3/ps3toolchain/bin/ppu/lib/gcc/powerpc64-ps3-elf/7.2.0/../../../../powerpc64-ps3-elf/lib/libc.a(lib_a-fprintf.o)
 .debug_ranges  0x0000000000000550       0x60 /home/louis/Documents/ps3/ps3toolchain/bin/ppu/lib/gcc/powerpc64-ps3-elf/7.2.0/../../../../powerpc64-ps3-elf/lib/libc.a(lib_a-getreent.o)
 .debug_ranges  0x00000000000005b0       0x20 /home/louis/Documents/ps3/ps3toolchain/bin/ppu/lib/gcc/powerpc64-ps3-elf/7.2.0/../../../../powerpc64-ps3-elf/lib/libc.a(lib_a-malign.o)
 .debug_ranges  0x00000000000005d0       0x20 /home/louis/Documents/ps3/ps3toolchain/bin/ppu/lib/gcc/powerpc64-ps3-elf/7.2.0/../../../../powerpc64-ps3-elf/lib/libc.a(lib_a-malignr.o)
 .debug_ranges  0x00000000000005f0       0x30 /home/louis/Documents/ps3/ps3toolchain/bin/ppu/lib/gcc/powerpc64-ps3-elf/7.2.0/../../../../powerpc64-ps3-elf/lib/libc.a(lib_a-malloc.o)
 .debug_ranges  0x0000000000000620       0xa0 /home/louis/Documents/ps3/ps3toolchain/bin/ppu/lib/gcc/powerpc64-ps3-elf/7.2.0/../../../../powerpc64-ps3-elf/lib/libc.a(lib_a-mallocr.o)
 .debug_ranges  0x00000000000006c0       0x20 /home/louis/Documents/ps3/ps3toolchain/bin/ppu/lib/gcc/powerpc64-ps3-elf/7.2.0/../../../../powerpc64-ps3-elf/lib/libc.a(lib_a-memcpy.o)
 .debug_ranges  0x00000000000006e0       0x20 /home/louis/Documents/ps3/ps3toolchain/bin/ppu/lib/gcc/powerpc64-ps3-elf/7.2.0/../../../../powerpc64-ps3-elf/lib/libc.a(lib_a-memset.o)
 .debug_ranges  0x0000000000000700       0x30 /home/louis/Documents/ps3/ps3toolchain/bin/ppu/lib/gcc/powerpc64-ps3-elf/7.2.0/../../../../powerpc64-ps3-elf/lib/libc.a(lib_a-mlock.o)
 .debug_ranges  0x0000000000000730       0x30 /home/louis/Documents/ps3/ps3toolchain/bin/ppu/lib/gcc/powerpc64-ps3-elf/7.2.0/../../../../powerpc64-ps3-elf/lib/libc.a(lib_a-perror.o)
 .debug_ranges  0x0000000000000760       0x20 /home/louis/Documents/ps3/ps3toolchain/bin/ppu/lib/gcc/powerpc64-ps3-elf/7.2.0/../../../../powerpc64-ps3-elf/lib/libc.a(lib_a-realloc.o)
 .debug_ranges  0x0000000000000780      0x350 /home/louis/Documents/ps3/ps3toolchain/bin/ppu/lib/gcc/powerpc64-ps3-elf/7.2.0/../../../../powerpc64-ps3-elf/lib/libc.a(lib_a-reallocr.o)
 .debug_ranges  0x0000000000000ad0       0x30 /home/louis/Documents/ps3/ps3toolchain/bin/ppu/lib/gcc/powerpc64-ps3-elf/7.2.0/../../../../powerpc64-ps3-elf/lib/libc.a(lib_a-sscanf.o)
 .debug_ranges  0x0000000000000b00       0x60 /home/louis/Documents/ps3/ps3toolchain/bin/ppu/lib/gcc/powerpc64-ps3-elf/7.2.0/../../../../powerpc64-ps3-elf/lib/libc.a(lib_a-stdio.o)
 .debug_ranges  0x0000000000000b60       0x80 /home/louis/Documents/ps3/ps3toolchain/bin/ppu/lib/gcc/powerpc64-ps3-elf/7.2.0/../../../../powerpc64-ps3-elf/lib/libc.a(lib_a-strcasecmp.o)
 .debug_ranges  0x0000000000000be0       0x20 /home/louis/Documents/ps3/ps3toolchain/bin/ppu/lib/gcc/powerpc64-ps3-elf/7.2.0/../../../../powerpc64-ps3-elf/lib/libc.a(lib_a-strchr.o)
 .debug_ranges  0x0000000000000c00       0x20 /home/louis/Documents/ps3/ps3toolchain/bin/ppu/lib/gcc/powerpc64-ps3-elf/7.2.0/../../../../powerpc64-ps3-elf/lib/libc.a(lib_a-strcpy.o)
 .debug_ranges  0x0000000000000c20       0x20 /home/louis/Documents/ps3/ps3toolchain/bin/ppu/lib/gcc/powerpc64-ps3-elf/7.2.0/../../../../powerpc64-ps3-elf/lib/libc.a(lib_a-strdup.o)
 .debug_ranges  0x0000000000000c40       0x20 /home/louis/Documents/ps3/ps3toolchain/bin/ppu/lib/gcc/powerpc64-ps3-elf/7.2.0/../../../../powerpc64-ps3-elf/lib/libc.a(lib_a-strdup_r.o)
 .debug_ranges  0x0000000000000c60       0x30 /home/louis/Documents/ps3/ps3toolchain/bin/ppu/lib/gcc/powerpc64-ps3-elf/7.2.0/../../../../powerpc64-ps3-elf/lib/libc.a(lib_a-strerror.o)
 .debug_ranges  0x0000000000000c90       0x20 /home/louis/Documents/ps3/ps3toolchain/bin/ppu/lib/gcc/powerpc64-ps3-elf/7.2.0/../../../../powerpc64-ps3-elf/lib/libc.a(lib_a-strlen.o)
 .debug_ranges  0x0000000000000cb0       0x20 /home/louis/Documents/ps3/ps3toolchain/bin/ppu/lib/gcc/powerpc64-ps3-elf/7.2.0/../../../../powerpc64-ps3-elf/lib/libc.a(lib_a-strncat.o)
 .debug_ranges  0x0000000000000cd0       0x20 /home/louis/Documents/ps3/ps3toolchain/bin/ppu/lib/gcc/powerpc64-ps3-elf/7.2.0/../../../../powerpc64-ps3-elf/lib/libc.a(lib_a-strncpy.o)
 .debug_ranges  0x0000000000000cf0      0x350 /home/louis/Documents/ps3/ps3toolchain/bin/ppu/lib/gcc/powerpc64-ps3-elf/7.2.0/../../../../powerpc64-ps3-elf/lib/libc.a(lib_a-svfscanf.o)
 .debug_ranges  0x0000000000001040       0x20 /home/louis/Documents/ps3/ps3toolchain/bin/ppu/lib/gcc/powerpc64-ps3-elf/7.2.0/../../../../powerpc64-ps3-elf/lib/libc.a(lib_a-time.o)
 .debug_ranges  0x0000000000001060       0x20 /home/louis/Documents/ps3/ps3toolchain/bin/ppu/lib/gcc/powerpc64-ps3-elf/7.2.0/../../../../powerpc64-ps3-elf/lib/libc.a(lib_a-u_strerr.o)
 .debug_ranges  0x0000000000001080      0x350 /home/louis/Documents/ps3/ps3toolchain/bin/ppu/lib/gcc/powerpc64-ps3-elf/7.2.0/../../../../powerpc64-ps3-elf/lib/libc.a(lib_a-vfprintf.o)
 .debug_ranges  0x00000000000013d0       0x20 /home/louis/Documents/ps3/ps3toolchain/bin/ppu/lib/gcc/powerpc64-ps3-elf/7.2.0/../../../../powerpc64-ps3-elf/lib/libc.a(lib_a-wsetup.o)
 .debug_ranges  0x00000000000013f0       0x20 /home/louis/Documents/ps3/ps3toolchain/bin/ppu/lib/gcc/powerpc64-ps3-elf/7.2.0/../../../../powerpc64-ps3-elf/lib/libc.a(lib_a-__atexit.o)
 .debug_ranges  0x0000000000001410       0x80 /home/louis/Documents/ps3/ps3toolchain/bin/ppu/lib/gcc/powerpc64-ps3-elf/7.2.0/../../../../powerpc64-ps3-elf/lib/libc.a(lib_a-__call_atexit.o)
 .debug_ranges  0x0000000000001490       0x30 /home/louis/Documents/ps3/ps3toolchain/bin/ppu/lib/gcc/powerpc64-ps3-elf/7.2.0/../../../../powerpc64-ps3-elf/lib/libc.a(lib_a-dtoa.o)
 .debug_ranges  0x00000000000014c0      0x100 /home/louis/Documents/ps3/ps3toolchain/bin/ppu/lib/gcc/powerpc64-ps3-elf/7.2.0/../../../../powerpc64-ps3-elf/lib/libc.a(lib_a-fflush.o)
 .debug_ranges  0x00000000000015c0      0x200 /home/louis/Documents/ps3/ps3toolchain/bin/ppu/lib/gcc/powerpc64-ps3-elf/7.2.0/../../../../powerpc64-ps3-elf/lib/libc.a(lib_a-findfp.o)
 .debug_ranges  0x00000000000017c0       0x30 /home/louis/Documents/ps3/ps3toolchain/bin/ppu/lib/gcc/powerpc64-ps3-elf/7.2.0/../../../../powerpc64-ps3-elf/lib/libc.a(lib_a-fputc.o)
 .debug_ranges  0x00000000000017f0       0x30 /home/louis/Documents/ps3/ps3toolchain/bin/ppu/lib/gcc/powerpc64-ps3-elf/7.2.0/../../../../powerpc64-ps3-elf/lib/libc.a(lib_a-fputs.o)
 .debug_ranges  0x0000000000001820       0x30 /home/louis/Documents/ps3/ps3toolchain/bin/ppu/lib/gcc/powerpc64-ps3-elf/7.2.0/../../../../powerpc64-ps3-elf/lib/libc.a(lib_a-freer.o)
 .debug_ranges  0x0000000000001850       0x60 /home/louis/Documents/ps3/ps3toolchain/bin/ppu/lib/gcc/powerpc64-ps3-elf/7.2.0/../../../../powerpc64-ps3-elf/lib/libc.a(lib_a-fvwrite.o)
 .debug_ranges  0x00000000000018b0       0x30 /home/louis/Documents/ps3/ps3toolchain/bin/ppu/lib/gcc/powerpc64-ps3-elf/7.2.0/../../../../powerpc64-ps3-elf/lib/libc.a(lib_a-fwalk.o)
 .debug_ranges  0x00000000000018e0       0x20 /home/louis/Documents/ps3/ps3toolchain/bin/ppu/lib/gcc/powerpc64-ps3-elf/7.2.0/../../../../powerpc64-ps3-elf/lib/libc.a(lib_a-iswspace.o)
 .debug_ranges  0x0000000000001900       0xc0 /home/louis/Documents/ps3/ps3toolchain/bin/ppu/lib/gcc/powerpc64-ps3-elf/7.2.0/../../../../powerpc64-ps3-elf/lib/libc.a(lib_a-locale.o)
 .debug_ranges  0x00000000000019c0       0x60 /home/louis/Documents/ps3/ps3toolchain/bin/ppu/lib/gcc/powerpc64-ps3-elf/7.2.0/../../../../powerpc64-ps3-elf/lib/libc.a(lib_a-lock_recursive.o)
 .debug_ranges  0x0000000000001a20       0x20 /home/louis/Documents/ps3/ps3toolchain/bin/ppu/lib/gcc/powerpc64-ps3-elf/7.2.0/../../../../powerpc64-ps3-elf/lib/libc.a(lib_a-makebuf.o)
 .debug_ranges  0x0000000000001a40       0x30 /home/louis/Documents/ps3/ps3toolchain/bin/ppu/lib/gcc/powerpc64-ps3-elf/7.2.0/../../../../powerpc64-ps3-elf/lib/libc.a(lib_a-mbrtowc.o)
 .debug_ranges  0x0000000000001a70       0x30 /home/louis/Documents/ps3/ps3toolchain/bin/ppu/lib/gcc/powerpc64-ps3-elf/7.2.0/../../../../powerpc64-ps3-elf/lib/libc.a(lib_a-mbtowc_r.o)
 .debug_ranges  0x0000000000001aa0       0x20 /home/louis/Documents/ps3/ps3toolchain/bin/ppu/lib/gcc/powerpc64-ps3-elf/7.2.0/../../../../powerpc64-ps3-elf/lib/libc.a(lib_a-memchr.o)
 .debug_ranges  0x0000000000001ac0       0x20 /home/louis/Documents/ps3/ps3toolchain/bin/ppu/lib/gcc/powerpc64-ps3-elf/7.2.0/../../../../powerpc64-ps3-elf/lib/libc.a(lib_a-memmove.o)
 .debug_ranges  0x0000000000001ae0      0x2d0 /home/louis/Documents/ps3/ps3toolchain/bin/ppu/lib/gcc/powerpc64-ps3-elf/7.2.0/../../../../powerpc64-ps3-elf/lib/libc.a(lib_a-mprec.o)
 .debug_ranges  0x0000000000001db0       0x30 /home/louis/Documents/ps3/ps3toolchain/bin/ppu/lib/gcc/powerpc64-ps3-elf/7.2.0/../../../../powerpc64-ps3-elf/lib/libc.a(lib_a-putc.o)
 .debug_ranges  0x0000000000001de0       0x20 /home/louis/Documents/ps3/ps3toolchain/bin/ppu/lib/gcc/powerpc64-ps3-elf/7.2.0/../../../../powerpc64-ps3-elf/lib/libc.a(lib_a-sccl.o)
 .debug_ranges  0x0000000000001e00       0x20 /home/louis/Documents/ps3/ps3toolchain/bin/ppu/lib/gcc/powerpc64-ps3-elf/7.2.0/../../../../powerpc64-ps3-elf/lib/libc.a(lib_a-sf_nan.o)
 .debug_ranges  0x0000000000001e20       0x20 /home/louis/Documents/ps3/ps3toolchain/bin/ppu/lib/gcc/powerpc64-ps3-elf/7.2.0/../../../../powerpc64-ps3-elf/lib/libc.a(lib_a-s_fpclassify.o)
 .debug_ranges  0x0000000000001e40       0x30 /home/louis/Documents/ps3/ps3toolchain/bin/ppu/lib/gcc/powerpc64-ps3-elf/7.2.0/../../../../powerpc64-ps3-elf/lib/libc.a(lib_a-sprintf.o)
 .debug_ranges  0x0000000000001e70       0x20 /home/louis/Documents/ps3/ps3toolchain/bin/ppu/lib/gcc/powerpc64-ps3-elf/7.2.0/../../../../powerpc64-ps3-elf/lib/libc.a(lib_a-strcmp.o)
 .debug_ranges  0x0000000000001e90      0x150 /home/louis/Documents/ps3/ps3toolchain/bin/ppu/lib/gcc/powerpc64-ps3-elf/7.2.0/../../../../powerpc64-ps3-elf/lib/libc.a(lib_a-strtod.o)
 .debug_ranges  0x0000000000001fe0       0x20 /home/louis/Documents/ps3/ps3toolchain/bin/ppu/lib/gcc/powerpc64-ps3-elf/7.2.0/../../../../powerpc64-ps3-elf/lib/libc.a(lib_a-strtoll_r.o)
 .debug_ranges  0x0000000000002000       0x30 /home/louis/Documents/ps3/ps3toolchain/bin/ppu/lib/gcc/powerpc64-ps3-elf/7.2.0/../../../../powerpc64-ps3-elf/lib/libc.a(lib_a-strtol.o)
 .debug_ranges  0x0000000000002030       0x20 /home/louis/Documents/ps3/ps3toolchain/bin/ppu/lib/gcc/powerpc64-ps3-elf/7.2.0/../../../../powerpc64-ps3-elf/lib/libc.a(lib_a-strtoull_r.o)
 .debug_ranges  0x0000000000002050       0x30 /home/louis/Documents/ps3/ps3toolchain/bin/ppu/lib/gcc/powerpc64-ps3-elf/7.2.0/../../../../powerpc64-ps3-elf/lib/libc.a(lib_a-strtoul.o)
 .debug_ranges  0x0000000000002080      0x220 /home/louis/Documents/ps3/ps3toolchain/bin/ppu/lib/gcc/powerpc64-ps3-elf/7.2.0/../../../../powerpc64-ps3-elf/lib/libc.a(lib_a-svfiscanf.o)
 .debug_ranges  0x00000000000022a0      0x330 /home/louis/Documents/ps3/ps3toolchain/bin/ppu/lib/gcc/powerpc64-ps3-elf/7.2.0/../../../../powerpc64-ps3-elf/lib/libc.a(lib_a-svfprintf.o)
 .debug_ranges  0x00000000000025d0       0x90 /home/louis/Documents/ps3/ps3toolchain/bin/ppu/lib/gcc/powerpc64-ps3-elf/7.2.0/../../../../powerpc64-ps3-elf/lib/libc.a(lib_a-ungetc.o)
 .debug_ranges  0x0000000000002660      0x380 /home/louis/Documents/ps3/ps3toolchain/bin/ppu/lib/gcc/powerpc64-ps3-elf/7.2.0/../../../../powerpc64-ps3-elf/lib/libc.a(lib_a-vfiprintf.o)
 .debug_ranges  0x00000000000029e0       0x30 /home/louis/Documents/ps3/ps3toolchain/bin/ppu/lib/gcc/powerpc64-ps3-elf/7.2.0/../../../../powerpc64-ps3-elf/lib/libc.a(lib_a-wbuf.o)
 .debug_ranges  0x0000000000002a10       0x60 /home/louis/Documents/ps3/ps3toolchain/bin/ppu/lib/gcc/powerpc64-ps3-elf/7.2.0/../../../../powerpc64-ps3-elf/lib/libc.a(lib_a-fclose.o)
 .debug_ranges  0x0000000000002a70       0x70 /home/louis/Documents/ps3/ps3toolchain/bin/ppu/lib/gcc/powerpc64-ps3-elf/7.2.0/../../../../powerpc64-ps3-elf/lib/libc.a(lib_a-fputwc.o)
 .debug_ranges  0x0000000000002ae0       0x90 /home/louis/Documents/ps3/ps3toolchain/bin/ppu/lib/gcc/powerpc64-ps3-elf/7.2.0/../../../../powerpc64-ps3-elf/lib/libc.a(lib_a-gdtoa-gethex.o)
 .debug_ranges  0x0000000000002b70       0x20 /home/louis/Documents/ps3/ps3toolchain/bin/ppu/lib/gcc/powerpc64-ps3-elf/7.2.0/../../../../powerpc64-ps3-elf/lib/libc.a(lib_a-gdtoa-hexnan.o)
 .debug_ranges  0x0000000000002b90       0x30 /home/louis/Documents/ps3/ps3toolchain/bin/ppu/lib/gcc/powerpc64-ps3-elf/7.2.0/../../../../powerpc64-ps3-elf/lib/libc.a(lib_a-lock_internal.o)
 .debug_ranges  0x0000000000002bc0       0x20 /home/louis/Documents/ps3/ps3toolchain/bin/ppu/lib/gcc/powerpc64-ps3-elf/7.2.0/../../../../powerpc64-ps3-elf/lib/libc.a(lib_a-strncmp.o)
 .debug_ranges  0x0000000000002be0       0xc0 /home/louis/Documents/ps3/ps3toolchain/bin/ppu/lib/gcc/powerpc64-ps3-elf/7.2.0/../../../../powerpc64-ps3-elf/lib/libc.a(lib_a-svfiprintf.o)
 .debug_ranges  0x0000000000002ca0       0x30 /home/louis/Documents/ps3/ps3toolchain/bin/ppu/lib/gcc/powerpc64-ps3-elf/7.2.0/../../../../powerpc64-ps3-elf/lib/libc.a(lib_a-wcrtomb.o)
 .debug_ranges  0x0000000000002cd0       0x30 /home/louis/Documents/ps3/ps3toolchain/bin/ppu/lib/gcc/powerpc64-ps3-elf/7.2.0/../../../../powerpc64-ps3-elf/lib/libc.a(lib_a-wctomb_r.o)
 .debug_ranges  0x0000000000002d00       0x20 /home/louis/Documents/ps3/ps3toolchain/bin/ppu/lib/gcc/powerpc64-ps3-elf/7.2.0/../../../../powerpc64-ps3-elf/lib/libc.a(lib_a-abort.o)
 .debug_ranges  0x0000000000002d20      0x180 /home/louis/Documents/ps3/ps3toolchain/bin/ppu/lib/gcc/powerpc64-ps3-elf/7.2.0/../../../../powerpc64-ps3-elf/lib/libc.a(lib_a-signal.o)
 .debug_ranges  0x0000000000002ea0       0x20 /home/louis/Documents/ps3/ps3toolchain/bin/ppu/lib/gcc/powerpc64-ps3-elf/7.2.0/../../../../powerpc64-ps3-elf/lib/libsysbase.a(close.o)
 .debug_ranges  0x0000000000002ec0       0x20 /home/louis/Documents/ps3/ps3toolchain/bin/ppu/lib/gcc/powerpc64-ps3-elf/7.2.0/../../../../powerpc64-ps3-elf/lib/libsysbase.a(sbrk.o)
 .debug_ranges  0x0000000000002ee0       0x20 /home/louis/Documents/ps3/ps3toolchain/bin/ppu/lib/gcc/powerpc64-ps3-elf/7.2.0/../../../../powerpc64-ps3-elf/lib/libsysbase.a(_exit.o)
 .debug_ranges  0x0000000000002f00       0x20 /home/louis/Documents/ps3/ps3toolchain/bin/ppu/lib/gcc/powerpc64-ps3-elf/7.2.0/../../../../powerpc64-ps3-elf/lib/libsysbase.a(fstat.o)
 .debug_ranges  0x0000000000002f20       0x20 /home/louis/Documents/ps3/ps3toolchain/bin/ppu/lib/gcc/powerpc64-ps3-elf/7.2.0/../../../../powerpc64-ps3-elf/lib/libsysbase.a(isatty.o)
 .debug_ranges  0x0000000000002f40       0x20 /home/louis/Documents/ps3/ps3toolchain/bin/ppu/lib/gcc/powerpc64-ps3-elf/7.2.0/../../../../powerpc64-ps3-elf/lib/libsysbase.a(lseek.o)
 .debug_ranges  0x0000000000002f60       0x20 /home/louis/Documents/ps3/ps3toolchain/bin/ppu/lib/gcc/powerpc64-ps3-elf/7.2.0/../../../../powerpc64-ps3-elf/lib/libsysbase.a(read.o)
 .debug_ranges  0x0000000000002f80       0x20 /home/louis/Documents/ps3/ps3toolchain/bin/ppu/lib/gcc/powerpc64-ps3-elf/7.2.0/../../../../powerpc64-ps3-elf/lib/libsysbase.a(write.o)
 .debug_ranges  0x0000000000002fa0       0x60 /home/louis/Documents/ps3/ps3toolchain/bin/ppu/lib/gcc/powerpc64-ps3-elf/7.2.0/../../../../powerpc64-ps3-elf/lib/libsysbase.a(lock.o)
 .debug_ranges  0x0000000000003000       0x20 /home/louis/Documents/ps3/ps3toolchain/bin/ppu/lib/gcc/powerpc64-ps3-elf/7.2.0/../../../../powerpc64-ps3-elf/lib/libsysbase.a(getpid.o)
 .debug_ranges  0x0000000000003020       0x20 /home/louis/Documents/ps3/ps3toolchain/bin/ppu/lib/gcc/powerpc64-ps3-elf/7.2.0/../../../../powerpc64-ps3-elf/lib/libsysbase.a(kill.o)
 .debug_ranges  0x0000000000003040       0x20 /home/louis/Documents/ps3/ps3toolchain/bin/ppu/lib/gcc/powerpc64-ps3-elf/7.2.0/../../../../powerpc64-ps3-elf/lib/libsysbase.a(gettod.o)

.gnu.attributes
                0x0000000000000000      0x1e0
 *(.gnu.attributes)
 .gnu.attributes
                0x0000000000000000       0x10 pad.o
 .gnu.attributes
                0x0000000000000010       0x10 rendering.o
 .gnu.attributes
                0x0000000000000020       0x10 /home/louis/Documents/ps3/ps3toolchain/bin/portlibs/ppu/lib/libtiny3d.a(matrix.o)
 .gnu.attributes
                0x0000000000000030       0x10 /home/louis/Documents/ps3/ps3toolchain/bin/portlibs/ppu/lib/libtiny3d.a(tiny3d.o)
 .gnu.attributes
                0x0000000000000040       0x10 /home/louis/Documents/ps3/ps3toolchain/bin/portlibs/ppu/lib/libtiny3d.a(commands.o)
 .gnu.attributes
                0x0000000000000050       0x10 /home/louis/Documents/ps3/ps3toolchain/bin/ppu/lib/gcc/powerpc64-ps3-elf/7.2.0/../../../../powerpc64-ps3-elf/lib/libm.a(lib_a-sf_cos.o)
 .gnu.attributes
                0x0000000000000060       0x10 /home/louis/Documents/ps3/ps3toolchain/bin/ppu/lib/gcc/powerpc64-ps3-elf/7.2.0/../../../../powerpc64-ps3-elf/lib/libm.a(lib_a-sf_sine.o)
 .gnu.attributes
                0x0000000000000070       0x10 /home/louis/Documents/ps3/ps3toolchain/bin/ppu/lib/gcc/powerpc64-ps3-elf/7.2.0/../../../../powerpc64-ps3-elf/lib/libm.a(lib_a-sf_sin.o)
 .gnu.attributes
                0x0000000000000080       0x10 /home/louis/Documents/ps3/ps3toolchain/bin/ppu/lib/gcc/powerpc64-ps3-elf/7.2.0/../../../../powerpc64-ps3-elf/lib/libm.a(lib_a-sf_sqrt.o)
 .gnu.attributes
                0x0000000000000090       0x10 /home/louis/Documents/ps3/ps3toolchain/bin/ppu/lib/gcc/powerpc64-ps3-elf/7.2.0/../../../../powerpc64-ps3-elf/lib/libm.a(lib_a-sf_tan.o)
 .gnu.attributes
                0x00000000000000a0       0x10 /home/louis/Documents/ps3/ps3toolchain/bin/ppu/lib/gcc/powerpc64-ps3-elf/7.2.0/../../../../powerpc64-ps3-elf/lib/libm.a(lib_a-s_sqrt.o)
 .gnu.attributes
                0x00000000000000b0       0x10 /home/louis/Documents/ps3/ps3toolchain/bin/ppu/lib/gcc/powerpc64-ps3-elf/7.2.0/../../../../powerpc64-ps3-elf/lib/libm.a(lib_a-sf_fabs.o)
 .gnu.attributes
                0x00000000000000c0       0x10 /home/louis/Documents/ps3/ps3toolchain/bin/ppu/lib/gcc/powerpc64-ps3-elf/7.2.0/../../../../powerpc64-ps3-elf/lib/libm.a(lib_a-sf_floor.o)
 .gnu.attributes
                0x00000000000000d0       0x10 /home/louis/Documents/ps3/ps3toolchain/bin/ppu/lib/gcc/powerpc64-ps3-elf/7.2.0/../../../../powerpc64-ps3-elf/lib/libm.a(lib_a-sf_frexp.o)
 .gnu.attributes
                0x00000000000000e0       0x10 /home/louis/Documents/ps3/ps3toolchain/bin/ppu/lib/gcc/powerpc64-ps3-elf/7.2.0/../../../../powerpc64-ps3-elf/lib/libm.a(lib_a-sf_ispos.o)
 .gnu.attributes
                0x00000000000000f0       0x10 /home/louis/Documents/ps3/ps3toolchain/bin/ppu/lib/gcc/powerpc64-ps3-elf/7.2.0/../../../../powerpc64-ps3-elf/lib/libm.a(lib_a-sf_ldexp.o)
 .gnu.attributes
                0x0000000000000100       0x10 /home/louis/Documents/ps3/ps3toolchain/bin/ppu/lib/gcc/powerpc64-ps3-elf/7.2.0/../../../../powerpc64-ps3-elf/lib/libm.a(lib_a-sf_modf.o)
 .gnu.attributes
                0x0000000000000110       0x10 /home/louis/Documents/ps3/ps3toolchain/bin/ppu/lib/gcc/powerpc64-ps3-elf/7.2.0/../../../../powerpc64-ps3-elf/lib/libm.a(lib_a-sf_numtest.o)
 .gnu.attributes
                0x0000000000000120       0x10 /home/louis/Documents/ps3/ps3toolchain/bin/ppu/lib/gcc/powerpc64-ps3-elf/7.2.0/../../../../powerpc64-ps3-elf/lib/libm.a(lib_a-s_frexp.o)
 .gnu.attributes
                0x0000000000000130       0x10 /home/louis/Documents/ps3/ps3toolchain/bin/ppu/lib/gcc/powerpc64-ps3-elf/7.2.0/../../../../powerpc64-ps3-elf/lib/libm.a(lib_a-s_ispos.o)
 .gnu.attributes
                0x0000000000000140       0x10 /home/louis/Documents/ps3/ps3toolchain/bin/ppu/lib/gcc/powerpc64-ps3-elf/7.2.0/../../../../powerpc64-ps3-elf/lib/libm.a(lib_a-s_ldexp.o)
 .gnu.attributes
                0x0000000000000150       0x10 /home/louis/Documents/ps3/ps3toolchain/bin/ppu/lib/gcc/powerpc64-ps3-elf/7.2.0/../../../../powerpc64-ps3-elf/lib/libm.a(lib_a-s_numtest.o)
 .gnu.attributes
                0x0000000000000160       0x10 /home/louis/Documents/ps3/ps3toolchain/bin/ppu/lib/gcc/powerpc64-ps3-elf/7.2.0/../../../../powerpc64-ps3-elf/lib/libc.a(lib_a-svfscanf.o)
 .gnu.attributes
                0x0000000000000170       0x10 /home/louis/Documents/ps3/ps3toolchain/bin/ppu/lib/gcc/powerpc64-ps3-elf/7.2.0/../../../../powerpc64-ps3-elf/lib/libc.a(lib_a-vfprintf.o)
 .gnu.attributes
                0x0000000000000180       0x10 /home/louis/Documents/ps3/ps3toolchain/bin/ppu/lib/gcc/powerpc64-ps3-elf/7.2.0/../../../../powerpc64-ps3-elf/lib/libc.a(lib_a-dtoa.o)
 .gnu.attributes
                0x0000000000000190       0x10 /home/louis/Documents/ps3/ps3toolchain/bin/ppu/lib/gcc/powerpc64-ps3-elf/7.2.0/../../../../powerpc64-ps3-elf/lib/libc.a(lib_a-mprec.o)
 .gnu.attributes
                0x00000000000001a0       0x10 /home/louis/Documents/ps3/ps3toolchain/bin/ppu/lib/gcc/powerpc64-ps3-elf/7.2.0/../../../../powerpc64-ps3-elf/lib/libc.a(lib_a-sf_nan.o)
 .gnu.attributes
                0x00000000000001b0       0x10 /home/louis/Documents/ps3/ps3toolchain/bin/ppu/lib/gcc/powerpc64-ps3-elf/7.2.0/../../../../powerpc64-ps3-elf/lib/libc.a(lib_a-s_fpclassify.o)
 .gnu.attributes
                0x00000000000001c0       0x10 /home/louis/Documents/ps3/ps3toolchain/bin/ppu/lib/gcc/powerpc64-ps3-elf/7.2.0/../../../../powerpc64-ps3-elf/lib/libc.a(lib_a-strtod.o)
 .gnu.attributes
                0x00000000000001d0       0x10 /home/louis/Documents/ps3/ps3toolchain/bin/ppu/lib/gcc/powerpc64-ps3-elf/7.2.0/../../../../powerpc64-ps3-elf/lib/libc.a(lib_a-svfprintf.o)

/DISCARD/
 *(.note.GNU-stack)
 *(.gnu_debuglink)
LOAD /home/louis/Documents/ps3/ps3toolchain/bin/ppu/lib/gcc/powerpc64-ps3-elf/7.2.0/../../../../powerpc64-ps3-elf/lib/lv2-crti.o
LOAD /home/louis/Documents/ps3/ps3toolchain/bin/ppu/lib/gcc/powerpc64-ps3-elf/7.2.0/crtbegin.o
LOAD /home/louis/Documents/ps3/ps3toolchain/bin/ppu/lib/gcc/powerpc64-ps3-elf/7.2.0/../../../../powerpc64-ps3-elf/lib/lv2-crt0.o
LOAD /home/louis/Documents/ps3/ps3toolchain/bin/ppu/lib/gcc/powerpc64-ps3-elf/7.2.0/../../../../powerpc64-ps3-elf/lib/lv2-sprx.o
LOAD main.o
LOAD pad.o
LOAD rendering.o
LOAD /home/louis/Documents/ps3/ps3toolchain/bin/portlibs/ppu/lib/libtiny3d.a
LOAD /home/louis/Documents/ps3/ps3toolchain/bin/portlibs/ppu/lib/libfont3d.a
LOAD /home/louis/Documents/ps3/ps3toolchain/bin/ppu/lib/librsx.a
LOAD /home/louis/Documents/ps3/ps3toolchain/bin/ppu/lib/libsimdmath.a
LOAD /home/louis/Documents/ps3/ps3toolchain/bin/ppu/lib/libgcm_sys.a
LOAD /home/louis/Documents/ps3/ps3toolchain/bin/ppu/lib/libio.a
LOAD /home/louis/Documents/ps3/ps3toolchain/bin/ppu/lib/libsysutil.a
LOAD /home/louis/Documents/ps3/ps3toolchain/bin/ppu/lib/librt.a
LOAD /home/louis/Documents/ps3/ps3toolchain/bin/ppu/lib/liblv2.a
LOAD /home/louis/Documents/ps3/ps3toolchain/bin/ppu/lib/libpngdec.a
LOAD /home/louis/Documents/ps3/ps3toolchain/bin/ppu/lib/libsysmodule.a
LOAD /home/louis/Documents/ps3/ps3toolchain/bin/ppu/lib/gcc/powerpc64-ps3-elf/7.2.0/../../../../powerpc64-ps3-elf/lib/libm.a
LOAD /home/louis/Documents/ps3/ps3toolchain/bin/ppu/lib/gcc/powerpc64-ps3-elf/7.2.0/libgcc.a
START GROUP
LOAD /home/louis/Documents/ps3/ps3toolchain/bin/ppu/lib/gcc/powerpc64-ps3-elf/7.2.0/../../../../powerpc64-ps3-elf/lib/libsysbase.a
LOAD /home/louis/Documents/ps3/ps3toolchain/bin/ppu/lib/gcc/powerpc64-ps3-elf/7.2.0/../../../../powerpc64-ps3-elf/lib/libc.a
LOAD /home/louis/Documents/ps3/ps3toolchain/bin/ppu/lib/librt.a
LOAD /home/louis/Documents/ps3/ps3toolchain/bin/ppu/lib/liblv2.a
END GROUP
LOAD /home/louis/Documents/ps3/ps3toolchain/bin/ppu/lib/gcc/powerpc64-ps3-elf/7.2.0/libgcc.a
LOAD /home/louis/Documents/ps3/ps3toolchain/bin/ppu/lib/gcc/powerpc64-ps3-elf/7.2.0/crtend.o
LOAD /home/louis/Documents/ps3/ps3toolchain/bin/ppu/lib/gcc/powerpc64-ps3-elf/7.2.0/../../../../powerpc64-ps3-elf/lib/lv2-crtn.o
OUTPUT(/home/louis/Documents/ps3/3d-engine-ps3/3d-engine-ps3.elf elf64-powerpc)
